
ET58.elf:     file format elf32-avr


Disassembly of section .text:

00000000 <__vectors>:
       0:	0c 94 34 00 	jmp	0x68	; 0x68 <__ctors_end>
       4:	0c 94 3e 00 	jmp	0x7c	; 0x7c <__bad_interrupt>
       8:	0c 94 3e 00 	jmp	0x7c	; 0x7c <__bad_interrupt>
       c:	0c 94 3e 00 	jmp	0x7c	; 0x7c <__bad_interrupt>
      10:	0c 94 3e 00 	jmp	0x7c	; 0x7c <__bad_interrupt>
      14:	0c 94 10 0a 	jmp	0x1420	; 0x1420 <__vector_5>
      18:	0c 94 3e 00 	jmp	0x7c	; 0x7c <__bad_interrupt>
      1c:	0c 94 3e 00 	jmp	0x7c	; 0x7c <__bad_interrupt>
      20:	0c 94 3e 00 	jmp	0x7c	; 0x7c <__bad_interrupt>
      24:	0c 94 3e 00 	jmp	0x7c	; 0x7c <__bad_interrupt>
      28:	0c 94 3e 00 	jmp	0x7c	; 0x7c <__bad_interrupt>
      2c:	0c 94 be 03 	jmp	0x77c	; 0x77c <__vector_11>
      30:	0c 94 3e 00 	jmp	0x7c	; 0x7c <__bad_interrupt>
      34:	0c 94 3e 00 	jmp	0x7c	; 0x7c <__bad_interrupt>
      38:	0c 94 3e 00 	jmp	0x7c	; 0x7c <__bad_interrupt>
      3c:	0c 94 3e 00 	jmp	0x7c	; 0x7c <__bad_interrupt>
      40:	0c 94 3e 00 	jmp	0x7c	; 0x7c <__bad_interrupt>
      44:	0c 94 3e 00 	jmp	0x7c	; 0x7c <__bad_interrupt>
      48:	0c 94 3e 00 	jmp	0x7c	; 0x7c <__bad_interrupt>
      4c:	0c 94 3e 00 	jmp	0x7c	; 0x7c <__bad_interrupt>
      50:	0c 94 3e 00 	jmp	0x7c	; 0x7c <__bad_interrupt>
      54:	0c 94 3e 00 	jmp	0x7c	; 0x7c <__bad_interrupt>
      58:	0c 94 3e 00 	jmp	0x7c	; 0x7c <__bad_interrupt>
      5c:	0c 94 3e 00 	jmp	0x7c	; 0x7c <__bad_interrupt>
      60:	0c 94 3e 00 	jmp	0x7c	; 0x7c <__bad_interrupt>
      64:	0c 94 3e 00 	jmp	0x7c	; 0x7c <__bad_interrupt>

00000068 <__ctors_end>:
      68:	11 24       	eor	r1, r1
      6a:	1f be       	out	0x3f, r1	; 63
      6c:	cf ef       	ldi	r28, 0xFF	; 255
      6e:	d8 e0       	ldi	r29, 0x08	; 8
      70:	de bf       	out	0x3e, r29	; 62
      72:	cd bf       	out	0x3d, r28	; 61
      74:	0e 94 b7 02 	call	0x56e	; 0x56e <main>
      78:	0c 94 ff 3d 	jmp	0x7bfe	; 0x7bfe <_exit>

0000007c <__bad_interrupt>:
      7c:	0c 94 00 00 	jmp	0	; 0x0 <__vectors>

00000080 <ConstTab>:
	...
      88:	00 00       	nop
      8a:	80 00       	.word	0x0080	; ????
	...
      94:	80 00       	.word	0x0080	; ????
      96:	80 00       	.word	0x0080	; ????
      98:	00 00       	nop
      9a:	00 00       	nop
      9c:	00 00       	nop
      9e:	80 01       	movw	r16, r0
	...
      a8:	7f ff       	.word	0xff7f	; ????
	...
      b2:	7f ff       	.word	0xff7f	; ????
      b4:	40 00       	.word	0x0040	; ????
      b6:	00 00       	nop
      b8:	00 00       	nop
      ba:	00 00       	nop
      bc:	80 03       	fmuls	r16, r16
      be:	20 00       	.word	0x0020	; ????
      c0:	00 00       	nop
      c2:	00 00       	nop
      c4:	00 00       	nop
      c6:	7f fc       	.word	0xfc7f	; ????
      c8:	4c cc       	rjmp	.-1896   	; 0xfffff962 <__eeprom_end+0xff7ef962>
      ca:	cc cc       	rjmp	.-1640   	; 0xfffffa64 <__eeprom_end+0xff7efa64>
      cc:	cc cc       	rjmp	.-1640   	; 0xfffffa66 <__eeprom_end+0xff7efa66>
      ce:	cc cd       	rjmp	.-1128   	; 0xfffffc68 <__eeprom_end+0xff7efc68>
      d0:	80 06       	cpc	r8, r16
      d2:	48 00       	.word	0x0048	; ????
      d4:	00 00       	nop
      d6:	00 00       	nop
      d8:	00 00       	nop
      da:	7f f9       	.word	0xf97f	; ????
      dc:	23 d7       	rcall	.+3654   	; 0xf24 <LoadByte+0x12>
      de:	0a 3d       	cpi	r16, 0xDA	; 218
      e0:	70 a3       	std	Z+32, r23	; 0x20
      e2:	d7 0a       	sbc	r13, r23
      e4:	7f f2       	brie	.-98     	; 0x84 <ConstTab+0x4>
      e6:	51 b7       	in	r21, 0x31	; 49
      e8:	17 58       	subi	r17, 0x87	; 135
      ea:	e2 19       	sub	r30, r2
      ec:	65 2c       	mov	r6, r5
      ee:	7f e5       	ldi	r23, 0x5F	; 95
      f0:	2b cc       	rjmp	.-1962   	; 0xfffff948 <__eeprom_end+0xff7ef948>
      f2:	77 11       	cpse	r23, r7
      f4:	84 61       	ori	r24, 0x14	; 20
      f6:	ce fd       	.word	0xfdce	; ????
      f8:	7f ff       	.word	0xff7f	; ????
      fa:	31 72       	andi	r19, 0x21	; 33
      fc:	17 f7       	brid	.-60     	; 0xc2 <ConstTab+0x42>
      fe:	d1 cf       	rjmp	.-94     	; 0xa2 <ConstTab+0x22>
     100:	79 ac       	ldd	r7, Y+57	; 0x39
     102:	80 00       	.word	0x0080	; ????
     104:	38 aa       	std	Y+48, r3	; 0x30
     106:	3b 29       	or	r19, r11
     108:	5c 17       	cp	r21, r28
     10a:	f0 bc       	out	0x20, r15	; 32
     10c:	80 01       	movw	r16, r0
     10e:	13 5d       	subi	r17, 0xD3	; 211
     110:	8d dd       	rcall	.-1254   	; 0xfffffc2c <__eeprom_end+0xff7efc2c>
     112:	aa a8       	ldd	r10, Y+50	; 0x32
     114:	ac 17       	cp	r26, r28
     116:	7f fe       	.word	0xfe7f	; ????
     118:	5e 5b       	subi	r21, 0xBE	; 190
     11a:	d8 a9       	ldd	r29, Y+48	; 0x30
     11c:	37 28       	or	r3, r7
     11e:	71 95       	neg	r23
     120:	7f fe       	.word	0xfe7f	; ????
     122:	1a 20       	and	r1, r10
     124:	9a 84       	ldd	r9, Y+10	; 0x0a
     126:	fb cf       	rjmp	.-10     	; 0x11e <ConstTab+0x9e>
     128:	f7 99       	sbic	0x1e, 7	; 30
     12a:	80 01       	movw	r16, r0
     12c:	54 9a       	sbi	0x0a, 4	; 10
     12e:	78 4b       	sbci	r23, 0xB8	; 184
     130:	cd 1b       	sub	r28, r29
     132:	8a fe       	.word	0xfe8a	; ????
     134:	80 0e       	add	r8, r16
     136:	33 e3       	ldi	r19, 0x33	; 51
     138:	b3 ad       	ldd	r27, Z+59	; 0x3b
     13a:	16 d2       	rcall	.+1068   	; 0x568 <Fatal+0x10>
     13c:	e6 12       	cpse	r14, r22
     13e:	80 0e       	add	r8, r16
     140:	b3 e3       	ldi	r27, 0x33	; 51
     142:	b3 ad       	ldd	r27, Z+59	; 0x3b
     144:	16 d2       	rcall	.+1068   	; 0x572 <main+0x4>
     146:	e6 12       	cpse	r14, r22
     148:	80 01       	movw	r16, r0
     14a:	2d f8       	.word	0xf82d	; ????
     14c:	54 58       	subi	r21, 0x84	; 132
     14e:	a2 bb       	out	0x12, r26	; 18
     150:	4a 9b       	sbis	0x09, 2	; 9
     152:	80 00       	.word	0x0080	; ????
     154:	49 0f       	add	r20, r25
     156:	da a2       	std	Y+34, r13	; 0x22
     158:	21 68       	ori	r18, 0x81	; 129
     15a:	c2 35       	cpi	r28, 0x52	; 82
     15c:	80 01       	movw	r16, r0
     15e:	49 0f       	add	r20, r25
     160:	da a2       	std	Y+34, r13	; 0x22
     162:	21 68       	ori	r18, 0x81	; 129
     164:	c2 35       	cpi	r28, 0x52	; 82
     166:	80 02       	muls	r24, r16
     168:	49 0f       	add	r20, r25
     16a:	da a2       	std	Y+34, r13	; 0x22
     16c:	21 68       	ori	r18, 0x81	; 129
     16e:	c2 35       	cpi	r28, 0x52	; 82
     170:	7f fd       	.word	0xfd7f	; ????
     172:	22 f9       	bld	r18, 2
     174:	83 6e       	ori	r24, 0xE3	; 227
     176:	4e 44       	sbci	r20, 0x4E	; 78
     178:	15 2a       	or	r1, r21
     17a:	7f ff       	.word	0xff7f	; ????
     17c:	6b 3f       	cpi	r22, 0xFB	; 251
     17e:	8e 43       	sbci	r24, 0x3E	; 62
     180:	25 f5       	brhc	.+72     	; 0x1ca <ExpTab+0xa>
     182:	a5 35       	cpi	r26, 0x55	; 85
     184:	80 05       	cpc	r24, r0
     186:	65 2e       	mov	r6, r21
     188:	e0 d3       	rcall	.+1984   	; 0x94a <FontColL+0x4>
     18a:	1e 0f       	add	r17, r30
     18c:	bd c3       	rjmp	.+1914   	; 0x908 <FontDef+0x2>
     18e:	7f fa       	.word	0xfa7f	; ????
     190:	0e fa       	.word	0xfa0e	; ????
     192:	35 12       	cpse	r3, r21
     194:	94 e9       	ldi	r25, 0x94	; 148
     196:	c8 ae       	std	Y+56, r12	; 0x38
     198:	80 05       	cpc	r24, r0
     19a:	7e a5       	ldd	r23, Y+46	; 0x2e
     19c:	dd 5c       	subi	r29, 0xCD	; 205
     19e:	5a 4a       	sbci	r21, 0xAA	; 170
     1a0:	61 12       	cpse	r6, r17
     1a2:	7f fa       	.word	0xfa7f	; ????
     1a4:	00 ad       	ldd	r16, Z+56	; 0x38
     1a6:	fc 90       	ld	r15, X
     1a8:	b9 38       	cpi	r27, 0x89	; 137
     1aa:	ce 36       	cpi	r28, 0x6E	; 110
     1ac:	80 00       	.word	0x0080	; ????
     1ae:	4f 1b       	sub	r20, r31
     1b0:	bc dc       	rcall	.-1672   	; 0xfffffb2a <__eeprom_end+0xff7efb2a>
     1b2:	bf a5       	ldd	r27, Y+47	; 0x2f
     1b4:	3e 0b       	sbc	r19, r30
     1b6:	80 09       	sbc	r24, r0
     1b8:	79 ff       	.word	0xff79	; ????
     1ba:	5c 28       	or	r5, r12
     1bc:	f5 c2       	rjmp	.+1514   	; 0x7a8 <__vector_11+0x2c>
     1be:	8f 5e       	subi	r24, 0xEF	; 239

000001c0 <ExpTab>:
     1c0:	15 b2       	in	r1, 0x15	; 21
     1c2:	59 86       	std	Y+9, r5	; 0x09
     1c4:	c2 0b       	sbc	r28, r18
     1c6:	68 6d       	ori	r22, 0xD8	; 216
     1c8:	a8 69       	ori	r26, 0x98	; 152
     1ca:	4a d9       	rcall	.-3436   	; 0xfffff460 <__eeprom_end+0xff7ef460>
     1cc:	26 dd       	rcall	.-1460   	; 0xfffffc1a <__eeprom_end+0xff7efc1a>
     1ce:	04 c8       	rjmp	.-4088   	; 0xfffff1d8 <__eeprom_end+0xff7ef1d8>
     1d0:	d2 ce       	rjmp	.-604    	; 0xffffff76 <__eeprom_end+0xff7eff76>
     1d2:	9f de       	rcall	.-706    	; 0xffffff12 <__eeprom_end+0xff7eff12>
     1d4:	65 6c       	ori	r22, 0xC5	; 197
     1d6:	4e ae       	std	Y+62, r4	; 0x3e
     1d8:	53 4f       	sbci	r21, 0xF3	; 243
     1da:	34 36       	cpi	r19, 0x64	; 100
     1dc:	2d e4       	ldi	r18, 0x4D	; 77
     1de:	72 b6       	in	r7, 0x32	; 50
     1e0:	22 a6       	std	Z+42, r2	; 0x2a
     1e2:	82 a5       	ldd	r24, Z+42	; 0x2a
     1e4:	da 57       	subi	r29, 0x7A	; 122
     1e6:	c0 be       	out	0x30, r12	; 48
     1e8:	79 5b       	subi	r23, 0xB9	; 185
     1ea:	10 49       	sbci	r17, 0x90	; 144
     1ec:	ee 32       	cpi	r30, 0x2E	; 46
     1ee:	db 23       	and	r29, r27
     1f0:	d2 1c       	adc	r13, r2
     1f2:	7c ad       	ldd	r23, Y+60	; 0x3c
     1f4:	40 31       	cpi	r20, 0x10	; 16
     1f6:	43 25       	eor	r20, r3
     1f8:	63 7a       	andi	r22, 0xA3	; 163
     1fa:	19 3a       	cpi	r17, 0xA9	; 169
     1fc:	7e 56       	subi	r23, 0x6E	; 110
     1fe:	5d d0       	rcall	.+186    	; 0x2ba <ExpTab+0xfa>
     200:	46 7c       	andi	r20, 0xC6	; 198
     202:	64 bc       	out	0x24, r6	; 36
     204:	e4 a1       	ldd	r30, Z+36	; 0x24
     206:	7f 2b       	or	r23, r31
     208:	28 7f       	andi	r18, 0xF8	; 248
     20a:	ea 27       	eor	r30, r26
     20c:	a5 39       	cpi	r26, 0x95	; 149
     20e:	e9 a5       	ldd	r30, Y+41	; 0x29
     210:	7f 95 4f b1 	call	0x5f629e	; 0x5f629e <_etext+0x5ee69c>
     214:	1e ad       	ldd	r17, Y+62	; 0x3e
     216:	45 39       	cpi	r20, 0x95	; 149
     218:	94 ba       	out	0x14, r9	; 20
     21a:	7f ca       	rjmp	.-2818   	; 0xfffff71a <__eeprom_end+0xff7ef71a>
     21c:	66 95       	lsr	r22
     21e:	94 be       	out	0x34, r9	; 52
     220:	c4 4d       	sbci	r28, 0xD4	; 212
     222:	e1 5b       	subi	r30, 0xB1	; 177
     224:	7f e5       	ldi	r23, 0x5F	; 95
     226:	2b cc       	rjmp	.-1962   	; 0xfffffa7e <__eeprom_end+0xff7efa7e>
     228:	77 11       	cpse	r23, r7
     22a:	84 61       	ori	r24, 0x14	; 20
     22c:	ce fd       	.word	0xfdce	; ????
     22e:	7f f2       	brie	.-98     	; 0x1ce <ExpTab+0xe>
     230:	51 b7       	in	r21, 0x31	; 49
     232:	17 58       	subi	r17, 0x87	; 135
     234:	e2 19       	sub	r30, r2
     236:	65 2c       	mov	r6, r5
     238:	7f f9       	.word	0xf97f	; ????
     23a:	23 d7       	rcall	.+3654   	; 0x1082 <FindLab+0x1c>
     23c:	0a 3d       	cpi	r16, 0xDA	; 218
     23e:	70 a3       	std	Z+32, r23	; 0x20
     240:	d7 0a       	sbc	r13, r23
     242:	7f fc       	.word	0xfc7f	; ????
     244:	4c cc       	rjmp	.-1896   	; 0xfffffade <__eeprom_end+0xff7efade>
     246:	cc cc       	rjmp	.-1640   	; 0xfffffbe0 <__eeprom_end+0xff7efbe0>
     248:	cc cc       	rjmp	.-1640   	; 0xfffffbe2 <__eeprom_end+0xff7efbe2>
     24a:	cc cd       	rjmp	.-1128   	; 0xfffffde4 <__eeprom_end+0xff7efde4>
     24c:	80 00       	.word	0x0080	; ????
	...
     256:	80 03       	fmuls	r16, r16
     258:	20 00       	.word	0x0020	; ????
     25a:	00 00       	nop
     25c:	00 00       	nop
     25e:	00 00       	nop
     260:	80 06       	cpc	r8, r16
     262:	48 00       	.word	0x0048	; ????
     264:	00 00       	nop
     266:	00 00       	nop
     268:	00 00       	nop
     26a:	80 0d       	add	r24, r0
     26c:	1c 40       	sbci	r17, 0x0C	; 12
     26e:	00 00       	nop
     270:	00 00       	nop
     272:	00 00       	nop
     274:	80 1a       	sub	r8, r16
     276:	3e bc       	out	0x2e, r3	; 46
     278:	20 00       	.word	0x0020	; ????
     27a:	00 00       	nop
     27c:	00 00       	nop
     27e:	80 35       	cpi	r24, 0x50	; 80
     280:	0e 1b       	sub	r16, r30
     282:	c9 bf       	out	0x39, r28	; 57
     284:	04 00       	.word	0x0004	; ????
     286:	00 00       	nop
     288:	80 6a       	ori	r24, 0xA0	; 160
     28a:	1d c5       	rjmp	.+2618   	; 0xcc6 <DispName+0xdc>
     28c:	ad a8       	ldd	r10, Y+53	; 0x35
     28e:	2b 70       	andi	r18, 0x0B	; 11
     290:	b5 9e       	mul	r11, r21
     292:	80 d4       	rcall	.+2304   	; 0xb94 <DispTextRom+0x6>
     294:	42 78       	andi	r20, 0x82	; 130
     296:	1f 49       	sbci	r17, 0x9F	; 159
     298:	ff cf       	rjmp	.-2      	; 0x298 <ExpTab+0xd8>
     29a:	a6 d5       	rcall	.+2892   	; 0xde8 <DispName+0x1fe>
     29c:	81 a9       	ldd	r24, Z+49	; 0x31
     29e:	13 ba       	out	0x13, r1	; 19
     2a0:	47 c9       	rjmp	.-3442   	; 0xfffff530 <__eeprom_end+0xff7ef530>
     2a2:	80 e9       	ldi	r24, 0x90	; 144
     2a4:	8c e0       	ldi	r24, 0x0C	; 12
     2a6:	83 52       	subi	r24, 0x23	; 35
     2a8:	2a 7e       	andi	r18, 0xEA	; 234
     2aa:	eb fb       	.word	0xfbeb	; ????
     2ac:	9d f9       	.word	0xf99d	; ????
     2ae:	de 8e       	std	Y+30, r13	; 0x1e
     2b0:	86 a4       	ldd	r8, Z+46	; 0x2e
     2b2:	63 19       	sub	r22, r3
     2b4:	a0 ae       	std	Z+56, r10	; 0x38
     2b6:	a6 0e       	add	r10, r22
     2b8:	91 c7       	rjmp	.+3874   	; 0x11dc <LimitGetAddr+0x2>
     2ba:	8d 49       	sbci	r24, 0x9D	; 157
     2bc:	49 76       	andi	r20, 0x69	; 105
     2be:	75 86       	std	Z+13, r7	; 0x0d
     2c0:	81 75       	andi	r24, 0x51	; 81
     2c2:	0c 17       	cp	r16, r28
     2c4:	9a 93       	st	-Y, r25
     2c6:	1e 8b       	std	Y+22, r17	; 0x16
     2c8:	3b 5d       	subi	r19, 0xDB	; 219
     2ca:	c5 3d       	cpi	r28, 0xD5	; 213
     2cc:	5d e5       	ldi	r21, 0x5D	; 93
     2ce:	b5 26       	eor	r11, r21
     2d0:	44 60       	ori	r20, 0x04	; 4
     2d2:	52 02       	muls	r21, r18
     2d4:	8a 20       	and	r8, r10
     2d6:	97 9b       	sbis	0x12, 7	; 18
     2d8:	ea 4d       	sbci	r30, 0xDA	; 218
     2da:	16 a3       	std	Z+38, r17	; 0x26
     2dc:	a1 d1       	rcall	.+834    	; 0x620 <main+0xb2>
     2de:	7f af       	std	Y+63, r23	; 0x3f
     2e0:	21 1a       	sub	r2, r17

000002e2 <RoundTab>:
     2e2:	80 02       	muls	r24, r16
     2e4:	20 00       	.word	0x0020	; ????
     2e6:	00 00       	nop
     2e8:	00 00       	nop
     2ea:	00 00       	nop
     2ec:	7f ff       	.word	0xff7f	; ????
	...
     2f6:	7f fb       	.word	0xfb7f	; ????
     2f8:	4c cc       	rjmp	.-1896   	; 0xfffffb92 <__eeprom_end+0xff7efb92>
     2fa:	cc cc       	rjmp	.-1640   	; 0xfffffc94 <__eeprom_end+0xff7efc94>
     2fc:	cc cc       	rjmp	.-1640   	; 0xfffffc96 <__eeprom_end+0xff7efc96>
     2fe:	cc cd       	rjmp	.-1128   	; 0xfffffe98 <__eeprom_end+0xff7efe98>
     300:	7f f8       	.word	0xf87f	; ????
     302:	23 d7       	rcall	.+3654   	; 0x114a <LoadAddr5+0x24>
     304:	0a 3d       	cpi	r16, 0xDA	; 218
     306:	70 a3       	std	Z+32, r23	; 0x20
     308:	d7 0a       	sbc	r13, r23
     30a:	7f f5       	brid	.+94     	; 0x36a <RoundTab+0x88>
     30c:	03 12       	cpse	r0, r19
     30e:	6e 97       	sbiw	r28, 0x1e	; 30
     310:	8d 4f       	sbci	r24, 0xFD	; 253
     312:	df 3b       	cpi	r29, 0xBF	; 191
     314:	7f f1       	brie	.+94     	; 0x374 <RoundTab+0x92>
     316:	51 b7       	in	r21, 0x31	; 49
     318:	17 58       	subi	r17, 0x87	; 135
     31a:	e2 19       	sub	r30, r2
     31c:	65 2c       	mov	r6, r5
     31e:	7f ee       	ldi	r23, 0xEF	; 239
     320:	27 c5       	rjmp	.+2638   	; 0xd70 <DispName+0x186>
     322:	ac 47       	sbci	r26, 0x7C	; 124
     324:	1b 47       	sbci	r17, 0x7B	; 123
     326:	84 23       	and	r24, r20
     328:	7f eb       	ldi	r23, 0xBF	; 191
     32a:	06 37       	cpi	r16, 0x76	; 118
     32c:	bd 05       	cpc	r27, r13
     32e:	af 6c       	ori	r26, 0xCF	; 207
     330:	69 b6       	in	r6, 0x39	; 57
     332:	7f e7       	ldi	r23, 0x7F	; 127
     334:	56 bf       	out	0x36, r21	; 54
     336:	94 d5       	rcall	.+2856   	; 0xe60 <KeyLen+0x6>
     338:	e5 7a       	andi	r30, 0xA5	; 165
     33a:	42 bc       	out	0x22, r4	; 34
     33c:	7f e4       	ldi	r23, 0x4F	; 79
     33e:	2b cc       	rjmp	.-1962   	; 0xfffffb96 <__eeprom_end+0xff7efb96>
     340:	77 11       	cpse	r23, r7
     342:	84 61       	ori	r24, 0x14	; 20
     344:	ce fd       	.word	0xfdce	; ????
     346:	7f e1       	ldi	r23, 0x1F	; 31
     348:	09 70       	andi	r16, 0x09	; 9
     34a:	5f 41       	sbci	r21, 0x1F	; 31
     34c:	36 b4       	in	r3, 0x26	; 38
     34e:	a5 97       	sbiw	r28, 0x25	; 37
     350:	7f dd       	rcall	.-1282   	; 0xfffffe50 <__eeprom_end+0xff7efe50>
     352:	5b e6       	ldi	r21, 0x6B	; 107
     354:	fe ce       	rjmp	.-516    	; 0x152 <ConstTab+0xd2>
     356:	bd ed       	ldi	r27, 0xDD	; 221
     358:	d5 bf       	out	0x35, r29	; 53
     35a:	7f da       	rcall	.-2818   	; 0xfffff85a <__eeprom_end+0xff7ef85a>
     35c:	2f eb       	ldi	r18, 0xBF	; 191
     35e:	ff 0b       	sbc	r31, r31
     360:	cb 24       	eor	r12, r11
     362:	aa ff       	.word	0xffaa	; ????
     364:	7f d7       	rcall	.+3838   	; 0x1264 <ExecDel+0x22>
     366:	0c bc       	out	0x2c, r0	; 44
     368:	cc 09       	sbc	r28, r12
     36a:	6f 50       	subi	r22, 0x0F	; 15
     36c:	88 cc       	rjmp	.-1776   	; 0xfffffc7e <__eeprom_end+0xff7efc7e>
     36e:	7f d3       	rcall	.+1790   	; 0xa6e <LCD_OutNibble+0x1e>
     370:	61 2e       	mov	r6, r17
     372:	13 42       	sbci	r17, 0x23	; 35
     374:	4b b4       	in	r4, 0x2b	; 43
     376:	0e 13       	cpse	r16, r30
     378:	7f d0       	rcall	.+254    	; 0x478 <ADC_Temp2+0x2a>
     37a:	34 24       	eor	r3, r4
     37c:	dc 35       	cpi	r29, 0x5C	; 92
     37e:	09 5c       	subi	r16, 0xC9	; 201
     380:	d8 0f       	add	r29, r24
     382:	7f cd       	rjmp	.-1282   	; 0xfffffe82 <__eeprom_end+0xff7efe82>
     384:	10 1d       	adc	r17, r0
     386:	7c f7       	brge	.-34     	; 0x366 <RoundTab+0x84>
     388:	3a b0       	in	r3, 0x0a	; 10
     38a:	ac d9       	rcall	.-3240   	; 0xfffff6e4 <__eeprom_end+0xff7ef6e4>
     38c:	7f c9       	rjmp	.-3330   	; 0xfffff68c <__eeprom_end+0xff7ef68c>
     38e:	66 95       	lsr	r22
     390:	94 be       	out	0x34, r9	; 52
     392:	c4 4d       	sbci	r28, 0xD4	; 212
     394:	e1 5b       	subi	r30, 0xB1	; 177
     396:	7f c6       	rjmp	.+3326   	; 0x1096 <FindLab+0x30>
     398:	38 77       	andi	r19, 0x78	; 120
     39a:	aa 32       	cpi	r26, 0x2A	; 42
     39c:	36 a4       	ldd	r3, Z+46	; 0x2e
     39e:	b4 49       	sbci	r27, 0x94	; 148
     3a0:	7f c3       	rjmp	.+1790   	; 0xaa0 <DispChar+0x20>
     3a2:	13 92       	.word	0x9213	; ????
     3a4:	ee 8e       	std	Y+30, r14	; 0x1e
     3a6:	92 1d       	adc	r25, r2
     3a8:	5d 07       	cpc	r21, r29
     3aa:	7f bf       	out	0x3f, r23	; 63
     3ac:	6c 1e       	adc	r6, r28
     3ae:	4a 7d       	andi	r20, 0xDA	; 218
     3b0:	b6 95       	lsr	r27
     3b2:	61 a5       	ldd	r22, Z+41	; 0x29
     3b4:	7f bc       	out	0x2f, r7	; 47
     3b6:	3c e5       	ldi	r19, 0x5C	; 92
     3b8:	08 64       	ori	r16, 0x48	; 72
     3ba:	92 11       	cpse	r25, r2
     3bc:	1a eb       	ldi	r17, 0xBA	; 186

000003be <FactATab>:
     3be:	7f fc       	.word	0xfc7f	; ????
     3c0:	2a aa       	std	Y+50, r2	; 0x32
     3c2:	aa aa       	std	Y+50, r10	; 0x32
     3c4:	aa aa       	std	Y+50, r10	; 0x32
     3c6:	aa ab       	std	Y+50, r26	; 0x32
     3c8:	7f fb       	.word	0xfb7f	; ????
     3ca:	08 88       	ldd	r0, Y+16	; 0x10
     3cc:	88 88       	ldd	r8, Y+16	; 0x10
     3ce:	88 88       	ldd	r8, Y+16	; 0x10
     3d0:	88 89       	ldd	r24, Y+16	; 0x10
     3d2:	7f fe       	.word	0xfe7f	; ????
     3d4:	01 38       	cpi	r16, 0x81	; 129
     3d6:	13 81       	ldd	r17, Z+3	; 0x03
     3d8:	38 13       	cpse	r19, r24
     3da:	81 38       	cpi	r24, 0x81	; 129
     3dc:	7f ff       	.word	0xff7f	; ????
     3de:	06 8e       	std	Z+30, r0	; 0x1e
     3e0:	25 42       	sbci	r18, 0x25	; 37
     3e2:	ee bf       	out	0x3e, r30	; 62
     3e4:	d3 d7       	rcall	.+4006   	; 0x138c <Program2Dig+0x4>
     3e6:	80 00       	.word	0x0080	; ????
     3e8:	01 79       	andi	r16, 0x91	; 145
     3ea:	96 80       	ldd	r9, Z+6	; 0x06
     3ec:	60 8f       	std	Z+24, r22	; 0x18
     3ee:	09 61       	ori	r16, 0x19	; 25
     3f0:	80 00       	.word	0x0080	; ????
     3f2:	42 3c       	cpi	r20, 0xC2	; 194
     3f4:	93 97       	sbiw	r26, 0x23	; 35
     3f6:	d3 db       	rcall	.-2138   	; 0xfffffb9e <__eeprom_end+0xff7efb9e>
     3f8:	df 49       	sbci	r29, 0x9F	; 159
     3fa:	80 01       	movw	r16, r0
     3fc:	11 3f       	cpi	r17, 0xF1	; 241
     3fe:	4e ae       	std	Y+62, r4	; 0x3e
     400:	b5 f1       	brhs	.+108    	; 0x46e <ADC_Temp2+0x20>
     402:	eb 8e       	std	Y+27, r14	; 0x1b
     404:	80 01       	movw	r16, r0
     406:	40 a2       	std	Z+32, r4	; 0x20
     408:	7c 85       	ldd	r23, Y+12	; 0x0c
     40a:	30 b4       	in	r3, 0x20	; 32
     40c:	6f fa       	.word	0xfa6f	; ????
     40e:	80 02       	muls	r24, r16
     410:	00 dc       	rcall	.-2048   	; 0xfffffc12 <__eeprom_end+0xff7efc12>
     412:	42 87       	std	Z+10, r20	; 0x0a
     414:	79 8b       	std	Y+17, r23	; 0x11
     416:	d0 d5       	rcall	.+2976   	; 0xfb8 <StartInKey+0x4>
     418:	80 02       	muls	r24, r16
     41a:	20 16       	cp	r2, r16
     41c:	ad 16       	cp	r10, r29
     41e:	09 f5       	brne	.+66     	; 0x462 <ADC_Temp2+0x14>
     420:	ba 5d       	subi	r27, 0xDA	; 218
     422:	80 02       	muls	r24, r16
     424:	49 15       	cp	r20, r9
     426:	cd 4c       	sbci	r28, 0xCD	; 205
     428:	93 b8       	out	0x03, r9	; 3
     42a:	d6 ae       	std	Z+62, r13	; 0x3e
     42c:	80 02       	muls	r24, r16
     42e:	6f de       	rcall	.-802    	; 0x10e <ConstTab+0x8e>
     430:	91 c7       	rjmp	.+3874   	; 0x1354 <ProgramSubst2+0xe>
     432:	83 36       	cpi	r24, 0x63	; 99
     434:	dd 37       	cpi	r29, 0x7D	; 125

00000436 <ADC_Vcc>:
     436:	4e e4       	ldi	r20, 0x4E	; 78
     438:	0a d0       	rcall	.+20     	; 0x44e <ADC_Temp2>
     43a:	ac 01       	movw	r20, r24
     43c:	99 27       	eor	r25, r25
     43e:	81 e0       	ldi	r24, 0x01	; 1
     440:	75 eb       	ldi	r23, 0xB5	; 181
     442:	60 e8       	ldi	r22, 0x80	; 128
     444:	0e 94 52 23 	call	0x46a4	; 0x46a4 <DivDWW>
     448:	07 97       	sbiw	r24, 0x07	; 7
     44a:	08 95       	ret

0000044c <ADC_Temp>:
     44c:	48 ec       	ldi	r20, 0xC8	; 200

0000044e <ADC_Temp2>:
     44e:	50 91 64 00 	lds	r21, 0x0064
     452:	5e 7f       	andi	r21, 0xFE	; 254
     454:	50 93 64 00 	sts	0x0064, r21
     458:	40 93 7c 00 	sts	0x007C, r20
     45c:	77 27       	eor	r23, r23
     45e:	88 27       	eor	r24, r24
     460:	99 27       	eor	r25, r25
     462:	66 27       	eor	r22, r22
     464:	46 ec       	ldi	r20, 0xC6	; 198
     466:	40 93 7a 00 	sts	0x007A, r20
     46a:	40 91 7a 00 	lds	r20, 0x007A
     46e:	40 74       	andi	r20, 0x40	; 64
     470:	e1 f7       	brne	.-8      	; 0x46a <ADC_Temp2+0x1c>
     472:	40 91 78 00 	lds	r20, 0x0078
     476:	50 91 79 00 	lds	r21, 0x0079
     47a:	53 70       	andi	r21, 0x03	; 3
     47c:	74 0f       	add	r23, r20
     47e:	85 1f       	adc	r24, r21
     480:	91 1d       	adc	r25, r1
     482:	6a 95       	dec	r22
     484:	79 f7       	brne	.-34     	; 0x464 <ADC_Temp2+0x16>
     486:	70 58       	subi	r23, 0x80	; 128
     488:	81 09       	sbc	r24, r1
     48a:	91 09       	sbc	r25, r1
     48c:	10 92 7a 00 	sts	0x007A, r1
     490:	10 92 7c 00 	sts	0x007C, r1
     494:	50 91 64 00 	lds	r21, 0x0064
     498:	51 60       	ori	r21, 0x01	; 1
     49a:	50 93 64 00 	sts	0x0064, r21
     49e:	08 95       	ret

000004a0 <CrcErr>:
     4a0:	43 52       	subi	r20, 0x23	; 35
     4a2:	43 20       	and	r4, r3
     4a4:	45 72       	andi	r20, 0x25	; 37
     4a6:	72 6f       	ori	r23, 0xF2	; 242
     4a8:	72 00       	.word	0x0072	; ????

000004aa <LogoText>:
     4aa:	77 77       	andi	r23, 0x77	; 119
     4ac:	77 2e       	mov	r7, r23
     4ae:	70 61       	ori	r23, 0x10	; 16
     4b0:	6a 65       	ori	r22, 0x5A	; 90
     4b2:	6e 69       	ori	r22, 0x9E	; 158
     4b4:	63 6b       	ori	r22, 0xB3	; 179
     4b6:	6f 2e       	mov	r6, r31
     4b8:	63 7a       	andi	r22, 0xA3	; 163
	...

000004bc <DispBuild>:
     4bc:	0e 94 c0 05 	call	0xb80	; 0xb80 <DispSetRow1>
     4c0:	e2 ee       	ldi	r30, 0xE2	; 226
     4c2:	f6 e0       	ldi	r31, 0x06	; 6
     4c4:	0e 94 c7 05 	call	0xb8e	; 0xb8e <DispTextRom>
     4c8:	0e 94 da 05 	call	0xbb4	; 0xbb4 <DispSpcClr>
     4cc:	0e 94 bd 05 	call	0xb7a	; 0xb7a <DispSetRow2>
     4d0:	ea ea       	ldi	r30, 0xAA	; 170
     4d2:	f4 e0       	ldi	r31, 0x04	; 4
     4d4:	0e 94 c7 05 	call	0xb8e	; 0xb8e <DispTextRom>
     4d8:	0e 94 da 05 	call	0xbb4	; 0xbb4 <DispSpcClr>
     4dc:	0e 94 88 03 	call	0x710	; 0x710 <Wait1s>
     4e0:	0c 94 25 0b 	jmp	0x164a	; 0x164a <Disp>

000004e4 <Crc1>:
     4e4:	79 2f       	mov	r23, r25
     4e6:	98 2f       	mov	r25, r24
     4e8:	87 2f       	mov	r24, r23
     4ea:	86 27       	eor	r24, r22
     4ec:	78 2f       	mov	r23, r24
     4ee:	72 95       	swap	r23
     4f0:	7f 70       	andi	r23, 0x0F	; 15
     4f2:	87 27       	eor	r24, r23
     4f4:	78 2f       	mov	r23, r24
     4f6:	72 95       	swap	r23
     4f8:	70 7f       	andi	r23, 0xF0	; 240
     4fa:	97 27       	eor	r25, r23
     4fc:	78 2f       	mov	r23, r24
     4fe:	76 95       	lsr	r23
     500:	76 95       	lsr	r23
     502:	76 95       	lsr	r23
     504:	97 27       	eor	r25, r23
     506:	78 2f       	mov	r23, r24
     508:	72 95       	swap	r23
     50a:	77 0f       	add	r23, r23
     50c:	70 7e       	andi	r23, 0xE0	; 224
     50e:	87 27       	eor	r24, r23
     510:	08 95       	ret

00000512 <GetCrc>:
     512:	ff 27       	eor	r31, r31
     514:	ee 27       	eor	r30, r30
     516:	99 27       	eor	r25, r25
     518:	88 27       	eor	r24, r24
     51a:	65 91       	lpm	r22, Z+
     51c:	e3 df       	rcall	.-58     	; 0x4e4 <Crc1>
     51e:	fc 37       	cpi	r31, 0x7C	; 124
     520:	e1 f7       	brne	.-8      	; 0x51a <GetCrc+0x8>
     522:	e2 30       	cpi	r30, 0x02	; 2
     524:	d1 f7       	brne	.-12     	; 0x51a <GetCrc+0x8>
     526:	08 95       	ret

00000528 <SleepUpdate>:
     528:	8f 93       	push	r24
     52a:	8c 81       	ldd	r24, Y+4	; 0x04
     52c:	80 93 3b 01 	sts	0x013B, r24
     530:	8d 81       	ldd	r24, Y+5	; 0x05
     532:	80 93 3c 01 	sts	0x013C, r24
     536:	8f 91       	pop	r24
     538:	08 95       	ret

0000053a <PortInit>:
     53a:	8b e9       	ldi	r24, 0x9B	; 155
     53c:	85 b9       	out	0x05, r24	; 5
     53e:	80 e4       	ldi	r24, 0x40	; 64
     540:	84 b9       	out	0x04, r24	; 4
     542:	e2 d0       	rcall	.+452    	; 0x708 <Wait10ms>
     544:	80 ec       	ldi	r24, 0xC0	; 192
     546:	84 b9       	out	0x04, r24	; 4
     548:	85 e3       	ldi	r24, 0x35	; 53
     54a:	88 b9       	out	0x08, r24	; 8
     54c:	17 b8       	out	0x07, r1	; 7
     54e:	80 e8       	ldi	r24, 0x80	; 128
     550:	8b b9       	out	0x0b, r24	; 11
     552:	8f e5       	ldi	r24, 0x5F	; 95
     554:	8a b9       	out	0x0a, r24	; 10
     556:	08 95       	ret

00000558 <Fatal>:
     558:	f8 94       	cli
     55a:	0e 94 34 26 	call	0x4c68	; 0x4c68 <CalcInit>
     55e:	0e 94 c1 11 	call	0x2382	; 0x2382 <StopProg>
     562:	8f ef       	ldi	r24, 0xFF	; 255
     564:	98 e0       	ldi	r25, 0x08	; 8
     566:	9e bf       	out	0x3e, r25	; 62
     568:	8d bf       	out	0x3d, r24	; 61
     56a:	f5 9a       	sbi	0x1e, 5	; 30
     56c:	72 c0       	rjmp	.+228    	; 0x652 <Restart>

0000056e <main>:
     56e:	11 24       	eor	r1, r1
     570:	c0 e0       	ldi	r28, 0x00	; 0
     572:	d1 e0       	ldi	r29, 0x01	; 1
     574:	1f be       	out	0x3f, r1	; 63
     576:	e0 e0       	ldi	r30, 0x00	; 0
     578:	f1 e0       	ldi	r31, 0x01	; 1
     57a:	99 e0       	ldi	r25, 0x09	; 9
     57c:	11 92       	st	Z+, r1
     57e:	e0 30       	cpi	r30, 0x00	; 0
     580:	f9 07       	cpc	r31, r25
     582:	e1 f7       	brne	.-8      	; 0x57c <main+0xe>
     584:	8f ef       	ldi	r24, 0xFF	; 255
     586:	98 e0       	ldi	r25, 0x08	; 8
     588:	9e bf       	out	0x3e, r25	; 62
     58a:	8d bf       	out	0x3d, r24	; 61
     58c:	d6 df       	rcall	.-84     	; 0x53a <PortInit>
     58e:	87 ec       	ldi	r24, 0xC7	; 199
     590:	80 93 64 00 	sts	0x0064, r24
     594:	8f ef       	ldi	r24, 0xFF	; 255
     596:	80 93 7e 00 	sts	0x007E, r24
     59a:	8e e3       	ldi	r24, 0x3E	; 62
     59c:	bd d0       	rcall	.+378    	; 0x718 <Waitms>
     59e:	80 e8       	ldi	r24, 0x80	; 128
     5a0:	91 e0       	ldi	r25, 0x01	; 1
     5a2:	80 93 61 00 	sts	0x0061, r24
     5a6:	90 93 61 00 	sts	0x0061, r25
     5aa:	aa ef       	ldi	r26, 0xFA	; 250
     5ac:	b3 e0       	ldi	r27, 0x03	; 3
     5ae:	0e 94 f1 05 	call	0xbe2	; 0xbe2 <_EERead>
     5b2:	8a 30       	cpi	r24, 0x0A	; 10
     5b4:	08 f0       	brcs	.+2      	; 0x5b8 <main+0x4a>
     5b6:	84 e0       	ldi	r24, 0x04	; 4
     5b8:	8b 83       	std	Y+3, r24	; 0x03
     5ba:	a9 ef       	ldi	r26, 0xF9	; 249
     5bc:	b3 e0       	ldi	r27, 0x03	; 3
     5be:	0e 94 f1 05 	call	0xbe2	; 0xbe2 <_EERead>
     5c2:	98 2f       	mov	r25, r24
     5c4:	11 97       	sbiw	r26, 0x01	; 1
     5c6:	0e 94 f1 05 	call	0xbe2	; 0xbe2 <_EERead>
     5ca:	9f 3f       	cpi	r25, 0xFF	; 255
     5cc:	11 f4       	brne	.+4      	; 0x5d2 <main+0x64>
     5ce:	88 eb       	ldi	r24, 0xB8	; 184
     5d0:	9b e0       	ldi	r25, 0x0B	; 11
     5d2:	80 93 3d 01 	sts	0x013D, r24
     5d6:	90 93 3e 01 	sts	0x013E, r25
     5da:	ac ef       	ldi	r26, 0xFC	; 252
     5dc:	b3 e0       	ldi	r27, 0x03	; 3
     5de:	7e d1       	rcall	.+764    	; 0x8dc <EERead>
     5e0:	8d 87       	std	Y+13, r24	; 0x0d
     5e2:	11 96       	adiw	r26, 0x01	; 1
     5e4:	7b d1       	rcall	.+758    	; 0x8dc <EERead>
     5e6:	8e 87       	std	Y+14, r24	; 0x0e
     5e8:	11 96       	adiw	r26, 0x01	; 1
     5ea:	78 d1       	rcall	.+752    	; 0x8dc <EERead>
     5ec:	8f 87       	std	Y+15, r24	; 0x0f
     5ee:	11 96       	adiw	r26, 0x01	; 1
     5f0:	75 d1       	rcall	.+746    	; 0x8dc <EERead>
     5f2:	88 8b       	std	Y+16, r24	; 0x10
     5f4:	0e 94 8e 23 	call	0x471c	; 0x471c <RandShift>
     5f8:	ac ef       	ldi	r26, 0xFC	; 252
     5fa:	b3 e0       	ldi	r27, 0x03	; 3
     5fc:	98 89       	ldd	r25, Y+16	; 0x10
     5fe:	73 d1       	rcall	.+742    	; 0x8e6 <EEWrite>
     600:	11 96       	adiw	r26, 0x01	; 1
     602:	9f 85       	ldd	r25, Y+15	; 0x0f
     604:	70 d1       	rcall	.+736    	; 0x8e6 <EEWrite>
     606:	11 96       	adiw	r26, 0x01	; 1
     608:	9e 85       	ldd	r25, Y+14	; 0x0e
     60a:	6d d1       	rcall	.+730    	; 0x8e6 <EEWrite>
     60c:	11 96       	adiw	r26, 0x01	; 1
     60e:	9d 85       	ldd	r25, Y+13	; 0x0d
     610:	6a d1       	rcall	.+724    	; 0x8e6 <EEWrite>
     612:	5d d2       	rcall	.+1210   	; 0xace <LCD_InitGen>
     614:	8f d2       	rcall	.+1310   	; 0xb34 <LCD_Init>
     616:	f5 d0       	rcall	.+490    	; 0x802 <KEY_Init>
     618:	8f e0       	ldi	r24, 0x0F	; 15
     61a:	8f 8b       	std	Y+23, r24	; 0x17
     61c:	0e 94 a0 0b 	call	0x1740	; 0x1740 <ClrPrintBuf>
     620:	a0 ef       	ldi	r26, 0xF0	; 240
     622:	b6 e0       	ldi	r27, 0x06	; 6
     624:	80 e2       	ldi	r24, 0x20	; 32
     626:	8d 93       	st	X+, r24
     628:	a0 30       	cpi	r26, 0x00	; 0
     62a:	e9 f7       	brne	.-6      	; 0x626 <main+0xb8>
     62c:	1c 92       	st	X, r1
     62e:	0e 94 86 0e 	call	0x1d0c	; 0x1d0c <ExecClr>
     632:	86 e0       	ldi	r24, 0x06	; 6
     634:	0e 94 6f 26 	call	0x4cde	; 0x4cde <CalcSetMem>
     638:	8a e0       	ldi	r24, 0x0A	; 10
     63a:	80 93 53 01 	sts	0x0153, r24
     63e:	80 93 54 01 	sts	0x0154, r24
     642:	3c df       	rcall	.-392    	; 0x4bc <DispBuild>
     644:	e2 e3       	ldi	r30, 0x32	; 50
     646:	f5 e5       	ldi	r31, 0x55	; 85
     648:	84 91       	lpm	r24, Z+
     64a:	8f 8f       	std	Y+31, r24	; 0x1f
     64c:	88 27       	eor	r24, r24
     64e:	0e 94 61 07 	call	0xec2	; 0xec2 <OpenProg>

00000652 <Restart>:
     652:	6a df       	rcall	.-300    	; 0x528 <SleepUpdate>
     654:	78 94       	sei
     656:	5d df       	rcall	.-326    	; 0x512 <GetCrc>
     658:	e2 e0       	ldi	r30, 0x02	; 2
     65a:	fc e7       	ldi	r31, 0x7C	; 124
     65c:	65 91       	lpm	r22, Z+
     65e:	74 91       	lpm	r23, Z+
     660:	68 17       	cp	r22, r24
     662:	79 07       	cpc	r23, r25
     664:	71 f0       	breq	.+28     	; 0x682 <Restart+0x30>
     666:	0e 94 c0 05 	call	0xb80	; 0xb80 <DispSetRow1>
     66a:	e0 ea       	ldi	r30, 0xA0	; 160
     66c:	f4 e0       	ldi	r31, 0x04	; 4
     66e:	0e 94 c7 05 	call	0xb8e	; 0xb8e <DispTextRom>
     672:	0e 94 da 05 	call	0xbb4	; 0xbb4 <DispSpcClr>
     676:	0e 94 88 03 	call	0x710	; 0x710 <Wait1s>
     67a:	0e 94 88 03 	call	0x710	; 0x710 <Wait1s>
     67e:	0e 94 89 0a 	call	0x1512	; 0x1512 <DispFlags>
     682:	58 d2       	rcall	.+1200   	; 0xb34 <LCD_Init>
     684:	e2 d7       	rcall	.+4036   	; 0x164a <Disp>

00000686 <Loop>:
     686:	8c 81       	ldd	r24, Y+4	; 0x04
     688:	9d 81       	ldd	r25, Y+5	; 0x05
     68a:	60 91 3b 01 	lds	r22, 0x013B
     68e:	70 91 3c 01 	lds	r23, 0x013C
     692:	86 1b       	sub	r24, r22
     694:	97 0b       	sbc	r25, r23
     696:	60 91 3d 01 	lds	r22, 0x013D
     69a:	70 91 3e 01 	lds	r23, 0x013E
     69e:	77 23       	and	r23, r23
     6a0:	21 f0       	breq	.+8      	; 0x6aa <Loop+0x24>
     6a2:	86 17       	cp	r24, r22
     6a4:	97 07       	cpc	r25, r23
     6a6:	08 f0       	brcs	.+2      	; 0x6aa <Loop+0x24>
     6a8:	c8 c6       	rjmp	.+3472   	; 0x143a <GoSleep>
     6aa:	0e 94 8c 0b 	call	0x1718	; 0x1718 <DispTrace>
     6ae:	f2 9b       	sbis	0x1e, 2	; 30
     6b0:	07 c0       	rjmp	.+14     	; 0x6c0 <Loop+0x3a>
     6b2:	3a df       	rcall	.-396    	; 0x528 <SleepUpdate>
     6b4:	49 d4       	rcall	.+2194   	; 0xf48 <LoadPrg>
     6b6:	38 f3       	brcs	.-50     	; 0x686 <Loop>
     6b8:	0e 94 a1 14 	call	0x2942	; 0x2942 <Exec>
     6bc:	00 d1       	rcall	.+512    	; 0x8be <BreakKey>
     6be:	e3 cf       	rjmp	.-58     	; 0x686 <Loop>
     6c0:	d2 d0       	rcall	.+420    	; 0x866 <GetKey>
     6c2:	31 f0       	breq	.+12     	; 0x6d0 <Loop+0x4a>
     6c4:	f3 99       	sbic	0x1e, 3	; 30
     6c6:	03 c0       	rjmp	.+6      	; 0x6ce <Loop+0x48>
     6c8:	0e 94 a1 14 	call	0x2942	; 0x2942 <Exec>
     6cc:	01 c0       	rjmp	.+2      	; 0x6d0 <Loop+0x4a>
     6ce:	e7 d5       	rcall	.+3022   	; 0x129e <Program>
     6d0:	f2 99       	sbic	0x1e, 2	; 30
     6d2:	d9 cf       	rjmp	.-78     	; 0x686 <Loop>
     6d4:	f5 99       	sbic	0x1e, 5	; 30
     6d6:	02 c0       	rjmp	.+4      	; 0x6dc <Loop+0x56>
     6d8:	f4 9b       	sbis	0x1e, 4	; 30
     6da:	d5 cf       	rjmp	.-86     	; 0x686 <Loop>
     6dc:	0e 94 7c 0b 	call	0x16f8	; 0x16f8 <DispErr>
     6e0:	d2 cf       	rjmp	.-92     	; 0x686 <Loop>

000006e2 <Build>:
     6e2:	45 54       	subi	r20, 0x45	; 69
     6e4:	2d 35       	cpi	r18, 0x5D	; 93
     6e6:	38 20       	and	r3, r8
     6e8:	32 32       	cpi	r19, 0x22	; 34
     6ea:	31 31       	cpi	r19, 0x11	; 17
     6ec:	32 39       	cpi	r19, 0x92	; 146
	...

000006f0 <Wait10us>:
     6f0:	8f 93       	push	r24
     6f2:	85 e0       	ldi	r24, 0x05	; 5
     6f4:	00 c0       	rjmp	.+0      	; 0x6f6 <Wait10us+0x6>
     6f6:	00 c0       	rjmp	.+0      	; 0x6f8 <Wait10us+0x8>
     6f8:	00 c0       	rjmp	.+0      	; 0x6fa <Wait10us+0xa>
     6fa:	8a 95       	dec	r24
     6fc:	e9 f7       	brne	.-6      	; 0x6f8 <Wait10us+0x8>
     6fe:	8f 91       	pop	r24
     700:	08 95       	ret

00000702 <Wait100us>:
     702:	8f 93       	push	r24
     704:	8d e4       	ldi	r24, 0x4D	; 77
     706:	f7 cf       	rjmp	.-18     	; 0x6f6 <Wait10us+0x6>

00000708 <Wait10ms>:
     708:	8a e0       	ldi	r24, 0x0A	; 10
     70a:	06 c0       	rjmp	.+12     	; 0x718 <Waitms>

0000070c <Wait100ms>:
     70c:	84 e6       	ldi	r24, 0x64	; 100
     70e:	04 c0       	rjmp	.+8      	; 0x718 <Waitms>

00000710 <Wait1s>:
     710:	02 d0       	rcall	.+4      	; 0x716 <Wait250ms>
     712:	01 d0       	rcall	.+2      	; 0x716 <Wait250ms>
     714:	00 d0       	rcall	.+0      	; 0x716 <Wait250ms>

00000716 <Wait250ms>:
     716:	8a ef       	ldi	r24, 0xFA	; 250

00000718 <Waitms>:
     718:	8f 93       	push	r24
     71a:	9f 93       	push	r25
     71c:	9a e0       	ldi	r25, 0x0A	; 10
     71e:	f1 df       	rcall	.-30     	; 0x702 <Wait100us>
     720:	9a 95       	dec	r25
     722:	e9 f7       	brne	.-6      	; 0x71e <Waitms+0x6>
     724:	8a 95       	dec	r24
     726:	d1 f7       	brne	.-12     	; 0x71c <Waitms+0x4>
     728:	9f 91       	pop	r25
     72a:	8f 91       	pop	r24
     72c:	08 95       	ret

0000072e <RemapDig>:
     72e:	92 82       	std	Z+2, r9	; 0x02
     730:	83 84       	ldd	r8, Z+11	; 0x0b
     732:	72 73       	andi	r23, 0x32	; 50
     734:	74 62       	ori	r23, 0x24	; 36
     736:	63 64       	ori	r22, 0x43	; 67
     738:	7b 7c       	andi	r23, 0xCB	; 203
     73a:	7d 6b       	ori	r23, 0xBD	; 189
     73c:	6c 6d       	ori	r22, 0xDC	; 220

0000073e <KeyInRow>:
     73e:	e1 df       	rcall	.-62     	; 0x702 <Wait100us>
     740:	8f e0       	ldi	r24, 0x0F	; 15
     742:	1c 9b       	sbis	0x03, 4	; 3
     744:	8f 5f       	subi	r24, 0xFF	; 255
     746:	4f 9b       	sbis	0x09, 7	; 9
     748:	8f 5e       	subi	r24, 0xEF	; 239
     74a:	35 9b       	sbis	0x06, 5	; 6
     74c:	8f 5d       	subi	r24, 0xDF	; 223
     74e:	18 9b       	sbis	0x03, 0	; 3
     750:	8f 5c       	subi	r24, 0xCF	; 207
     752:	34 9b       	sbis	0x06, 4	; 6
     754:	8f 5b       	subi	r24, 0xBF	; 191
     756:	19 9b       	sbis	0x03, 1	; 3
     758:	8f 5a       	subi	r24, 0xAF	; 175
     75a:	32 9b       	sbis	0x06, 2	; 6
     75c:	8f 59       	subi	r24, 0x9F	; 159
     75e:	1b 9b       	sbis	0x03, 3	; 3
     760:	8f 58       	subi	r24, 0x8F	; 143
     762:	30 9b       	sbis	0x06, 0	; 6
     764:	8f 57       	subi	r24, 0x7F	; 127
     766:	8f 30       	cpi	r24, 0x0F	; 15
     768:	39 f0       	breq	.+14     	; 0x778 <KeyInRow+0x3a>
     76a:	ee 23       	and	r30, r30
     76c:	21 f4       	brne	.+8      	; 0x776 <KeyInRow+0x38>
     76e:	e8 2f       	mov	r30, r24
     770:	ef 2b       	or	r30, r31
     772:	8f 70       	andi	r24, 0x0F	; 15
     774:	09 f0       	breq	.+2      	; 0x778 <KeyInRow+0x3a>
     776:	ef ef       	ldi	r30, 0xFF	; 255
     778:	f3 95       	inc	r31
     77a:	08 95       	ret

0000077c <__vector_11>:
     77c:	8f 93       	push	r24
     77e:	8f b7       	in	r24, 0x3f	; 63
     780:	8f 93       	push	r24
     782:	ef 93       	push	r30
     784:	ff 93       	push	r31
     786:	e0 91 04 01 	lds	r30, 0x0104
     78a:	f0 91 05 01 	lds	r31, 0x0105
     78e:	31 96       	adiw	r30, 0x01	; 1
     790:	e0 93 04 01 	sts	0x0104, r30
     794:	f0 93 05 01 	sts	0x0105, r31
     798:	ee 27       	eor	r30, r30
     79a:	f1 e0       	ldi	r31, 0x01	; 1
     79c:	55 9a       	sbi	0x0a, 5	; 10
     79e:	cf df       	rcall	.-98     	; 0x73e <KeyInRow>
     7a0:	55 98       	cbi	0x0a, 5	; 10
     7a2:	22 9a       	sbi	0x04, 2	; 4
     7a4:	cc df       	rcall	.-104    	; 0x73e <KeyInRow>
     7a6:	22 98       	cbi	0x04, 2	; 4
     7a8:	25 9a       	sbi	0x04, 5	; 4
     7aa:	c9 df       	rcall	.-110    	; 0x73e <KeyInRow>
     7ac:	25 98       	cbi	0x04, 5	; 4
     7ae:	39 9a       	sbi	0x07, 1	; 7
     7b0:	c6 df       	rcall	.-116    	; 0x73e <KeyInRow>
     7b2:	39 98       	cbi	0x07, 1	; 7
     7b4:	3b 9a       	sbi	0x07, 3	; 7
     7b6:	c3 df       	rcall	.-122    	; 0x73e <KeyInRow>
     7b8:	3b 98       	cbi	0x07, 3	; 7
     7ba:	f6 98       	cbi	0x1e, 6	; 30
     7bc:	ee 23       	and	r30, r30
     7be:	89 f0       	breq	.+34     	; 0x7e2 <__vector_11+0x66>
     7c0:	ef 3f       	cpi	r30, 0xFF	; 255
     7c2:	79 f0       	breq	.+30     	; 0x7e2 <__vector_11+0x66>
     7c4:	e1 36       	cpi	r30, 0x61	; 97
     7c6:	09 f4       	brne	.+2      	; 0x7ca <__vector_11+0x4e>
     7c8:	f6 9a       	sbi	0x1e, 6	; 30
     7ca:	f0 91 06 01 	lds	r31, 0x0106
     7ce:	fe 17       	cp	r31, r30
     7d0:	11 f0       	breq	.+4      	; 0x7d6 <__vector_11+0x5a>
     7d2:	e0 93 08 01 	sts	0x0108, r30
     7d6:	e0 93 06 01 	sts	0x0106, r30
     7da:	88 e0       	ldi	r24, 0x08	; 8
     7dc:	80 93 07 01 	sts	0x0107, r24
     7e0:	0a c0       	rjmp	.+20     	; 0x7f6 <__vector_11+0x7a>
     7e2:	80 91 07 01 	lds	r24, 0x0107
     7e6:	8a 95       	dec	r24
     7e8:	32 f0       	brmi	.+12     	; 0x7f6 <__vector_11+0x7a>
     7ea:	80 93 07 01 	sts	0x0107, r24
     7ee:	19 f4       	brne	.+6      	; 0x7f6 <__vector_11+0x7a>
     7f0:	8f ef       	ldi	r24, 0xFF	; 255
     7f2:	80 93 06 01 	sts	0x0106, r24
     7f6:	ff 91       	pop	r31
     7f8:	ef 91       	pop	r30
     7fa:	8f 91       	pop	r24
     7fc:	8f bf       	out	0x3f, r24	; 63
     7fe:	8f 91       	pop	r24
     800:	18 95       	reti

00000802 <KEY_Init>:
     802:	10 92 80 00 	sts	0x0080, r1
     806:	8b e0       	ldi	r24, 0x0B	; 11
     808:	80 93 81 00 	sts	0x0081, r24
     80c:	82 e0       	ldi	r24, 0x02	; 2
     80e:	80 93 89 00 	sts	0x0089, r24
     812:	80 e7       	ldi	r24, 0x70	; 112
     814:	80 93 88 00 	sts	0x0088, r24
     818:	10 92 85 00 	sts	0x0085, r1
     81c:	10 92 84 00 	sts	0x0084, r1
     820:	80 91 6f 00 	lds	r24, 0x006F
     824:	82 60       	ori	r24, 0x02	; 2
     826:	80 93 6f 00 	sts	0x006F, r24
     82a:	8f ef       	ldi	r24, 0xFF	; 255
     82c:	88 87       	std	Y+8, r24	; 0x08
     82e:	8e 83       	std	Y+6, r24	; 0x06
     830:	89 87       	std	Y+9, r24	; 0x09
     832:	08 95       	ret

00000834 <KEY_Term>:
     834:	10 92 6f 00 	sts	0x006F, r1
     838:	10 92 80 00 	sts	0x0080, r1
     83c:	10 92 81 00 	sts	0x0081, r1
     840:	08 95       	ret

00000842 <Remap2nd>:
     842:	9a 85       	ldd	r25, Y+10	; 0x0a
     844:	90 30       	cpi	r25, 0x00	; 0
     846:	71 f0       	breq	.+28     	; 0x864 <Remap2nd+0x22>
     848:	1a 86       	std	Y+10, r1	; 0x0a
     84a:	63 d6       	rcall	.+3270   	; 0x1512 <DispFlags>
     84c:	8f 93       	push	r24
     84e:	8f 70       	andi	r24, 0x0F	; 15
     850:	87 5f       	subi	r24, 0xF7	; 247
     852:	92 30       	cpi	r25, 0x02	; 2
     854:	21 f0       	breq	.+8      	; 0x85e <Remap2nd+0x1c>
     856:	84 50       	subi	r24, 0x04	; 4
     858:	8a 30       	cpi	r24, 0x0A	; 10
     85a:	09 f4       	brne	.+2      	; 0x85e <Remap2nd+0x1c>
     85c:	88 27       	eor	r24, r24
     85e:	9f 91       	pop	r25
     860:	90 7f       	andi	r25, 0xF0	; 240
     862:	89 2b       	or	r24, r25
     864:	08 95       	ret

00000866 <GetKey>:
     866:	9f 93       	push	r25
     868:	ef 93       	push	r30
     86a:	ff 93       	push	r31
     86c:	9f ef       	ldi	r25, 0xFF	; 255
     86e:	89 85       	ldd	r24, Y+9	; 0x09
     870:	99 87       	std	Y+9, r25	; 0x09
     872:	89 17       	cp	r24, r25
     874:	d1 f4       	brne	.+52     	; 0x8aa <GetKey+0x44>
     876:	f8 94       	cli
     878:	88 85       	ldd	r24, Y+8	; 0x08
     87a:	98 87       	std	Y+8, r25	; 0x08
     87c:	78 94       	sei
     87e:	89 17       	cp	r24, r25
     880:	a1 f0       	breq	.+40     	; 0x8aa <GetKey+0x44>
     882:	52 de       	rcall	.-860    	; 0x528 <SleepUpdate>
     884:	81 32       	cpi	r24, 0x21	; 33
     886:	19 f4       	brne	.+6      	; 0x88e <GetKey+0x28>
     888:	0e 94 90 0e 	call	0x1d20	; 0x1d20 <Exec2nd>
     88c:	ef cf       	rjmp	.-34     	; 0x86c <GetKey+0x6>
     88e:	d9 df       	rcall	.-78     	; 0x842 <Remap2nd>
     890:	87 32       	cpi	r24, 0x27	; 39
     892:	11 f4       	brne	.+4      	; 0x898 <GetKey+0x32>
     894:	82 e8       	ldi	r24, 0x82	; 130
     896:	09 c0       	rjmp	.+18     	; 0x8aa <GetKey+0x44>
     898:	ee e2       	ldi	r30, 0x2E	; 46
     89a:	f7 e0       	ldi	r31, 0x07	; 7
     89c:	ee 33       	cpi	r30, 0x3E	; 62
     89e:	29 f0       	breq	.+10     	; 0x8aa <GetKey+0x44>
     8a0:	95 91       	lpm	r25, Z+
     8a2:	89 17       	cp	r24, r25
     8a4:	d9 f7       	brne	.-10     	; 0x89c <GetKey+0x36>
     8a6:	8e 2f       	mov	r24, r30
     8a8:	8f 52       	subi	r24, 0x2F	; 47
     8aa:	8f 3f       	cpi	r24, 0xFF	; 255
     8ac:	ff 91       	pop	r31
     8ae:	ef 91       	pop	r30
     8b0:	9f 91       	pop	r25
     8b2:	08 95       	ret

000008b4 <ReturnKey>:
     8b4:	89 87       	std	Y+9, r24	; 0x09
     8b6:	08 95       	ret

000008b8 <WaitKey>:
     8b8:	d6 df       	rcall	.-84     	; 0x866 <GetKey>
     8ba:	f1 f3       	breq	.-4      	; 0x8b8 <WaitKey>
     8bc:	08 95       	ret

000008be <BreakKey>:
     8be:	f2 9b       	sbis	0x1e, 2	; 30
     8c0:	08 95       	ret
     8c2:	d1 df       	rcall	.-94     	; 0x866 <GetKey>
     8c4:	e9 f3       	breq	.-6      	; 0x8c0 <BreakKey+0x2>
     8c6:	81 39       	cpi	r24, 0x91	; 145
     8c8:	29 f0       	breq	.+10     	; 0x8d4 <BreakKey+0x16>
     8ca:	98 2f       	mov	r25, r24
     8cc:	cc df       	rcall	.-104    	; 0x866 <GetKey>
     8ce:	21 f0       	breq	.+8      	; 0x8d8 <BreakKey+0x1a>
     8d0:	81 39       	cpi	r24, 0x91	; 145
     8d2:	19 f4       	brne	.+6      	; 0x8da <BreakKey+0x1c>
     8d4:	0c 94 c1 11 	jmp	0x2382	; 0x2382 <StopProg>
     8d8:	89 2f       	mov	r24, r25
     8da:	ec cf       	rjmp	.-40     	; 0x8b4 <ReturnKey>

000008dc <EERead>:
     8dc:	b2 bd       	out	0x22, r27	; 34
     8de:	a1 bd       	out	0x21, r26	; 33
     8e0:	f8 9a       	sbi	0x1f, 0	; 31
     8e2:	80 b5       	in	r24, 0x20	; 32
     8e4:	08 95       	ret

000008e6 <EEWrite>:
     8e6:	fa df       	rcall	.-12     	; 0x8dc <EERead>
     8e8:	89 17       	cp	r24, r25
     8ea:	39 f0       	breq	.+14     	; 0x8fa <EEWrite4>
     8ec:	b2 bd       	out	0x22, r27	; 34
     8ee:	a1 bd       	out	0x21, r26	; 33
     8f0:	90 bd       	out	0x20, r25	; 32
     8f2:	fa 9a       	sbi	0x1f, 2	; 31
     8f4:	f9 9a       	sbi	0x1f, 1	; 31
     8f6:	f9 99       	sbic	0x1f, 1	; 31
     8f8:	fe cf       	rjmp	.-4      	; 0x8f6 <EEWrite+0x10>

000008fa <EEWrite4>:
     8fa:	08 95       	ret

000008fc <VOTab>:
     8fc:	47 38       	cpi	r20, 0x87	; 135
     8fe:	2d 24       	eor	r2, r13
     900:	1d 17       	cp	r17, r29
     902:	12 0e       	add	r1, r18
     904:	0b 09       	sbc	r16, r11

00000906 <FontDef>:
     906:	1f 10       	cpse	r1, r15
     908:	08 04       	cpc	r0, r8
     90a:	08 10       	cpse	r0, r8
     90c:	1f 00       	.word	0x001f	; ????
     90e:	00 10       	cpse	r0, r0
     910:	08 04       	cpc	r0, r8
     912:	02 01       	movw	r0, r4
     914:	00 00       	nop
     916:	00 00       	nop
     918:	0d 16       	cp	r0, r29
     91a:	00 00       	nop
     91c:	00 00       	nop
     91e:	00 00       	nop
     920:	1f 0a       	sbc	r1, r31
     922:	0a 0a       	sbc	r0, r26
     924:	13 00       	.word	0x0013	; ????
     926:	03 02       	muls	r16, r19
     928:	1a 0c       	add	r1, r10
     92a:	0c 0c       	add	r0, r12
     92c:	08 08       	sbc	r0, r8
     92e:	00 00       	nop
     930:	11 11       	cpse	r17, r1
     932:	11 13       	cpse	r17, r17
     934:	1d 10       	cpse	r1, r13
     936:	00 00       	nop
     938:	0e 11       	cpse	r16, r14
     93a:	11 0a       	sbc	r1, r17
     93c:	1b 00       	.word	0x001b	; ????
     93e:	1f 1f       	adc	r17, r31
     940:	1f 1f       	adc	r17, r31
     942:	1f 1f       	adc	r17, r31
     944:	1f 1f       	adc	r17, r31

00000946 <FontColL>:
     946:	10 10       	cpse	r1, r0
     948:	10 10       	cpse	r1, r0
     94a:	10 10       	cpse	r1, r0
     94c:	10 10       	cpse	r1, r0
     94e:	18 18       	sub	r1, r8
     950:	18 18       	sub	r1, r8
     952:	18 18       	sub	r1, r8
     954:	18 18       	sub	r1, r8
     956:	1c 1c       	adc	r1, r12
     958:	1c 1c       	adc	r1, r12
     95a:	1c 1c       	adc	r1, r12
     95c:	1c 1c       	adc	r1, r12
     95e:	1e 1e       	adc	r1, r30
     960:	1e 1e       	adc	r1, r30
     962:	1e 1e       	adc	r1, r30
     964:	1e 1e       	adc	r1, r30
     966:	1f 1f       	adc	r17, r31
     968:	1f 1f       	adc	r17, r31
     96a:	1f 1f       	adc	r17, r31
     96c:	1f 1f       	adc	r17, r31
     96e:	15 0a       	sbc	r1, r21
     970:	15 0a       	sbc	r1, r21
     972:	15 0a       	sbc	r1, r21
     974:	15 0a       	sbc	r1, r21
     976:	14 08       	sbc	r1, r4
     978:	14 08       	sbc	r1, r4
     97a:	14 08       	sbc	r1, r4
     97c:	14 08       	sbc	r1, r4
     97e:	1d 1e       	adc	r1, r29
     980:	1d 1e       	adc	r1, r29
     982:	1d 1e       	adc	r1, r29
     984:	1d 1e       	adc	r1, r29

00000986 <FontColR>:
     986:	01 01       	movw	r0, r2
     988:	01 01       	movw	r0, r2
     98a:	01 01       	movw	r0, r2
     98c:	01 01       	movw	r0, r2
     98e:	03 03       	mulsu	r16, r19
     990:	03 03       	mulsu	r16, r19
     992:	03 03       	mulsu	r16, r19
     994:	03 03       	mulsu	r16, r19
     996:	07 07       	cpc	r16, r23
     998:	07 07       	cpc	r16, r23
     99a:	07 07       	cpc	r16, r23
     99c:	07 07       	cpc	r16, r23
     99e:	0f 0f       	add	r16, r31
     9a0:	0f 0f       	add	r16, r31
     9a2:	0f 0f       	add	r16, r31
     9a4:	0f 0f       	add	r16, r31
     9a6:	1f 1f       	adc	r17, r31
     9a8:	1f 1f       	adc	r17, r31
     9aa:	1f 1f       	adc	r17, r31
     9ac:	1f 1f       	adc	r17, r31
     9ae:	15 0a       	sbc	r1, r21
     9b0:	15 0a       	sbc	r1, r21
     9b2:	15 0a       	sbc	r1, r21
     9b4:	15 0a       	sbc	r1, r21
     9b6:	05 02       	muls	r16, r21
     9b8:	05 02       	muls	r16, r21
     9ba:	05 02       	muls	r16, r21
     9bc:	05 02       	muls	r16, r21
     9be:	17 0f       	add	r17, r23
     9c0:	17 0f       	add	r17, r23
     9c2:	17 0f       	add	r17, r23
     9c4:	17 0f       	add	r17, r23

000009c6 <FontLine>:
     9c6:	00 00       	nop
     9c8:	00 00       	nop
     9ca:	00 00       	nop
     9cc:	00 1f       	adc	r16, r16
     9ce:	00 00       	nop
     9d0:	00 00       	nop
     9d2:	00 00       	nop
     9d4:	1f 1f       	adc	r17, r31
     9d6:	00 00       	nop
     9d8:	00 00       	nop
     9da:	00 1f       	adc	r16, r16
     9dc:	1f 1f       	adc	r17, r31
     9de:	00 00       	nop
     9e0:	00 00       	nop
     9e2:	1f 1f       	adc	r17, r31
     9e4:	1f 1f       	adc	r17, r31
     9e6:	00 00       	nop
     9e8:	00 1f       	adc	r16, r16
     9ea:	1f 1f       	adc	r17, r31
     9ec:	1f 1f       	adc	r17, r31
     9ee:	00 00       	nop
     9f0:	1f 1f       	adc	r17, r31
     9f2:	1f 1f       	adc	r17, r31
     9f4:	1f 1f       	adc	r17, r31
     9f6:	00 1f       	adc	r16, r16
     9f8:	1f 1f       	adc	r17, r31
     9fa:	1f 1f       	adc	r17, r31
     9fc:	1f 1f       	adc	r17, r31
     9fe:	1f 1f       	adc	r17, r31
     a00:	1f 1f       	adc	r17, r31
     a02:	1f 1f       	adc	r17, r31
     a04:	1f 1f       	adc	r17, r31

00000a06 <FontPix>:
     a06:	1f 1f       	adc	r17, r31
     a08:	1f 00       	.word	0x001f	; ????
     a0a:	00 00       	nop
     a0c:	00 00       	nop
     a0e:	00 00       	nop
     a10:	00 1f       	adc	r16, r16
     a12:	1f 1f       	adc	r17, r31
     a14:	00 00       	nop
     a16:	1f 1f       	adc	r17, r31
     a18:	1f 1f       	adc	r17, r31
     a1a:	1f 1f       	adc	r17, r31
	...
     a24:	1f 1f       	adc	r17, r31
     a26:	1f 1f       	adc	r17, r31
     a28:	1f 00       	.word	0x001f	; ????
     a2a:	00 00       	nop
     a2c:	1f 1f       	adc	r17, r31
     a2e:	00 00       	nop
     a30:	00 1f       	adc	r16, r16
     a32:	1f 1f       	adc	r17, r31
     a34:	00 00       	nop
     a36:	1f 1f       	adc	r17, r31
     a38:	1f 1f       	adc	r17, r31
     a3a:	1f 1f       	adc	r17, r31
     a3c:	1f 1f       	adc	r17, r31
     a3e:	15 0a       	sbc	r1, r21
     a40:	15 0a       	sbc	r1, r21
     a42:	15 0a       	sbc	r1, r21
     a44:	15 0a       	sbc	r1, r21

00000a46 <FontTab>:
     a46:	06 09       	sbc	r16, r6
     a48:	46 09       	sbc	r20, r6
     a4a:	86 09       	sbc	r24, r6
     a4c:	c6 09       	sbc	r28, r6
     a4e:	06 0a       	sbc	r0, r22

00000a50 <LCD_OutNibble>:
     a50:	5b 98       	cbi	0x0b, 3	; 11
     a52:	5a 98       	cbi	0x0b, 2	; 11
     a54:	59 98       	cbi	0x0b, 1	; 11
     a56:	58 98       	cbi	0x0b, 0	; 11
     a58:	80 fd       	sbrc	r24, 0
     a5a:	5b 9a       	sbi	0x0b, 3	; 11
     a5c:	81 fd       	sbrc	r24, 1
     a5e:	5a 9a       	sbi	0x0b, 2	; 11
     a60:	82 fd       	sbrc	r24, 2
     a62:	59 9a       	sbi	0x0b, 1	; 11
     a64:	83 fd       	sbrc	r24, 3
     a66:	58 9a       	sbi	0x0b, 0	; 11
     a68:	5c 9a       	sbi	0x0b, 4	; 11
     a6a:	42 de       	rcall	.-892    	; 0x6f0 <Wait10us>
     a6c:	5c 98       	cbi	0x0b, 4	; 11
     a6e:	40 ce       	rjmp	.-896    	; 0x6f0 <Wait10us>

00000a70 <LCD_WriteCmd>:
     a70:	2e 98       	cbi	0x05, 6	; 5

00000a72 <LCD_OutByte>:
     a72:	82 95       	swap	r24
     a74:	ed df       	rcall	.-38     	; 0xa50 <LCD_OutNibble>
     a76:	82 95       	swap	r24
     a78:	eb df       	rcall	.-42     	; 0xa50 <LCD_OutNibble>
     a7a:	43 ce       	rjmp	.-890    	; 0x702 <Wait100us>

00000a7c <LCD_WriteData>:
     a7c:	2e 9a       	sbi	0x05, 6	; 5
     a7e:	f9 cf       	rjmp	.-14     	; 0xa72 <LCD_OutByte>

00000a80 <DispChar>:
     a80:	8f 93       	push	r24
     a82:	9f 93       	push	r25
     a84:	90 91 3a 01 	lds	r25, 0x013A
     a88:	90 30       	cpi	r25, 0x00	; 0
     a8a:	39 f4       	brne	.+14     	; 0xa9a <DispChar+0x1a>
     a8c:	8c 35       	cpi	r24, 0x5C	; 92
     a8e:	09 f4       	brne	.+2      	; 0xa92 <DispChar+0x12>
     a90:	81 e0       	ldi	r24, 0x01	; 1
     a92:	8e 37       	cpi	r24, 0x7E	; 126
     a94:	60 f0       	brcs	.+24     	; 0xaae <DispChar+0x2e>
     a96:	8c 57       	subi	r24, 0x7C	; 124
     a98:	0a c0       	rjmp	.+20     	; 0xaae <DispChar+0x2e>
     a9a:	8c 35       	cpi	r24, 0x5C	; 92
     a9c:	11 f4       	brne	.+4      	; 0xaa2 <DispChar+0x22>
     a9e:	8c e7       	ldi	r24, 0x7C	; 124
     aa0:	06 c0       	rjmp	.+12     	; 0xaae <DispChar+0x2e>
     aa2:	8b 37       	cpi	r24, 0x7B	; 123
     aa4:	20 f0       	brcs	.+8      	; 0xaae <DispChar+0x2e>
     aa6:	11 f0       	breq	.+4      	; 0xaac <DispChar+0x2c>
     aa8:	8c 57       	subi	r24, 0x7C	; 124
     aaa:	01 c0       	rjmp	.+2      	; 0xaae <DispChar+0x2e>
     aac:	80 e2       	ldi	r24, 0x20	; 32
     aae:	9f 91       	pop	r25
     ab0:	e5 df       	rcall	.-54     	; 0xa7c <LCD_WriteData>
     ab2:	8a 81       	ldd	r24, Y+2	; 0x02
     ab4:	83 95       	inc	r24
     ab6:	8a 83       	std	Y+2, r24	; 0x02
     ab8:	8f 91       	pop	r24
     aba:	08 95       	ret

00000abc <LCD_Set8bit>:
     abc:	83 e0       	ldi	r24, 0x03	; 3

00000abe <LCD_Setbit>:
     abe:	c8 df       	rcall	.-112    	; 0xa50 <LCD_OutNibble>
     ac0:	8a e0       	ldi	r24, 0x0A	; 10
     ac2:	2a ce       	rjmp	.-940    	; 0x718 <Waitms>

00000ac4 <LCD_Restore>:
     ac4:	04 d0       	rcall	.+8      	; 0xace <LCD_InitGen>
     ac6:	36 d0       	rcall	.+108    	; 0xb34 <LCD_Init>
     ac8:	80 91 3a 01 	lds	r24, 0x013A
     acc:	1e c0       	rjmp	.+60     	; 0xb0a <SetFont2>

00000ace <LCD_InitGen>:
     ace:	82 e4       	ldi	r24, 0x42	; 66
     ad0:	84 bd       	out	0x24, r24	; 36
     ad2:	82 e0       	ldi	r24, 0x02	; 2
     ad4:	85 bd       	out	0x25, r24	; 37
     ad6:	8b 81       	ldd	r24, Y+3	; 0x03

00000ad8 <LCD_SetVO>:
     ad8:	8f 93       	push	r24
     ada:	ef 93       	push	r30
     adc:	ff 93       	push	r31
     ade:	88 23       	and	r24, r24
     ae0:	0a f4       	brpl	.+2      	; 0xae4 <LCD_SetVO+0xc>
     ae2:	88 27       	eor	r24, r24
     ae4:	8a 30       	cpi	r24, 0x0A	; 10
     ae6:	08 f0       	brcs	.+2      	; 0xaea <LCD_SetVO+0x12>
     ae8:	8a e0       	ldi	r24, 0x0A	; 10
     aea:	ff 27       	eor	r31, r31
     aec:	e8 2f       	mov	r30, r24
     aee:	e4 50       	subi	r30, 0x04	; 4
     af0:	f7 4f       	sbci	r31, 0xF7	; 247
     af2:	84 91       	lpm	r24, Z+
     af4:	87 bd       	out	0x27, r24	; 39
     af6:	ff 91       	pop	r31
     af8:	ef 91       	pop	r30
     afa:	8f 91       	pop	r24
     afc:	08 95       	ret

00000afe <SetFont>:
     afe:	90 91 3a 01 	lds	r25, 0x013A
     b02:	89 17       	cp	r24, r25
     b04:	b1 f0       	breq	.+44     	; 0xb32 <LCD_SetFont9>
     b06:	80 93 3a 01 	sts	0x013A, r24

00000b0a <SetFont2>:
     b0a:	88 0f       	add	r24, r24
     b0c:	e6 e4       	ldi	r30, 0x46	; 70
     b0e:	fa e0       	ldi	r31, 0x0A	; 10
     b10:	e8 0f       	add	r30, r24
     b12:	f1 1d       	adc	r31, r1
     b14:	85 91       	lpm	r24, Z+
     b16:	f4 91       	lpm	r31, Z+
     b18:	e8 2f       	mov	r30, r24
     b1a:	04 c0       	rjmp	.+8      	; 0xb24 <LCD_SetFont>

00000b1c <LCD_SetFontDef>:
     b1c:	e6 e0       	ldi	r30, 0x06	; 6
     b1e:	f9 e0       	ldi	r31, 0x09	; 9
     b20:	10 92 3a 01 	sts	0x013A, r1

00000b24 <LCD_SetFont>:
     b24:	80 e4       	ldi	r24, 0x40	; 64
     b26:	a4 df       	rcall	.-184    	; 0xa70 <LCD_WriteCmd>
     b28:	90 e4       	ldi	r25, 0x40	; 64
     b2a:	85 91       	lpm	r24, Z+
     b2c:	a7 df       	rcall	.-178    	; 0xa7c <LCD_WriteData>
     b2e:	9a 95       	dec	r25
     b30:	e1 f7       	brne	.-8      	; 0xb2a <LCD_SetFont+0x6>

00000b32 <LCD_SetFont9>:
     b32:	08 95       	ret

00000b34 <LCD_Init>:
     b34:	5c 98       	cbi	0x0b, 4	; 11
     b36:	0e 94 8b 03 	call	0x716	; 0x716 <Wait250ms>
     b3a:	2e 98       	cbi	0x05, 6	; 5
     b3c:	bf df       	rcall	.-130    	; 0xabc <LCD_Set8bit>
     b3e:	be df       	rcall	.-132    	; 0xabc <LCD_Set8bit>
     b40:	bd df       	rcall	.-134    	; 0xabc <LCD_Set8bit>
     b42:	82 e0       	ldi	r24, 0x02	; 2
     b44:	bc df       	rcall	.-136    	; 0xabe <LCD_Setbit>
     b46:	88 e2       	ldi	r24, 0x28	; 40
     b48:	93 df       	rcall	.-218    	; 0xa70 <LCD_WriteCmd>
     b4a:	88 e0       	ldi	r24, 0x08	; 8
     b4c:	91 df       	rcall	.-222    	; 0xa70 <LCD_WriteCmd>
     b4e:	81 e0       	ldi	r24, 0x01	; 1
     b50:	07 d0       	rcall	.+14     	; 0xb60 <LCD_Home2>
     b52:	86 e0       	ldi	r24, 0x06	; 6
     b54:	8d df       	rcall	.-230    	; 0xa70 <LCD_WriteCmd>
     b56:	8c e0       	ldi	r24, 0x0C	; 12
     b58:	8b df       	rcall	.-234    	; 0xa70 <LCD_WriteCmd>
     b5a:	e0 df       	rcall	.-64     	; 0xb1c <LCD_SetFontDef>
     b5c:	1a 82       	std	Y+2, r1	; 0x02
     b5e:	82 e0       	ldi	r24, 0x02	; 2

00000b60 <LCD_Home2>:
     b60:	87 df       	rcall	.-242    	; 0xa70 <LCD_WriteCmd>
     b62:	85 e0       	ldi	r24, 0x05	; 5
     b64:	d9 cd       	rjmp	.-1102   	; 0x718 <Waitms>

00000b66 <DispSetPos>:
     b66:	8f 93       	push	r24
     b68:	9f 93       	push	r25
     b6a:	98 2f       	mov	r25, r24
     b6c:	9f 73       	andi	r25, 0x3F	; 63
     b6e:	9a 83       	std	Y+2, r25	; 0x02
     b70:	80 68       	ori	r24, 0x80	; 128
     b72:	7e df       	rcall	.-260    	; 0xa70 <LCD_WriteCmd>
     b74:	9f 91       	pop	r25
     b76:	8f 91       	pop	r24
     b78:	08 95       	ret

00000b7a <DispSetRow2>:
     b7a:	8f 93       	push	r24
     b7c:	80 ec       	ldi	r24, 0xC0	; 192
     b7e:	02 c0       	rjmp	.+4      	; 0xb84 <DispSetRow1B>

00000b80 <DispSetRow1>:
     b80:	8f 93       	push	r24
     b82:	80 e8       	ldi	r24, 0x80	; 128

00000b84 <DispSetRow1B>:
     b84:	1a 82       	std	Y+2, r1	; 0x02
     b86:	74 df       	rcall	.-280    	; 0xa70 <LCD_WriteCmd>
     b88:	8f 91       	pop	r24
     b8a:	08 95       	ret

00000b8c <DispTextRom2>:
     b8c:	79 df       	rcall	.-270    	; 0xa80 <DispChar>

00000b8e <DispTextRom>:
     b8e:	85 91       	lpm	r24, Z+
     b90:	88 23       	and	r24, r24
     b92:	e1 f7       	brne	.-8      	; 0xb8c <DispTextRom2>
     b94:	08 95       	ret

00000b96 <DispTextRam2>:
     b96:	74 df       	rcall	.-280    	; 0xa80 <DispChar>

00000b98 <DispTextRam>:
     b98:	81 91       	ld	r24, Z+
     b9a:	88 23       	and	r24, r24
     b9c:	e1 f7       	brne	.-8      	; 0xb96 <DispTextRam2>
     b9e:	08 95       	ret

00000ba0 <DispSpc>:
     ba0:	8f 93       	push	r24
     ba2:	80 e2       	ldi	r24, 0x20	; 32
     ba4:	6d df       	rcall	.-294    	; 0xa80 <DispChar>
     ba6:	8f 91       	pop	r24
     ba8:	08 95       	ret

00000baa <DispSpcPos2>:
     baa:	fa df       	rcall	.-12     	; 0xba0 <DispSpc>

00000bac <DispSpcPos>:
     bac:	9a 81       	ldd	r25, Y+2	; 0x02
     bae:	98 17       	cp	r25, r24
     bb0:	e0 f3       	brcs	.-8      	; 0xbaa <DispSpcPos2>
     bb2:	08 95       	ret

00000bb4 <DispSpcClr>:
     bb4:	8f 93       	push	r24
     bb6:	9f 93       	push	r25
     bb8:	80 e1       	ldi	r24, 0x10	; 16
     bba:	f8 df       	rcall	.-16     	; 0xbac <DispSpcPos>
     bbc:	9f 91       	pop	r25
     bbe:	8f 91       	pop	r24
     bc0:	08 95       	ret

00000bc2 <DispHexW>:
     bc2:	8f 93       	push	r24
     bc4:	89 2f       	mov	r24, r25
     bc6:	01 d0       	rcall	.+2      	; 0xbca <DispHexB>
     bc8:	8f 91       	pop	r24

00000bca <DispHexB>:
     bca:	82 95       	swap	r24
     bcc:	01 d0       	rcall	.+2      	; 0xbd0 <DispHexDig>
     bce:	82 95       	swap	r24

00000bd0 <DispHexDig>:
     bd0:	8f 93       	push	r24
     bd2:	8f 70       	andi	r24, 0x0F	; 15
     bd4:	8a 30       	cpi	r24, 0x0A	; 10
     bd6:	08 f0       	brcs	.+2      	; 0xbda <DispHexDig+0xa>
     bd8:	89 5f       	subi	r24, 0xF9	; 249
     bda:	80 5d       	subi	r24, 0xD0	; 208
     bdc:	51 df       	rcall	.-350    	; 0xa80 <DispChar>
     bde:	8f 91       	pop	r24
     be0:	08 95       	ret

00000be2 <_EERead>:
     be2:	0c 94 6e 04 	jmp	0x8dc	; 0x8dc <EERead>

00000be6 <_EEWrite>:
     be6:	0c 94 73 04 	jmp	0x8e6	; 0x8e6 <EEWrite>

00000bea <DispName>:
     bea:	30 00       	.word	0x0030	; ????
     bec:	31 00       	.word	0x0031	; ????
     bee:	32 00       	.word	0x0032	; ????
     bf0:	33 00       	.word	0x0033	; ????
     bf2:	34 00       	.word	0x0034	; ????
     bf4:	35 00       	.word	0x0035	; ????
     bf6:	36 00       	.word	0x0036	; ????
     bf8:	37 00       	.word	0x0037	; ????
     bfa:	38 00       	.word	0x0038	; ????
     bfc:	39 00       	.word	0x0039	; ????
     bfe:	30 41       	sbci	r19, 0x10	; 16
     c00:	00 30       	cpi	r16, 0x00	; 0
     c02:	42 00       	.word	0x0042	; ????
     c04:	30 43       	sbci	r19, 0x30	; 48
     c06:	00 30       	cpi	r16, 0x00	; 0
     c08:	44 00       	.word	0x0044	; ????
     c0a:	30 45       	sbci	r19, 0x50	; 80
     c0c:	00 30       	cpi	r16, 0x00	; 0
     c0e:	46 00       	.word	0x0046	; ????
     c10:	45 27       	eor	r20, r21
     c12:	00 41       	sbci	r16, 0x10	; 16
     c14:	00 42       	sbci	r16, 0x20	; 32
     c16:	00 43       	sbci	r16, 0x30	; 48
     c18:	00 44       	sbci	r16, 0x40	; 64
     c1a:	00 45       	sbci	r16, 0x50	; 80
     c1c:	00 41       	sbci	r16, 0x10	; 16
     c1e:	27 00       	.word	0x0027	; ????
     c20:	42 27       	eor	r20, r18
     c22:	00 43       	sbci	r16, 0x30	; 48
     c24:	27 00       	.word	0x0027	; ????
     c26:	44 27       	eor	r20, r20
     c28:	00 41       	sbci	r16, 0x10	; 16
     c2a:	27 27       	eor	r18, r23
     c2c:	00 42       	sbci	r16, 0x20	; 32
     c2e:	27 27       	eor	r18, r23
     c30:	00 43       	sbci	r16, 0x30	; 48
     c32:	27 27       	eor	r18, r23
     c34:	00 44       	sbci	r16, 0x40	; 64
     c36:	27 27       	eor	r18, r23
     c38:	00 45       	sbci	r16, 0x50	; 80
     c3a:	27 27       	eor	r18, r23
     c3c:	00 46       	sbci	r16, 0x60	; 96
     c3e:	00 00       	nop
     c40:	32 6e       	ori	r19, 0xE2	; 226
     c42:	64 00       	.word	0x0064	; ????
     c44:	49 4e       	sbci	r20, 0xE9	; 233
     c46:	56 00       	.word	0x0056	; ????
     c48:	6c 6e       	ori	r22, 0xEC	; 236
     c4a:	20 78       	andi	r18, 0x80	; 128
     c4c:	00 43       	sbci	r16, 0x30	; 48
     c4e:	45 00       	.word	0x0045	; ????
     c50:	43 4c       	sbci	r20, 0xC3	; 195
     c52:	52 00       	.word	0x0052	; ????
     c54:	53 42       	sbci	r21, 0x23	; 35
     c56:	52 20       	and	r5, r2
     c58:	49 6e       	ori	r20, 0xE9	; 233
     c5a:	64 00       	.word	0x0064	; ????
     c5c:	48 49       	sbci	r20, 0x98	; 152
     c5e:	52 20       	and	r5, r2
     c60:	49 6e       	ori	r20, 0xE9	; 233
     c62:	64 00       	.word	0x0064	; ????
     c64:	6c 6f       	ori	r22, 0xFC	; 252
     c66:	67 00       	.word	0x0067	; ????
     c68:	43 50       	subi	r20, 0x03	; 3
     c6a:	00 00       	nop
     c6c:	63 6f       	ori	r22, 0xF3	; 243
     c6e:	64 65       	ori	r22, 0x54	; 84
     c70:	00 6c       	ori	r16, 0xC0	; 192
     c72:	6f 67       	ori	r22, 0x7F	; 127
     c74:	32 00       	.word	0x0032	; ????
     c76:	72 61       	ori	r23, 0x12	; 18
     c78:	6e 64       	ori	r22, 0x4E	; 78
     c7a:	00 00       	nop
     c7c:	00 74       	andi	r16, 0x40	; 64
     c7e:	61 6e       	ori	r22, 0xE1	; 225
     c80:	00 4c       	sbci	r16, 0xC0	; 192
     c82:	52 4e       	sbci	r21, 0xE2	; 226
     c84:	00 78       	andi	r16, 0x80	; 128
     c86:	3c 2d       	mov	r19, r12
     c88:	3e 74       	andi	r19, 0x4E	; 78
     c8a:	00 78       	andi	r16, 0x80	; 128
     c8c:	5e 32       	cpi	r21, 0x2E	; 46
     c8e:	00 04       	cpc	r0, r0
     c90:	78 00       	.word	0x0078	; ????
     c92:	31 2f       	mov	r19, r17
     c94:	78 00       	.word	0x0078	; ????
     c96:	50 67       	ori	r21, 0x70	; 112
     c98:	6d 00       	.word	0x006d	; ????
     c9a:	50 2d       	mov	r21, r0
     c9c:	3e 52       	subi	r19, 0x2E	; 46
     c9e:	00 73       	andi	r16, 0x30	; 48
     ca0:	69 6e       	ori	r22, 0xE9	; 233
     ca2:	00 63       	ori	r16, 0x30	; 48
     ca4:	6f 73       	andi	r22, 0x3F	; 63
     ca6:	00 54       	subi	r16, 0x40	; 64
     ca8:	65 6d       	ori	r22, 0xD5	; 213
     caa:	70 00       	.word	0x0070	; ????
     cac:	78 3c       	cpi	r23, 0xC8	; 200
     cae:	2d 3e       	cpi	r18, 0xED	; 237
     cb0:	79 00       	.word	0x0079	; ????
     cb2:	73 69       	ori	r23, 0x93	; 147
     cb4:	6e 68       	ori	r22, 0x8E	; 142
     cb6:	00 63       	ori	r16, 0x30	; 48
     cb8:	6f 73       	andi	r22, 0x3F	; 63
     cba:	68 00       	.word	0x0068	; ????
     cbc:	74 61       	ori	r23, 0x14	; 20
     cbe:	6e 68       	ori	r22, 0x8E	; 142
     cc0:	00 00       	nop
     cc2:	49 6e       	ori	r20, 0xE9	; 233
     cc4:	64 00       	.word	0x0064	; ????
     cc6:	53 53       	subi	r21, 0x33	; 51
     cc8:	54 00       	.word	0x0054	; ????
     cca:	53 54       	subi	r21, 0x43	; 67
     ccc:	4f 00       	.word	0x004f	; ????
     cce:	52 43       	sbci	r21, 0x32	; 50
     cd0:	4c 00       	.word	0x004c	; ????
     cd2:	53 55       	subi	r21, 0x53	; 83
     cd4:	4d 00       	.word	0x004d	; ????
     cd6:	79 5e       	subi	r23, 0xE9	; 233
     cd8:	78 00       	.word	0x0078	; ????
     cda:	49 6e       	ori	r20, 0xE9	; 233
     cdc:	73 00       	.word	0x0073	; ????
     cde:	43 4d       	sbci	r20, 0xD3	; 211
     ce0:	73 00       	.word	0x0073	; ????
     ce2:	45 78       	andi	r20, 0x85	; 133
     ce4:	63 00       	.word	0x0063	; ????
     ce6:	50 72       	andi	r21, 0x20	; 32
     ce8:	64 00       	.word	0x0064	; ????
     cea:	42 61       	ori	r20, 0x12	; 18
     cec:	74 00       	.word	0x0074	; ????
     cee:	78 21       	and	r23, r8
     cf0:	00 6c       	ori	r16, 0xC0	; 192
     cf2:	6e 20       	and	r6, r14
     cf4:	78 21       	and	r23, r8
     cf6:	00 6c       	ori	r16, 0xC0	; 192
     cf8:	6f 67       	ori	r22, 0x7F	; 127
     cfa:	20 78       	andi	r18, 0x80	; 128
     cfc:	21 00       	.word	0x0021	; ????
     cfe:	6d 6f       	ori	r22, 0xFD	; 253
     d00:	64 32       	cpi	r22, 0x24	; 36
     d02:	00 00       	nop
     d04:	7c 78       	andi	r23, 0x8C	; 140
     d06:	7c 00       	.word	0x007c	; ????
     d08:	42 53       	subi	r20, 0x32	; 50
     d0a:	54 00       	.word	0x0054	; ????
     d0c:	45 45       	sbci	r20, 0x55	; 85
     d0e:	00 28       	or	r0, r0
     d10:	00 29       	or	r16, r0
     d12:	00 3a       	cpi	r16, 0xA0	; 160
     d14:	00 44       	sbci	r16, 0x40	; 64
     d16:	65 6c       	ori	r22, 0xC5	; 197
     d18:	00 45       	sbci	r16, 0x50	; 80
     d1a:	6e 67       	ori	r22, 0x7E	; 126
     d1c:	00 46       	sbci	r16, 0x60	; 96
     d1e:	69 78       	andi	r22, 0x89	; 137
     d20:	00 49       	sbci	r16, 0x90	; 144
     d22:	6e 74       	andi	r22, 0x4E	; 78
     d24:	00 4c       	sbci	r16, 0xC0	; 192
     d26:	43 44       	sbci	r20, 0x43	; 67
     d28:	00 3c       	cpi	r16, 0xC0	; 192
     d2a:	3c 00       	.word	0x003c	; ????
     d2c:	3e 3e       	cpi	r19, 0xEE	; 238
     d2e:	00 72       	andi	r16, 0x20	; 32
     d30:	6f 75       	andi	r22, 0x5F	; 95
     d32:	6e 64       	ori	r22, 0x4E	; 78
     d34:	00 6d       	ori	r16, 0xD0	; 208
     d36:	6f 64       	ori	r22, 0x4F	; 79
     d38:	00 00       	nop
     d3a:	44 65       	ori	r20, 0x54	; 84
     d3c:	67 00       	.word	0x0067	; ????
     d3e:	47 54       	subi	r20, 0x47	; 71
     d40:	4f 00       	.word	0x004f	; ????
     d42:	50 67       	ori	r21, 0x70	; 112
     d44:	6d 20       	and	r6, r13
     d46:	49 6e       	ori	r20, 0xE9	; 233
     d48:	64 00       	.word	0x0064	; ????
     d4a:	45 78       	andi	r20, 0x85	; 133
     d4c:	63 20       	and	r6, r3
     d4e:	49 6e       	ori	r20, 0xE9	; 233
     d50:	64 00       	.word	0x0064	; ????
     d52:	50 72       	andi	r21, 0x20	; 32
     d54:	64 20       	and	r6, r4
     d56:	49 6e       	ori	r20, 0xE9	; 233
     d58:	64 00       	.word	0x0064	; ????
     d5a:	78 00       	.word	0x0078	; ????
     d5c:	50 61       	ori	r21, 0x10	; 16
     d5e:	75 73       	andi	r23, 0x35	; 53
     d60:	65 00       	.word	0x0065	; ????
     d62:	78 3d       	cpi	r23, 0xD8	; 216
     d64:	74 00       	.word	0x0074	; ????
     d66:	4e 6f       	ori	r20, 0xFE	; 254
     d68:	70 00       	.word	0x0070	; ????
     d6a:	4f 70       	andi	r20, 0x0F	; 15
     d6c:	00 52       	subi	r16, 0x20	; 32
     d6e:	65 6c       	ori	r22, 0xC5	; 197
     d70:	00 49       	sbci	r16, 0x90	; 144
     d72:	6e 63       	ori	r22, 0x3E	; 62
     d74:	20 49       	sbci	r18, 0x90	; 144
     d76:	6e 64       	ori	r22, 0x4E	; 78
     d78:	00 52       	subi	r16, 0x20	; 32
     d7a:	65 67       	ori	r22, 0x75	; 117
     d7c:	20 49       	sbci	r18, 0x90	; 144
     d7e:	6e 64       	ori	r22, 0x4E	; 78
     d80:	00 49       	sbci	r16, 0x90	; 144
     d82:	46 20       	and	r4, r6
     d84:	49 6e       	ori	r20, 0xE9	; 233
     d86:	64 00       	.word	0x0064	; ????
     d88:	41 4e       	sbci	r20, 0xE1	; 225
     d8a:	44 00       	.word	0x0044	; ????
     d8c:	00 52       	subi	r16, 0x20	; 32
     d8e:	61 64       	ori	r22, 0x41	; 65
     d90:	00 53       	subi	r16, 0x30	; 48
     d92:	42 52       	subi	r20, 0x22	; 34
     d94:	00 53       	subi	r16, 0x30	; 48
     d96:	54 4f       	sbci	r21, 0xF4	; 244
     d98:	20 49       	sbci	r18, 0x90	; 144
     d9a:	6e 64       	ori	r22, 0x4E	; 78
     d9c:	00 52       	subi	r16, 0x20	; 32
     d9e:	43 4c       	sbci	r20, 0xC3	; 195
     da0:	20 49       	sbci	r18, 0x90	; 144
     da2:	6e 64       	ori	r22, 0x4E	; 78
     da4:	00 53       	subi	r16, 0x30	; 48
     da6:	55 4d       	sbci	r21, 0xD5	; 213
     da8:	20 49       	sbci	r18, 0x90	; 144
     daa:	6e 64       	ori	r22, 0x4E	; 78
     dac:	00 2d       	mov	r16, r0
     dae:	00 4c       	sbci	r16, 0xC0	; 192
     db0:	62 6c       	ori	r22, 0xC2	; 194
     db2:	00 78       	andi	r16, 0x80	; 128
     db4:	3e 3d       	cpi	r19, 0xDE	; 222
     db6:	74 00       	.word	0x0074	; ????
     db8:	53 74       	andi	r21, 0x43	; 67
     dba:	61 74       	andi	r22, 0x41	; 65
     dbc:	2b 00       	.word	0x002b	; ????
     dbe:	4d 65       	ori	r20, 0x5D	; 93
     dc0:	61 6e       	ori	r22, 0xE1	; 225
     dc2:	00 49       	sbci	r16, 0x90	; 144
     dc4:	46 00       	.word	0x0046	; ????
     dc6:	00 00       	nop
     dc8:	00 58       	subi	r16, 0x80	; 128
     dca:	4f 52       	subi	r20, 0x2F	; 47
     dcc:	00 00       	nop
     dce:	47 72       	andi	r20, 0x27	; 39
     dd0:	61 64       	ori	r22, 0x41	; 65
     dd2:	00 52       	subi	r16, 0x20	; 32
     dd4:	53 54       	subi	r21, 0x43	; 67
     dd6:	00 48       	sbci	r16, 0x80	; 128
     dd8:	49 52       	subi	r20, 0x29	; 41
     dda:	00 47       	sbci	r16, 0x70	; 112
     ddc:	54 4f       	sbci	r21, 0xF4	; 244
     dde:	20 49       	sbci	r18, 0x90	; 144
     de0:	6e 64       	ori	r22, 0x4E	; 78
     de2:	00 4f       	sbci	r16, 0xF0	; 240
     de4:	70 20       	and	r7, r0
     de6:	49 6e       	ori	r20, 0xE9	; 233
     de8:	64 00       	.word	0x0064	; ????
     dea:	2b 00       	.word	0x002b	; ????
     dec:	53 74       	andi	r21, 0x43	; 67
     dee:	20 66       	ori	r18, 0x60	; 96
     df0:	6c 67       	ori	r22, 0x7C	; 124
     df2:	00 49       	sbci	r16, 0x90	; 144
     df4:	66 20       	and	r6, r6
     df6:	66 6c       	ori	r22, 0xC6	; 198
     df8:	67 00       	.word	0x0067	; ????
     dfa:	44 2e       	mov	r4, r20
     dfc:	4d 53       	subi	r20, 0x3D	; 61
     dfe:	00 70       	andi	r16, 0x00	; 0
     e00:	69 00       	.word	0x0069	; ????
     e02:	52 65       	ori	r21, 0x52	; 82
     e04:	67 00       	.word	0x0067	; ????
     e06:	48 45       	sbci	r20, 0x58	; 88
     e08:	58 00       	.word	0x0058	; ????
     e0a:	42 49       	sbci	r20, 0x92	; 146
     e0c:	4e 00       	.word	0x004e	; ????
     e0e:	4f 43       	sbci	r20, 0x3F	; 63
     e10:	54 00       	.word	0x0054	; ????
     e12:	4f 52       	subi	r20, 0x2F	; 47
     e14:	00 00       	nop
     e16:	4c 69       	ori	r20, 0x9C	; 156
     e18:	73 74       	andi	r23, 0x43	; 67
     e1a:	00 52       	subi	r16, 0x20	; 32
     e1c:	2f 53       	subi	r18, 0x3F	; 63
     e1e:	00 52       	subi	r16, 0x20	; 32
     e20:	54 4e       	sbci	r21, 0xE4	; 228
     e22:	00 2e       	mov	r0, r16
     e24:	00 2b       	or	r16, r16
     e26:	2f 2d       	mov	r18, r15
     e28:	00 3d       	cpi	r16, 0xD0	; 208
     e2a:	00 57       	subi	r16, 0x70	; 112
     e2c:	72 69       	ori	r23, 0x92	; 146
     e2e:	74 65       	ori	r23, 0x54	; 84
     e30:	00 44       	sbci	r16, 0x40	; 64
     e32:	73 7a       	andi	r23, 0xA3	; 163
     e34:	00 41       	sbci	r16, 0x10	; 16
     e36:	64 76       	andi	r22, 0x64	; 100
     e38:	00 50       	subi	r16, 0x00	; 0
     e3a:	72 74       	andi	r23, 0x42	; 66
     e3c:	00 00       	nop
     e3e:	44 45       	sbci	r20, 0x54	; 84
     e40:	43 00       	.word	0x0043	; ????
     e42:	49 6e       	ori	r20, 0xE9	; 233
     e44:	63 00       	.word	0x0063	; ????
     e46:	4e 4f       	sbci	r20, 0xFE	; 254
     e48:	54 00       	.word	0x0054	; ????
     e4a:	25 00       	.word	0x0025	; ????
	...

00000e4e <DispNameErr>:
	...

00000e50 <DispNameEmpty>:
     e50:	2e 2e       	mov	r2, r30
     e52:	2e 65       	ori	r18, 0x5E	; 94
     e54:	6d 70       	andi	r22, 0x0D	; 13
     e56:	74 79       	andi	r23, 0x94	; 148
	...

00000e5a <KeyLen>:
	...
     e6a:	00 00       	nop
     e6c:	00 11       	cpse	r16, r0
     e6e:	00 00       	nop
     e70:	00 00       	nop
     e72:	00 00       	nop
     e74:	00 01       	movw	r0, r0
     e76:	00 00       	nop
     e78:	00 00       	nop
     e7a:	01 11       	cpse	r16, r1
     e7c:	01 00       	.word	0x0001	; ????
     e7e:	11 00       	.word	0x0011	; ????
     e80:	00 00       	nop
     e82:	00 00       	nop
     e84:	00 00       	nop
     e86:	05 05       	cpc	r16, r5
     e88:	00 00       	nop
     e8a:	90 11       	cpse	r25, r0
     e8c:	01 90       	ld	r0, Z+
     e8e:	10 11       	cpse	r17, r0
     e90:	b2 00       	.word	0x00b2	; ????
     e92:	90 11       	cpse	r25, r0
     e94:	01 91       	ld	r16, Z+
     e96:	00 0b       	sbc	r16, r16
     e98:	00 00       	nop
     e9a:	00 11       	cpse	r16, r0
     e9c:	01 e5       	ldi	r16, 0x51	; 81
     e9e:	00 02       	muls	r16, r16
     ea0:	00 00       	nop
     ea2:	00 00       	nop
     ea4:	00 e0       	ldi	r16, 0x00	; 0
     ea6:	00 00       	nop
     ea8:	01 00       	.word	0x0001	; ????

00000eaa <GetProgAddr>:
     eaa:	e2 e3       	ldi	r30, 0x32	; 50
     eac:	f5 e5       	ldi	r31, 0x55	; 85
     eae:	e8 0f       	add	r30, r24
     eb0:	f1 1d       	adc	r31, r1
     eb2:	e8 0f       	add	r30, r24
     eb4:	f1 1d       	adc	r31, r1
     eb6:	05 90       	lpm	r0, Z+
     eb8:	f4 91       	lpm	r31, Z+
     eba:	e0 2d       	mov	r30, r0
     ebc:	ee 5c       	subi	r30, 0xCE	; 206
     ebe:	fa 4a       	sbci	r31, 0xAA	; 170
     ec0:	08 95       	ret

00000ec2 <OpenProg>:
     ec2:	ef 8d       	ldd	r30, Y+31	; 0x1f
     ec4:	e3 95       	inc	r30
     ec6:	8e 17       	cp	r24, r30
     ec8:	10 f0       	brcs	.+4      	; 0xece <OpenProg+0xc>
     eca:	0c 94 ac 02 	jmp	0x558	; 0x558 <Fatal>
     ece:	88 a3       	std	Y+32, r24	; 0x20
     ed0:	89 a3       	std	Y+33, r24	; 0x21
     ed2:	1a a2       	std	Y+34, r1	; 0x22
     ed4:	1b a2       	std	Y+35, r1	; 0x23
     ed6:	e8 ee       	ldi	r30, 0xE8	; 232
     ed8:	f3 e0       	ldi	r31, 0x03	; 3
     eda:	88 23       	and	r24, r24
     edc:	29 f0       	breq	.+10     	; 0xee8 <OpenProg+0x26>
     ede:	e5 df       	rcall	.-54     	; 0xeaa <GetProgAddr>
     ee0:	ea a3       	std	Y+34, r30	; 0x22
     ee2:	fb a3       	std	Y+35, r31	; 0x23
     ee4:	83 95       	inc	r24
     ee6:	e1 df       	rcall	.-62     	; 0xeaa <GetProgAddr>
     ee8:	ec a3       	std	Y+36, r30	; 0x24
     eea:	fd a3       	std	Y+37, r31	; 0x25
     eec:	08 95       	ret

00000eee <GetDispName>:
     eee:	e0 e5       	ldi	r30, 0x50	; 80
     ef0:	fe e0       	ldi	r31, 0x0E	; 14
     ef2:	8f 3f       	cpi	r24, 0xFF	; 255
     ef4:	69 f0       	breq	.+26     	; 0xf10 <GetDispName+0x22>
     ef6:	ee e4       	ldi	r30, 0x4E	; 78
     ef8:	fe e0       	ldi	r31, 0x0E	; 14
     efa:	80 3a       	cpi	r24, 0xA0	; 160
     efc:	48 f4       	brcc	.+18     	; 0xf10 <GetDispName+0x22>
     efe:	ea ee       	ldi	r30, 0xEA	; 234
     f00:	fb e0       	ldi	r31, 0x0B	; 11
     f02:	88 23       	and	r24, r24
     f04:	29 f0       	breq	.+10     	; 0xf10 <GetDispName+0x22>
     f06:	95 91       	lpm	r25, Z+
     f08:	99 23       	and	r25, r25
     f0a:	e9 f7       	brne	.-6      	; 0xf06 <GetDispName+0x18>
     f0c:	8a 95       	dec	r24
     f0e:	d9 f7       	brne	.-10     	; 0xf06 <GetDispName+0x18>
     f10:	08 95       	ret

00000f12 <LoadByte>:
     f12:	ef 93       	push	r30
     f14:	ff 93       	push	r31
     f16:	88 27       	eor	r24, r24
     f18:	ea a1       	ldd	r30, Y+34	; 0x22
     f1a:	fb a1       	ldd	r31, Y+35	; 0x23
     f1c:	ae 17       	cp	r26, r30
     f1e:	bf 07       	cpc	r27, r31
     f20:	80 f0       	brcs	.+32     	; 0xf42 <LoadByte+0x30>
     f22:	ec a1       	ldd	r30, Y+36	; 0x24
     f24:	fd a1       	ldd	r31, Y+37	; 0x25
     f26:	31 97       	sbiw	r30, 0x01	; 1
     f28:	ea 17       	cp	r30, r26
     f2a:	fb 07       	cpc	r31, r27
     f2c:	50 f0       	brcs	.+20     	; 0xf42 <LoadByte+0x30>
     f2e:	88 a1       	ldd	r24, Y+32	; 0x20
     f30:	88 23       	and	r24, r24
     f32:	19 f4       	brne	.+6      	; 0xf3a <LoadByte+0x28>
     f34:	56 de       	rcall	.-852    	; 0xbe2 <_EERead>
     f36:	11 96       	adiw	r26, 0x01	; 1
     f38:	03 c0       	rjmp	.+6      	; 0xf40 <LoadByte+0x2e>
     f3a:	fd 01       	movw	r30, r26
     f3c:	85 91       	lpm	r24, Z+
     f3e:	df 01       	movw	r26, r30
     f40:	88 94       	clc
     f42:	ff 91       	pop	r31
     f44:	ef 91       	pop	r30
     f46:	08 95       	ret

00000f48 <LoadPrg>:
     f48:	af 93       	push	r26
     f4a:	bf 93       	push	r27
     f4c:	ac 8d       	ldd	r26, Y+28	; 0x1c
     f4e:	bd 8d       	ldd	r27, Y+29	; 0x1d
     f50:	e0 df       	rcall	.-64     	; 0xf12 <LoadByte>
     f52:	ac 8f       	std	Y+28, r26	; 0x1c
     f54:	bd 8f       	std	Y+29, r27	; 0x1d
     f56:	08 f4       	brcc	.+2      	; 0xf5a <LoadPrg+0x12>
     f58:	f2 98       	cbi	0x1e, 2	; 30
     f5a:	bf 91       	pop	r27
     f5c:	af 91       	pop	r26
     f5e:	08 95       	ret

00000f60 <Bcd2Bin>:
     f60:	9f 93       	push	r25
     f62:	9a e0       	ldi	r25, 0x0A	; 10
     f64:	09 2e       	mov	r0, r25
     f66:	98 2f       	mov	r25, r24
     f68:	92 95       	swap	r25
     f6a:	9f 70       	andi	r25, 0x0F	; 15
     f6c:	90 9d       	mul	r25, r0
     f6e:	8f 70       	andi	r24, 0x0F	; 15
     f70:	80 0d       	add	r24, r0
     f72:	11 24       	eor	r1, r1
     f74:	9f 91       	pop	r25
     f76:	08 95       	ret

00000f78 <Bin2Bcd>:
     f78:	9f 93       	push	r25
     f7a:	7f 93       	push	r23
     f7c:	98 2f       	mov	r25, r24
     f7e:	0e 94 92 22 	call	0x4524	; 0x4524 <DivB10>
     f82:	7a e0       	ldi	r23, 0x0A	; 10
     f84:	78 9f       	mul	r23, r24
     f86:	90 19       	sub	r25, r0
     f88:	11 24       	eor	r1, r1
     f8a:	82 95       	swap	r24
     f8c:	89 2b       	or	r24, r25
     f8e:	7f 91       	pop	r23
     f90:	9f 91       	pop	r25
     f92:	08 95       	ret

00000f94 <LoadPrgInd>:
     f94:	d9 df       	rcall	.-78     	; 0xf48 <LoadPrg>
     f96:	80 34       	cpi	r24, 0x40	; 64
     f98:	08 94       	sec
     f9a:	59 f4       	brne	.+22     	; 0xfb2 <LoadPrgInd2+0x12>
     f9c:	d5 df       	rcall	.-86     	; 0xf48 <LoadPrg>
     f9e:	e0 df       	rcall	.-64     	; 0xf60 <Bcd2Bin>

00000fa0 <LoadPrgInd2>:
     fa0:	8e 36       	cpi	r24, 0x6E	; 110
     fa2:	10 f0       	brcs	.+4      	; 0xfa8 <LoadPrgInd2+0x8>
     fa4:	0c 94 ac 02 	jmp	0x558	; 0x558 <Fatal>
     fa8:	88 5f       	subi	r24, 0xF8	; 248
     faa:	8d d6       	rcall	.+3354   	; 0x1cc6 <_CalcGetMem>
     fac:	0e 94 59 2a 	call	0x54b2	; 0x54b2 <CalcUnstackB>
     fb0:	88 94       	clc
     fb2:	08 95       	ret

00000fb4 <StartInKey>:
     fb4:	ee d3       	rcall	.+2012   	; 0x1792 <FlagSetInKey>
     fb6:	ad d2       	rcall	.+1370   	; 0x1512 <DispFlags>
     fb8:	7f cc       	rjmp	.-1794   	; 0x8b8 <WaitKey>

00000fba <StopInKey>:
     fba:	1e d4       	rcall	.+2108   	; 0x17f8 <FlagClrInKey>
     fbc:	aa c2       	rjmp	.+1364   	; 0x1512 <DispFlags>

00000fbe <Load1Dig>:
     fbe:	f2 9b       	sbis	0x1e, 2	; 30
     fc0:	03 c0       	rjmp	.+6      	; 0xfc8 <Load1Dig+0xa>
     fc2:	e8 df       	rcall	.-48     	; 0xf94 <LoadPrgInd>
     fc4:	88 94       	clc
     fc6:	08 95       	ret
     fc8:	f5 df       	rcall	.-22     	; 0xfb4 <StartInKey>
     fca:	f7 df       	rcall	.-18     	; 0xfba <StopInKey>
     fcc:	80 31       	cpi	r24, 0x10	; 16
     fce:	48 f0       	brcs	.+18     	; 0xfe2 <Load1Dig2+0x12>

00000fd0 <Load1Dig2>:
     fd0:	80 34       	cpi	r24, 0x40	; 64
     fd2:	19 f4       	brne	.+6      	; 0xfda <Load1Dig2+0xa>
     fd4:	0e d0       	rcall	.+28     	; 0xff2 <Load2Dig2>
     fd6:	10 f0       	brcs	.+4      	; 0xfdc <Load1Dig2+0xc>
     fd8:	e3 cf       	rjmp	.-58     	; 0xfa0 <LoadPrgInd2>
     fda:	6c dc       	rcall	.-1832   	; 0x8b4 <ReturnKey>
     fdc:	88 27       	eor	r24, r24
     fde:	08 94       	sec
     fe0:	08 95       	ret
     fe2:	88 94       	clc
     fe4:	08 95       	ret

00000fe6 <Load2Dig>:
     fe6:	f2 9b       	sbis	0x1e, 2	; 30
     fe8:	04 c0       	rjmp	.+8      	; 0xff2 <Load2Dig2>
     fea:	ae df       	rcall	.-164    	; 0xf48 <LoadPrg>
     fec:	b9 df       	rcall	.-142    	; 0xf60 <Bcd2Bin>
     fee:	88 94       	clc
     ff0:	08 95       	ret

00000ff2 <Load2Dig2>:
     ff2:	e0 df       	rcall	.-64     	; 0xfb4 <StartInKey>
     ff4:	80 31       	cpi	r24, 0x10	; 16
     ff6:	10 f0       	brcs	.+4      	; 0xffc <Load2Dig2+0xa>
     ff8:	e0 df       	rcall	.-64     	; 0xfba <StopInKey>
     ffa:	ea cf       	rjmp	.-44     	; 0xfd0 <Load1Dig2>
     ffc:	8f 93       	push	r24
     ffe:	5c dc       	rcall	.-1864   	; 0x8b8 <WaitKey>
    1000:	dc df       	rcall	.-72     	; 0xfba <StopInKey>
    1002:	9f 91       	pop	r25
    1004:	80 31       	cpi	r24, 0x10	; 16
    1006:	20 f0       	brcs	.+8      	; 0x1010 <Load2Dig2+0x1e>
    1008:	55 dc       	rcall	.-1878   	; 0x8b4 <ReturnKey>
    100a:	89 2f       	mov	r24, r25
    100c:	88 94       	clc
    100e:	08 95       	ret
    1010:	ea e0       	ldi	r30, 0x0A	; 10
    1012:	e9 9f       	mul	r30, r25
    1014:	80 0d       	add	r24, r0
    1016:	11 24       	eor	r1, r1
    1018:	88 94       	clc
    101a:	08 95       	ret

0000101c <Load2Hex>:
    101c:	f2 99       	sbic	0x1e, 2	; 30
    101e:	94 cf       	rjmp	.-216    	; 0xf48 <LoadPrg>
    1020:	c9 df       	rcall	.-110    	; 0xfb4 <StartInKey>
    1022:	80 31       	cpi	r24, 0x10	; 16
    1024:	08 f0       	brcs	.+2      	; 0x1028 <Load2Hex+0xc>
    1026:	c9 cf       	rjmp	.-110    	; 0xfba <StopInKey>
    1028:	8f 93       	push	r24
    102a:	46 dc       	rcall	.-1908   	; 0x8b8 <WaitKey>
    102c:	c6 df       	rcall	.-116    	; 0xfba <StopInKey>
    102e:	9f 91       	pop	r25
    1030:	80 31       	cpi	r24, 0x10	; 16
    1032:	18 f0       	brcs	.+6      	; 0x103a <Load2Hex+0x1e>
    1034:	3f dc       	rcall	.-1922   	; 0x8b4 <ReturnKey>
    1036:	89 2f       	mov	r24, r25
    1038:	08 95       	ret
    103a:	92 95       	swap	r25
    103c:	89 2b       	or	r24, r25
    103e:	08 95       	ret

00001040 <LoadKeyLen>:
    1040:	ef 93       	push	r30
    1042:	ff 93       	push	r31
    1044:	80 3a       	cpi	r24, 0xA0	; 160
    1046:	08 f0       	brcs	.+2      	; 0x104a <LoadKeyLen+0xa>
    1048:	88 27       	eor	r24, r24
    104a:	8f 93       	push	r24
    104c:	ea e5       	ldi	r30, 0x5A	; 90
    104e:	fe e0       	ldi	r31, 0x0E	; 14
    1050:	86 95       	lsr	r24
    1052:	e8 0f       	add	r30, r24
    1054:	f1 1d       	adc	r31, r1
    1056:	84 91       	lpm	r24, Z+
    1058:	ef 91       	pop	r30
    105a:	e0 fd       	sbrc	r30, 0
    105c:	82 95       	swap	r24
    105e:	8f 70       	andi	r24, 0x0F	; 15
    1060:	ff 91       	pop	r31
    1062:	ef 91       	pop	r30
    1064:	08 95       	ret

00001066 <FindLab>:
    1066:	6f 93       	push	r22
    1068:	7f 93       	push	r23
    106a:	9f 93       	push	r25
    106c:	98 2f       	mov	r25, r24
    106e:	aa a1       	ldd	r26, Y+34	; 0x22
    1070:	bb a1       	ldd	r27, Y+35	; 0x23
    1072:	66 27       	eor	r22, r22
    1074:	4e df       	rcall	.-356    	; 0xf12 <LoadByte>
    1076:	90 f1       	brcs	.+100    	; 0x10dc <FindLab+0x76>
    1078:	82 32       	cpi	r24, 0x22	; 34
    107a:	11 f4       	brne	.+4      	; 0x1080 <FindLab+0x1a>
    107c:	61 e0       	ldi	r22, 0x01	; 1
    107e:	fa cf       	rjmp	.-12     	; 0x1074 <FindLab+0xe>
    1080:	88 35       	cpi	r24, 0x58	; 88
    1082:	11 f4       	brne	.+4      	; 0x1088 <FindLab+0x22>
    1084:	66 23       	and	r22, r22
    1086:	a9 f7       	brne	.-22     	; 0x1072 <FindLab+0xc>
    1088:	86 37       	cpi	r24, 0x76	; 118
    108a:	29 f4       	brne	.+10     	; 0x1096 <FindLab+0x30>
    108c:	42 df       	rcall	.-380    	; 0xf12 <LoadByte>
    108e:	30 f1       	brcs	.+76     	; 0x10dc <FindLab+0x76>
    1090:	89 17       	cp	r24, r25
    1092:	31 f1       	breq	.+76     	; 0x10e0 <FindLab+0x7a>
    1094:	ee cf       	rjmp	.-36     	; 0x1072 <FindLab+0xc>
    1096:	82 38       	cpi	r24, 0x82	; 130
    1098:	39 f4       	brne	.+14     	; 0x10a8 <FindLab+0x42>
    109a:	3b df       	rcall	.-394    	; 0xf12 <LoadByte>
    109c:	f8 f0       	brcs	.+62     	; 0x10dc <FindLab+0x76>
    109e:	11 97       	sbiw	r26, 0x01	; 1
    10a0:	80 3c       	cpi	r24, 0xC0	; 192
    10a2:	8a e0       	ldi	r24, 0x0A	; 10
    10a4:	10 f4       	brcc	.+4      	; 0x10aa <FindLab+0x44>
    10a6:	82 e8       	ldi	r24, 0x82	; 130
    10a8:	cb df       	rcall	.-106    	; 0x1040 <LoadKeyLen>
    10aa:	78 2f       	mov	r23, r24
    10ac:	72 ff       	sbrs	r23, 2
    10ae:	07 c0       	rjmp	.+14     	; 0x10be <FindLab+0x58>
    10b0:	7a 95       	dec	r23
    10b2:	2f df       	rcall	.-418    	; 0xf12 <LoadByte>
    10b4:	98 f0       	brcs	.+38     	; 0x10dc <FindLab+0x76>
    10b6:	80 34       	cpi	r24, 0x40	; 64
    10b8:	11 f4       	brne	.+4      	; 0x10be <FindLab+0x58>
    10ba:	2b df       	rcall	.-426    	; 0xf12 <LoadByte>
    10bc:	78 f0       	brcs	.+30     	; 0x10dc <FindLab+0x76>
    10be:	73 ff       	sbrs	r23, 3
    10c0:	09 c0       	rjmp	.+18     	; 0x10d4 <FindLab+0x6e>
    10c2:	7a 95       	dec	r23
    10c4:	26 df       	rcall	.-436    	; 0xf12 <LoadByte>
    10c6:	50 f0       	brcs	.+20     	; 0x10dc <FindLab+0x76>
    10c8:	80 34       	cpi	r24, 0x40	; 64
    10ca:	11 f0       	breq	.+4      	; 0x10d0 <FindLab+0x6a>
    10cc:	80 31       	cpi	r24, 0x10	; 16
    10ce:	10 f4       	brcc	.+4      	; 0x10d4 <FindLab+0x6e>
    10d0:	20 df       	rcall	.-448    	; 0xf12 <LoadByte>
    10d2:	20 f0       	brcs	.+8      	; 0x10dc <FindLab+0x76>
    10d4:	73 70       	andi	r23, 0x03	; 3
    10d6:	a7 0f       	add	r26, r23
    10d8:	b1 1d       	adc	r27, r1
    10da:	cb cf       	rjmp	.-106    	; 0x1072 <FindLab+0xc>
    10dc:	0c 94 ac 02 	jmp	0x558	; 0x558 <Fatal>
    10e0:	9f 91       	pop	r25
    10e2:	7f 91       	pop	r23
    10e4:	6f 91       	pop	r22
    10e6:	08 95       	ret

000010e8 <LoadAddr>:
    10e8:	f2 9b       	sbis	0x1e, 2	; 30
    10ea:	1d c0       	rjmp	.+58     	; 0x1126 <LoadAddr5>
    10ec:	2d df       	rcall	.-422    	; 0xf48 <LoadPrg>
    10ee:	80 31       	cpi	r24, 0x10	; 16
    10f0:	48 f4       	brcc	.+18     	; 0x1104 <LoadAddr+0x1c>
    10f2:	a4 e6       	ldi	r26, 0x64	; 100
    10f4:	8a 9f       	mul	r24, r26
    10f6:	d0 01       	movw	r26, r0
    10f8:	11 24       	eor	r1, r1
    10fa:	26 df       	rcall	.-436    	; 0xf48 <LoadPrg>
    10fc:	31 df       	rcall	.-414    	; 0xf60 <Bcd2Bin>
    10fe:	a8 0f       	add	r26, r24
    1100:	b1 1d       	adc	r27, r1
    1102:	08 95       	ret
    1104:	80 34       	cpi	r24, 0x40	; 64
    1106:	61 f4       	brne	.+24     	; 0x1120 <LoadAddr3>
    1108:	1f df       	rcall	.-450    	; 0xf48 <LoadPrg>
    110a:	2a df       	rcall	.-428    	; 0xf60 <Bcd2Bin>

0000110c <LoadAddr2>:
    110c:	8e 36       	cpi	r24, 0x6E	; 110
    110e:	10 f0       	brcs	.+4      	; 0x1114 <LoadAddr2+0x8>
    1110:	0c 94 ac 02 	jmp	0x558	; 0x558 <Fatal>
    1114:	88 5f       	subi	r24, 0xF8	; 248
    1116:	d7 d5       	rcall	.+2990   	; 0x1cc6 <_CalcGetMem>
    1118:	0e 94 40 2a 	call	0x5480	; 0x5480 <CalcUnstackW>
    111c:	dc 01       	movw	r26, r24
    111e:	08 95       	ret

00001120 <LoadAddr3>:
    1120:	b8 2f       	mov	r27, r24
    1122:	aa 27       	eor	r26, r26
    1124:	08 95       	ret

00001126 <LoadAddr5>:
    1126:	46 df       	rcall	.-372    	; 0xfb4 <StartInKey>
    1128:	8b 32       	cpi	r24, 0x2B	; 43
    112a:	11 f4       	brne	.+4      	; 0x1130 <LoadAddr5+0xa>
    112c:	0e 94 0e 08 	call	0x101c	; 0x101c <Load2Hex>
    1130:	80 31       	cpi	r24, 0x10	; 16
    1132:	28 f0       	brcs	.+10     	; 0x113e <LoadAddr5+0x18>
    1134:	42 df       	rcall	.-380    	; 0xfba <StopInKey>
    1136:	80 34       	cpi	r24, 0x40	; 64
    1138:	99 f7       	brne	.-26     	; 0x1120 <LoadAddr3>
    113a:	55 df       	rcall	.-342    	; 0xfe6 <Load2Dig>
    113c:	e7 cf       	rjmp	.-50     	; 0x110c <LoadAddr2>
    113e:	a8 2f       	mov	r26, r24
    1140:	bb db       	rcall	.-2186   	; 0x8b8 <WaitKey>
    1142:	80 31       	cpi	r24, 0x10	; 16
    1144:	20 f0       	brcs	.+8      	; 0x114e <LoadAddr5+0x28>
    1146:	39 df       	rcall	.-398    	; 0xfba <StopInKey>
    1148:	b5 db       	rcall	.-2198   	; 0x8b4 <ReturnKey>
    114a:	bb 27       	eor	r27, r27
    114c:	08 95       	ret
    114e:	ba e0       	ldi	r27, 0x0A	; 10
    1150:	ba 9f       	mul	r27, r26
    1152:	d0 01       	movw	r26, r0
    1154:	11 24       	eor	r1, r1
    1156:	a8 0f       	add	r26, r24
    1158:	af db       	rcall	.-2210   	; 0x8b8 <WaitKey>
    115a:	2f df       	rcall	.-418    	; 0xfba <StopInKey>
    115c:	80 31       	cpi	r24, 0x10	; 16
    115e:	a0 f7       	brcc	.-24     	; 0x1148 <LoadAddr5+0x22>
    1160:	ba e0       	ldi	r27, 0x0A	; 10
    1162:	ba 9f       	mul	r27, r26
    1164:	d0 01       	movw	r26, r0
    1166:	11 24       	eor	r1, r1
    1168:	a8 0f       	add	r26, r24
    116a:	b1 1d       	adc	r27, r1
    116c:	08 95       	ret

0000116e <Prog3Dig>:
    116e:	a8 2f       	mov	r26, r24
    1170:	0e 94 c3 22 	call	0x4586	; 0x4586 <DivW100>
    1174:	94 e6       	ldi	r25, 0x64	; 100
    1176:	98 9f       	mul	r25, r24
    1178:	a0 19       	sub	r26, r0
    117a:	11 24       	eor	r1, r1
    117c:	af 93       	push	r26
    117e:	02 d0       	rcall	.+4      	; 0x1184 <ProgKey>
    1180:	8f 91       	pop	r24

00001182 <Prog2Dig>:
    1182:	fa de       	rcall	.-524    	; 0xf78 <Bin2Bcd>

00001184 <ProgKey>:
    1184:	f3 9b       	sbis	0x1e, 3	; 30
    1186:	08 95       	ret
    1188:	98 a1       	ldd	r25, Y+32	; 0x20
    118a:	99 23       	and	r25, r25
    118c:	e1 f7       	brne	.-8      	; 0x1186 <ProgKey+0x2>
    118e:	ac 8d       	ldd	r26, Y+28	; 0x1c
    1190:	bd 8d       	ldd	r27, Y+29	; 0x1d
    1192:	93 e0       	ldi	r25, 0x03	; 3
    1194:	a8 3e       	cpi	r26, 0xE8	; 232
    1196:	b9 07       	cpc	r27, r25
    1198:	b0 f7       	brcc	.-20     	; 0x1186 <ProgKey+0x2>
    119a:	98 2f       	mov	r25, r24
    119c:	24 dd       	rcall	.-1464   	; 0xbe6 <_EEWrite>
    119e:	11 96       	adiw	r26, 0x01	; 1
    11a0:	ac 8f       	std	Y+28, r26	; 0x1c
    11a2:	bd 8f       	std	Y+29, r27	; 0x1d
    11a4:	52 c2       	rjmp	.+1188   	; 0x164a <Disp>

000011a6 <ExecLrn>:
    11a6:	f2 99       	sbic	0x1e, 2	; 30
    11a8:	08 95       	ret
    11aa:	f3 99       	sbic	0x1e, 3	; 30
    11ac:	02 c0       	rjmp	.+4      	; 0x11b2 <ExecLrn+0xc>
    11ae:	f3 9a       	sbi	0x1e, 3	; 30
    11b0:	01 c0       	rjmp	.+2      	; 0x11b4 <ExecLrn+0xe>
    11b2:	f3 98       	cbi	0x1e, 3	; 30
    11b4:	4a c2       	rjmp	.+1172   	; 0x164a <Disp>

000011b6 <ExecSst>:
    11b6:	f2 99       	sbic	0x1e, 2	; 30
    11b8:	08 95       	ret
    11ba:	77 23       	and	r23, r23
    11bc:	11 f0       	breq	.+4      	; 0x11c2 <ExecSst+0xc>
    11be:	f3 9b       	sbis	0x1e, 3	; 30
    11c0:	d0 d2       	rcall	.+1440   	; 0x1762 <FlagSetInv>
    11c2:	c2 de       	rcall	.-636    	; 0xf48 <LoadPrg>
    11c4:	f3 99       	sbic	0x1e, 3	; 30
    11c6:	08 c0       	rjmp	.+16     	; 0x11d8 <ExecSst+0x22>
    11c8:	8f 93       	push	r24
    11ca:	0e 94 98 13 	call	0x2730	; 0x2730 <StartProg>
    11ce:	8f 91       	pop	r24
    11d0:	0e 94 a1 14 	call	0x2942	; 0x2942 <Exec>
    11d4:	0e 94 c1 11 	call	0x2382	; 0x2382 <StopProg>
    11d8:	38 c2       	rjmp	.+1136   	; 0x164a <Disp>

000011da <LimitGetAddr>:
    11da:	ac 8d       	ldd	r26, Y+28	; 0x1c
    11dc:	bd 8d       	ldd	r27, Y+29	; 0x1d

000011de <LimitAddr>:
    11de:	93 e0       	ldi	r25, 0x03	; 3
    11e0:	a8 3e       	cpi	r26, 0xE8	; 232
    11e2:	b9 07       	cpc	r27, r25
    11e4:	10 f0       	brcs	.+4      	; 0x11ea <LimitAddr+0xc>
    11e6:	a7 ee       	ldi	r26, 0xE7	; 231
    11e8:	b3 e0       	ldi	r27, 0x03	; 3
    11ea:	08 95       	ret

000011ec <ExecIns>:
    11ec:	f2 99       	sbic	0x1e, 2	; 30
    11ee:	08 95       	ret
    11f0:	f3 9b       	sbis	0x1e, 3	; 30
    11f2:	08 95       	ret
    11f4:	98 a1       	ldd	r25, Y+32	; 0x20
    11f6:	99 23       	and	r25, r25
    11f8:	e1 f7       	brne	.-8      	; 0x11f2 <ExecIns+0x6>
    11fa:	ef df       	rcall	.-34     	; 0x11da <LimitGetAddr>
    11fc:	f2 dc       	rcall	.-1564   	; 0xbe2 <_EERead>
    11fe:	8f 3f       	cpi	r24, 0xFF	; 255
    1200:	31 f4       	brne	.+12     	; 0x120e <ExecIns+0x22>
    1202:	11 96       	adiw	r26, 0x01	; 1
    1204:	83 e0       	ldi	r24, 0x03	; 3
    1206:	a8 3e       	cpi	r26, 0xE8	; 232
    1208:	b8 07       	cpc	r27, r24
    120a:	c1 f7       	brne	.-16     	; 0x11fc <ExecIns+0x10>
    120c:	f2 cf       	rjmp	.-28     	; 0x11f2 <ExecIns+0x6>
    120e:	9f ef       	ldi	r25, 0xFF	; 255
    1210:	ea dc       	rcall	.-1580   	; 0xbe6 <_EEWrite>
    1212:	98 2f       	mov	r25, r24
    1214:	8f 3f       	cpi	r24, 0xFF	; 255
    1216:	29 f0       	breq	.+10     	; 0x1222 <ExecIns+0x36>
    1218:	11 96       	adiw	r26, 0x01	; 1
    121a:	83 e0       	ldi	r24, 0x03	; 3
    121c:	a8 3e       	cpi	r26, 0xE8	; 232
    121e:	b8 07       	cpc	r27, r24
    1220:	b9 f7       	brne	.-18     	; 0x1210 <ExecIns+0x24>
    1222:	13 c2       	rjmp	.+1062   	; 0x164a <Disp>

00001224 <ExecBst>:
    1224:	f2 99       	sbic	0x1e, 2	; 30
    1226:	08 95       	ret
    1228:	f3 9b       	sbis	0x1e, 3	; 30
    122a:	08 95       	ret
    122c:	ac 8d       	ldd	r26, Y+28	; 0x1c
    122e:	bd 8d       	ldd	r27, Y+29	; 0x1d
    1230:	8a a1       	ldd	r24, Y+34	; 0x22
    1232:	a8 17       	cp	r26, r24
    1234:	8b a1       	ldd	r24, Y+35	; 0x23
    1236:	b8 07       	cpc	r27, r24
    1238:	c1 f3       	breq	.-16     	; 0x122a <ExecBst+0x6>
    123a:	11 97       	sbiw	r26, 0x01	; 1
    123c:	ac 8f       	std	Y+28, r26	; 0x1c
    123e:	bd 8f       	std	Y+29, r27	; 0x1d
    1240:	04 c2       	rjmp	.+1032   	; 0x164a <Disp>

00001242 <ExecDel>:
    1242:	f2 99       	sbic	0x1e, 2	; 30
    1244:	08 95       	ret
    1246:	f3 9b       	sbis	0x1e, 3	; 30
    1248:	08 95       	ret
    124a:	98 a1       	ldd	r25, Y+32	; 0x20
    124c:	99 23       	and	r25, r25
    124e:	e1 f7       	brne	.-8      	; 0x1248 <ExecDel+0x6>
    1250:	c4 df       	rcall	.-120    	; 0x11da <LimitGetAddr>
    1252:	fd 01       	movw	r30, r26
    1254:	c6 dc       	rcall	.-1652   	; 0xbe2 <_EERead>
    1256:	8f 3f       	cpi	r24, 0xFF	; 255
    1258:	31 f4       	brne	.+12     	; 0x1266 <ExecDel+0x24>
    125a:	11 96       	adiw	r26, 0x01	; 1
    125c:	83 e0       	ldi	r24, 0x03	; 3
    125e:	a8 3e       	cpi	r26, 0xE8	; 232
    1260:	b8 07       	cpc	r27, r24
    1262:	c1 f7       	brne	.-16     	; 0x1254 <ExecDel+0x12>
    1264:	f1 cf       	rjmp	.-30     	; 0x1248 <ExecDel+0x6>
    1266:	ae 17       	cp	r26, r30
    1268:	bf 07       	cpc	r27, r31
    126a:	11 f0       	breq	.+4      	; 0x1270 <ExecDel+0x2e>
    126c:	fd 01       	movw	r30, r26
    126e:	31 97       	sbiw	r30, 0x01	; 1
    1270:	b8 dc       	rcall	.-1680   	; 0xbe2 <_EERead>
    1272:	8f 3f       	cpi	r24, 0xFF	; 255
    1274:	31 f0       	breq	.+12     	; 0x1282 <ExecDel+0x40>
    1276:	11 96       	adiw	r26, 0x01	; 1
    1278:	83 e0       	ldi	r24, 0x03	; 3
    127a:	a8 3e       	cpi	r26, 0xE8	; 232
    127c:	b8 07       	cpc	r27, r24
    127e:	c1 f7       	brne	.-16     	; 0x1270 <ExecDel+0x2e>
    1280:	11 97       	sbiw	r26, 0x01	; 1
    1282:	9f ef       	ldi	r25, 0xFF	; 255
    1284:	b0 dc       	rcall	.-1696   	; 0xbe6 <_EEWrite>
    1286:	98 2f       	mov	r25, r24
    1288:	11 97       	sbiw	r26, 0x01	; 1
    128a:	ae 17       	cp	r26, r30
    128c:	bf 07       	cpc	r27, r31
    128e:	d2 f7       	brpl	.-12     	; 0x1284 <ExecDel+0x42>
    1290:	dc c1       	rjmp	.+952    	; 0x164a <Disp>

00001292 <WaitInd>:
    1292:	12 db       	rcall	.-2524   	; 0x8b8 <WaitKey>
    1294:	80 34       	cpi	r24, 0x40	; 64
    1296:	11 f0       	breq	.+4      	; 0x129c <WaitInd9>
    1298:	0d db       	rcall	.-2534   	; 0x8b4 <ReturnKey>
    129a:	08 94       	sec

0000129c <WaitInd9>:
    129c:	08 95       	ret

0000129e <Program>:
    129e:	77 27       	eor	r23, r23
    12a0:	c6 d2       	rcall	.+1420   	; 0x182e <FlagTestInv>
    12a2:	11 f0       	breq	.+4      	; 0x12a8 <Program+0xa>
    12a4:	91 d2       	rcall	.+1314   	; 0x17c8 <FlagClrInv>
    12a6:	71 e0       	ldi	r23, 0x01	; 1
    12a8:	81 33       	cpi	r24, 0x31	; 49
    12aa:	09 f4       	brne	.+2      	; 0x12ae <Program+0x10>
    12ac:	7c cf       	rjmp	.-264    	; 0x11a6 <ExecLrn>
    12ae:	81 34       	cpi	r24, 0x41	; 65
    12b0:	09 f4       	brne	.+2      	; 0x12b4 <Program+0x16>
    12b2:	81 cf       	rjmp	.-254    	; 0x11b6 <ExecSst>
    12b4:	81 35       	cpi	r24, 0x51	; 81
    12b6:	09 f4       	brne	.+2      	; 0x12ba <ProgramMain>
    12b8:	b5 cf       	rjmp	.-150    	; 0x1224 <ExecBst>

000012ba <ProgramMain>:
    12ba:	98 a1       	ldd	r25, Y+32	; 0x20
    12bc:	99 23       	and	r25, r25
    12be:	71 f7       	brne	.-36     	; 0x129c <WaitInd9>
    12c0:	82 32       	cpi	r24, 0x22	; 34
    12c2:	21 f4       	brne	.+8      	; 0x12cc <ProgramMain+0x12>
    12c4:	77 23       	and	r23, r23
    12c6:	09 f4       	brne	.+2      	; 0x12ca <ProgramMain+0x10>
    12c8:	4c d2       	rcall	.+1176   	; 0x1762 <FlagSetInv>
    12ca:	0d c0       	rjmp	.+26     	; 0x12e6 <ProgProgKey>
    12cc:	86 34       	cpi	r24, 0x46	; 70
    12ce:	09 f4       	brne	.+2      	; 0x12d2 <ProgramMain+0x18>
    12d0:	8d cf       	rjmp	.-230    	; 0x11ec <ExecIns>
    12d2:	86 35       	cpi	r24, 0x56	; 86
    12d4:	09 f4       	brne	.+2      	; 0x12d8 <ProgramMain+0x1e>
    12d6:	b5 cf       	rjmp	.-150    	; 0x1242 <ExecDel>
    12d8:	8b 32       	cpi	r24, 0x2B	; 43
    12da:	09 f4       	brne	.+2      	; 0x12de <ProgramMain+0x24>
    12dc:	51 c5       	rjmp	.+2722   	; 0x1d80 <ExecCode>
    12de:	86 37       	cpi	r24, 0x76	; 118
    12e0:	21 f4       	brne	.+8      	; 0x12ea <ProgramFix>
    12e2:	50 df       	rcall	.-352    	; 0x1184 <ProgKey>
    12e4:	e9 da       	rcall	.-2606   	; 0x8b8 <WaitKey>

000012e6 <ProgProgKey>:
    12e6:	4e df       	rcall	.-356    	; 0x1184 <ProgKey>
    12e8:	b0 c1       	rjmp	.+864    	; 0x164a <Disp>

000012ea <ProgramFix>:
    12ea:	8a 37       	cpi	r24, 0x7A	; 122
    12ec:	71 f4       	brne	.+28     	; 0x130a <ProgramSbr>
    12ee:	77 23       	and	r23, r23
    12f0:	61 f0       	breq	.+24     	; 0x130a <ProgramSbr>
    12f2:	ac 8d       	ldd	r26, Y+28	; 0x1c
    12f4:	bd 8d       	ldd	r27, Y+29	; 0x1d
    12f6:	11 97       	sbiw	r26, 0x01	; 1
    12f8:	42 f0       	brmi	.+16     	; 0x130a <ProgramSbr>
    12fa:	73 dc       	rcall	.-1818   	; 0xbe2 <_EERead>
    12fc:	82 32       	cpi	r24, 0x22	; 34
    12fe:	21 f4       	brne	.+8      	; 0x1308 <ProgramFix+0x1e>
    1300:	9d e6       	ldi	r25, 0x6D	; 109
    1302:	71 dc       	rcall	.-1822   	; 0xbe6 <_EEWrite>
    1304:	a2 d1       	rcall	.+836    	; 0x164a <Disp>
    1306:	2a c0       	rjmp	.+84     	; 0x135c <ProgramIfPar>
    1308:	8a e7       	ldi	r24, 0x7A	; 122

0000130a <ProgramSbr>:
    130a:	81 37       	cpi	r24, 0x71	; 113
    130c:	69 f4       	brne	.+26     	; 0x1328 <ProgramProg>
    130e:	77 23       	and	r23, r23
    1310:	59 f0       	breq	.+22     	; 0x1328 <ProgramProg>
    1312:	ac 8d       	ldd	r26, Y+28	; 0x1c
    1314:	bd 8d       	ldd	r27, Y+29	; 0x1d
    1316:	11 97       	sbiw	r26, 0x01	; 1
    1318:	3a f0       	brmi	.+14     	; 0x1328 <ProgramProg>
    131a:	63 dc       	rcall	.-1850   	; 0xbe2 <_EERead>
    131c:	82 32       	cpi	r24, 0x22	; 34
    131e:	19 f4       	brne	.+6      	; 0x1326 <ProgramSbr+0x1c>
    1320:	92 e9       	ldi	r25, 0x92	; 146
    1322:	61 dc       	rcall	.-1854   	; 0xbe6 <_EEWrite>
    1324:	92 c1       	rjmp	.+804    	; 0x164a <Disp>
    1326:	81 e7       	ldi	r24, 0x71	; 113

00001328 <ProgramProg>:
    1328:	8f 93       	push	r24
    132a:	2c df       	rcall	.-424    	; 0x1184 <ProgKey>
    132c:	8f 91       	pop	r24
    132e:	64 e8       	ldi	r22, 0x84	; 132
    1330:	89 36       	cpi	r24, 0x69	; 105
    1332:	29 f4       	brne	.+10     	; 0x133e <ProgramProg+0x16>
    1334:	ae df       	rcall	.-164    	; 0x1292 <WaitInd>
    1336:	38 f4       	brcc	.+14     	; 0x1346 <ProgramSubst2>
    1338:	71 de       	rcall	.-798    	; 0x101c <Load2Hex>
    133a:	24 df       	rcall	.-440    	; 0x1184 <ProgKey>
    133c:	86 c1       	rjmp	.+780    	; 0x164a <Disp>
    133e:	67 e2       	ldi	r22, 0x27	; 39
    1340:	82 38       	cpi	r24, 0x82	; 130
    1342:	51 f4       	brne	.+20     	; 0x1358 <ProgramIf2>
    1344:	a6 df       	rcall	.-180    	; 0x1292 <WaitInd>

00001346 <ProgramSubst2>:
    1346:	d0 f5       	brcc	.+116    	; 0x13bc <ProgramSubst>
    1348:	69 de       	rcall	.-814    	; 0x101c <Load2Hex>
    134a:	8f 93       	push	r24
    134c:	1b df       	rcall	.-458    	; 0x1184 <ProgKey>
    134e:	8f 91       	pop	r24
    1350:	80 3c       	cpi	r24, 0xC0	; 192
    1352:	08 f0       	brcs	.+2      	; 0x1356 <ProgramSubst2+0x10>
    1354:	4f c0       	rjmp	.+158    	; 0x13f4 <ProgramAddr>
    1356:	79 c1       	rjmp	.+754    	; 0x164a <Disp>

00001358 <ProgramIf2>:
    1358:	8a 37       	cpi	r24, 0x7A	; 122
    135a:	31 f4       	brne	.+12     	; 0x1368 <ProgramReg>

0000135c <ProgramIfPar>:
    135c:	5f de       	rcall	.-834    	; 0x101c <Load2Hex>
    135e:	12 df       	rcall	.-476    	; 0x1184 <ProgKey>
    1360:	74 d1       	rcall	.+744    	; 0x164a <Disp>
    1362:	41 de       	rcall	.-894    	; 0xfe6 <Load2Dig>
    1364:	0e df       	rcall	.-484    	; 0x1182 <Prog2Dig>
    1366:	46 c0       	rjmp	.+140    	; 0x13f4 <ProgramAddr>

00001368 <ProgramReg>:
    1368:	8a 38       	cpi	r24, 0x8A	; 138
    136a:	61 f4       	brne	.+24     	; 0x1384 <ProgramRel>
    136c:	57 de       	rcall	.-850    	; 0x101c <Load2Hex>
    136e:	0a df       	rcall	.-492    	; 0x1184 <ProgKey>
    1370:	6c d1       	rcall	.+728    	; 0x164a <Disp>
    1372:	8f df       	rcall	.-226    	; 0x1292 <WaitInd>
    1374:	48 f0       	brcs	.+18     	; 0x1388 <Program2Dig>
    1376:	ac 8d       	ldd	r26, Y+28	; 0x1c
    1378:	bd 8d       	ldd	r27, Y+29	; 0x1d
    137a:	12 97       	sbiw	r26, 0x02	; 2
    137c:	9c e6       	ldi	r25, 0x6C	; 108
    137e:	33 dc       	rcall	.-1946   	; 0xbe6 <_EEWrite>
    1380:	64 d1       	rcall	.+712    	; 0x164a <Disp>
    1382:	02 c0       	rjmp	.+4      	; 0x1388 <Program2Dig>

00001384 <ProgramRel>:
    1384:	8a 36       	cpi	r24, 0x6A	; 106
    1386:	19 f4       	brne	.+6      	; 0x138e <ProgramInd>

00001388 <Program2Dig>:
    1388:	2e de       	rcall	.-932    	; 0xfe6 <Load2Dig>
    138a:	fb de       	rcall	.-522    	; 0x1182 <Prog2Dig>
    138c:	5e c1       	rjmp	.+700    	; 0x164a <Disp>

0000138e <ProgramInd>:
    138e:	62 e6       	ldi	r22, 0x62	; 98
    1390:	86 33       	cpi	r24, 0x36	; 54
    1392:	91 f0       	breq	.+36     	; 0x13b8 <ProgramInd+0x2a>
    1394:	62 e7       	ldi	r22, 0x72	; 114
    1396:	82 34       	cpi	r24, 0x42	; 66
    1398:	79 f0       	breq	.+30     	; 0x13b8 <ProgramInd+0x2a>
    139a:	63 e7       	ldi	r22, 0x73	; 115
    139c:	83 34       	cpi	r24, 0x43	; 67
    139e:	61 f0       	breq	.+24     	; 0x13b8 <ProgramInd+0x2a>
    13a0:	64 e7       	ldi	r22, 0x74	; 116
    13a2:	84 34       	cpi	r24, 0x44	; 68
    13a4:	49 f0       	breq	.+18     	; 0x13b8 <ProgramInd+0x2a>
    13a6:	63 e6       	ldi	r22, 0x63	; 99
    13a8:	88 34       	cpi	r24, 0x48	; 72
    13aa:	31 f0       	breq	.+12     	; 0x13b8 <ProgramInd+0x2a>
    13ac:	64 e6       	ldi	r22, 0x64	; 100
    13ae:	89 34       	cpi	r24, 0x49	; 73
    13b0:	19 f0       	breq	.+6      	; 0x13b8 <ProgramInd+0x2a>
    13b2:	6b e6       	ldi	r22, 0x6B	; 107
    13b4:	8c 39       	cpi	r24, 0x9C	; 156
    13b6:	49 f4       	brne	.+18     	; 0x13ca <Program3Dig>
    13b8:	6c df       	rcall	.-296    	; 0x1292 <WaitInd>
    13ba:	30 f3       	brcs	.-52     	; 0x1388 <Program2Dig>

000013bc <ProgramSubst>:
    13bc:	96 2f       	mov	r25, r22
    13be:	ac 8d       	ldd	r26, Y+28	; 0x1c
    13c0:	bd 8d       	ldd	r27, Y+29	; 0x1d
    13c2:	11 97       	sbiw	r26, 0x01	; 1
    13c4:	10 dc       	rcall	.-2016   	; 0xbe6 <_EEWrite>
    13c6:	41 d1       	rcall	.+642    	; 0x164a <Disp>
    13c8:	df cf       	rjmp	.-66     	; 0x1388 <Program2Dig>

000013ca <Program3Dig>:
    13ca:	63 e8       	ldi	r22, 0x83	; 131
    13cc:	81 36       	cpi	r24, 0x61	; 97
    13ce:	19 f0       	breq	.+6      	; 0x13d6 <Program3Dig+0xc>
    13d0:	66 e2       	ldi	r22, 0x26	; 38
    13d2:	81 37       	cpi	r24, 0x71	; 113
    13d4:	59 f4       	brne	.+22     	; 0x13ec <Program3DigLab>
    13d6:	5d df       	rcall	.-326    	; 0x1292 <WaitInd>
    13d8:	88 f7       	brcc	.-30     	; 0x13bc <ProgramSubst>

000013da <ProgramLab>:
    13da:	6e da       	rcall	.-2852   	; 0x8b8 <WaitKey>
    13dc:	80 31       	cpi	r24, 0x10	; 16
    13de:	08 f0       	brcs	.+2      	; 0x13e2 <ProgramLab+0x8>
    13e0:	82 cf       	rjmp	.-252    	; 0x12e6 <ProgProgKey>
    13e2:	68 da       	rcall	.-2864   	; 0x8b4 <ReturnKey>
    13e4:	81 de       	rcall	.-766    	; 0x10e8 <LoadAddr>
    13e6:	cd 01       	movw	r24, r26
    13e8:	c2 de       	rcall	.-636    	; 0x116e <Prog3Dig>
    13ea:	2f c1       	rjmp	.+606    	; 0x164a <Disp>

000013ec <Program3DigLab>:
    13ec:	87 36       	cpi	r24, 0x67	; 103
    13ee:	11 f0       	breq	.+4      	; 0x13f4 <ProgramAddr>
    13f0:	87 37       	cpi	r24, 0x77	; 119
    13f2:	21 f4       	brne	.+8      	; 0x13fc <ProgramDsz>

000013f4 <ProgramAddr>:
    13f4:	4e df       	rcall	.-356    	; 0x1292 <WaitInd>
    13f6:	88 f3       	brcs	.-30     	; 0x13da <ProgramLab>
    13f8:	c5 de       	rcall	.-630    	; 0x1184 <ProgKey>
    13fa:	c6 cf       	rjmp	.-116    	; 0x1388 <Program2Dig>

000013fc <ProgramDsz>:
    13fc:	87 38       	cpi	r24, 0x87	; 135
    13fe:	11 f0       	breq	.+4      	; 0x1404 <ProgramDsz+0x8>
    1400:	87 39       	cpi	r24, 0x97	; 151
    1402:	11 f4       	brne	.+4      	; 0x1408 <ProgramStf>
    1404:	03 d0       	rcall	.+6      	; 0x140c <Program1Dig>
    1406:	f6 cf       	rjmp	.-20     	; 0x13f4 <ProgramAddr>

00001408 <ProgramStf>:
    1408:	86 38       	cpi	r24, 0x86	; 134
    140a:	49 f4       	brne	.+18     	; 0x141e <ProgramRet>

0000140c <Program1Dig>:
    140c:	42 df       	rcall	.-380    	; 0x1292 <WaitInd>
    140e:	20 f0       	brcs	.+8      	; 0x1418 <Program1Dig+0xc>
    1410:	b9 de       	rcall	.-654    	; 0x1184 <ProgKey>
    1412:	e9 dd       	rcall	.-1070   	; 0xfe6 <Load2Dig>
    1414:	b6 de       	rcall	.-660    	; 0x1182 <Prog2Dig>
    1416:	19 c1       	rjmp	.+562    	; 0x164a <Disp>
    1418:	d2 dd       	rcall	.-1116   	; 0xfbe <Load1Dig>
    141a:	b4 de       	rcall	.-664    	; 0x1184 <ProgKey>
    141c:	16 c1       	rjmp	.+556    	; 0x164a <Disp>

0000141e <ProgramRet>:
    141e:	08 95       	ret

00001420 <__vector_5>:
    1420:	8f 93       	push	r24
    1422:	80 e0       	ldi	r24, 0x00	; 0
    1424:	80 93 53 00 	sts	0x0053, r24
    1428:	80 93 68 00 	sts	0x0068, r24
    142c:	80 93 6d 00 	sts	0x006D, r24
    1430:	86 ec       	ldi	r24, 0xC6	; 198
    1432:	80 93 64 00 	sts	0x0064, r24
    1436:	8f 91       	pop	r24
    1438:	18 95       	reti

0000143a <GoSleep>:
    143a:	f3 98       	cbi	0x1e, 3	; 30
    143c:	f2 99       	sbic	0x1e, 2	; 30
    143e:	a1 d7       	rcall	.+3906   	; 0x2382 <StopProg>
    1440:	8e 81       	ldd	r24, Y+6	; 0x06
    1442:	8f 3f       	cpi	r24, 0xFF	; 255
    1444:	e9 f7       	brne	.-6      	; 0x1440 <GoSleep+0x6>
    1446:	0e 94 1a 04 	call	0x834	; 0x834 <KEY_Term>
    144a:	14 bc       	out	0x24, r1	; 36
    144c:	15 bc       	out	0x25, r1	; 37
    144e:	84 e0       	ldi	r24, 0x04	; 4
    1450:	80 93 68 00 	sts	0x0068, r24
    1454:	80 e8       	ldi	r24, 0x80	; 128
    1456:	80 93 6d 00 	sts	0x006D, r24
    145a:	15 b8       	out	0x05, r1	; 5
    145c:	14 b8       	out	0x04, r1	; 4
    145e:	18 b8       	out	0x08, r1	; 8
    1460:	88 e0       	ldi	r24, 0x08	; 8
    1462:	87 b9       	out	0x07, r24	; 7
    1464:	80 e8       	ldi	r24, 0x80	; 128
    1466:	8b b9       	out	0x0b, r24	; 11
    1468:	1a b8       	out	0x0a, r1	; 10
    146a:	80 e6       	ldi	r24, 0x60	; 96
    146c:	90 e4       	ldi	r25, 0x40	; 64
    146e:	80 93 55 00 	sts	0x0055, r24
    1472:	90 93 55 00 	sts	0x0055, r25
    1476:	8f ee       	ldi	r24, 0xEF	; 239
    1478:	80 93 64 00 	sts	0x0064, r24
    147c:	81 e0       	ldi	r24, 0x01	; 1
    147e:	80 93 53 00 	sts	0x0053, r24
    1482:	85 e0       	ldi	r24, 0x05	; 5
    1484:	80 93 53 00 	sts	0x0053, r24
    1488:	78 94       	sei
    148a:	88 95       	sleep
    148c:	f8 94       	cli
    148e:	87 ec       	ldi	r24, 0xC7	; 199
    1490:	80 93 64 00 	sts	0x0064, r24
    1494:	10 92 53 00 	sts	0x0053, r1
    1498:	10 92 68 00 	sts	0x0068, r1
    149c:	10 92 6d 00 	sts	0x006D, r1
    14a0:	8f ef       	ldi	r24, 0xFF	; 255
    14a2:	98 e0       	ldi	r25, 0x08	; 8
    14a4:	9e bf       	out	0x3e, r25	; 62
    14a6:	8d bf       	out	0x3d, r24	; 61
    14a8:	0e 94 9d 02 	call	0x53a	; 0x53a <PortInit>
    14ac:	34 d9       	rcall	.-3480   	; 0x716 <Wait250ms>
    14ae:	0a db       	rcall	.-2540   	; 0xac4 <LCD_Restore>
    14b0:	0e 94 01 04 	call	0x802	; 0x802 <KEY_Init>
    14b4:	78 94       	sei
    14b6:	0e 94 25 0b 	call	0x164a	; 0x164a <Disp>
    14ba:	28 d9       	rcall	.-3504   	; 0x70c <Wait100ms>
    14bc:	8e 81       	ldd	r24, Y+6	; 0x06
    14be:	8f 3f       	cpi	r24, 0xFF	; 255
    14c0:	e9 f7       	brne	.-6      	; 0x14bc <GoSleep+0x82>
    14c2:	89 87       	std	Y+9, r24	; 0x09
    14c4:	88 87       	std	Y+8, r24	; 0x08
    14c6:	0c 94 29 03 	jmp	0x652	; 0x652 <Restart>

000014ca <_PushAll>:
    14ca:	0c 94 8b 29 	jmp	0x5316	; 0x5316 <PushAll>

000014ce <_PopAll>:
    14ce:	0c 94 ab 29 	jmp	0x5356	; 0x5356 <PopAll>

000014d2 <TextDeg>:
    14d2:	44 65       	ori	r20, 0x54	; 84
    14d4:	67 00       	.word	0x0067	; ????

000014d6 <TextRad>:
    14d6:	52 61       	ori	r21, 0x12	; 18
    14d8:	64 00       	.word	0x0064	; ????

000014da <TextGrd>:
    14da:	47 72       	andi	r20, 0x27	; 39
    14dc:	64 00       	.word	0x0064	; ????

000014de <TextBin>:
    14de:	42 69       	ori	r20, 0x92	; 146
    14e0:	6e 00       	.word	0x006e	; ????

000014e2 <TextOct>:
    14e2:	4f 63       	ori	r20, 0x3F	; 63
    14e4:	74 00       	.word	0x0074	; ????

000014e6 <TextHex>:
    14e6:	48 65       	ori	r20, 0x58	; 88
    14e8:	78 00       	.word	0x0078	; ????

000014ea <TextEE>:
    14ea:	20 45       	sbci	r18, 0x50	; 80
    14ec:	45 00       	.word	0x0045	; ????

000014ee <TextEng>:
    14ee:	45 6e       	ori	r20, 0xE5	; 229
    14f0:	67 00       	.word	0x0067	; ????

000014f2 <Text2nd>:
    14f2:	32 6e       	ori	r19, 0xE2	; 226
	...

000014f6 <Text3rd>:
    14f6:	33 64       	ori	r19, 0x43	; 67
	...

000014fa <TextInv>:
    14fa:	49 6e       	ori	r20, 0xE9	; 233
	...

000014fe <Text3spc>:
    14fe:	20 20       	and	r2, r0
    1500:	20 00       	.word	0x0020	; ????

00001502 <OperTab>:
    1502:	20 2b       	or	r18, r16
    1504:	2d 26       	eor	r2, r29
    1506:	7c 02       	muls	r23, r28
    1508:	2a 3a       	cpi	r18, 0xAA	; 170
    150a:	01 2f       	mov	r16, r17
    150c:	25 3c       	cpi	r18, 0xC5	; 197
    150e:	3e 5e       	subi	r19, 0xEE	; 238
    1510:	04 20       	and	r0, r4

00001512 <DispFlags>:
    1512:	f2 99       	sbic	0x1e, 2	; 30
    1514:	08 95       	ret
    1516:	f3 99       	sbic	0x1e, 3	; 30
    1518:	08 95       	ret

0000151a <DispFlags2>:
    151a:	b1 d1       	rcall	.+866    	; 0x187e <FlagTestDebug>
    151c:	e9 f7       	brne	.-6      	; 0x1518 <DispFlags+0x6>
    151e:	b8 d1       	rcall	.+880    	; 0x1890 <FlagTestDispText>
    1520:	59 f0       	breq	.+22     	; 0x1538 <DispFlags2+0x1e>
    1522:	8f 93       	push	r24
    1524:	ef 93       	push	r30
    1526:	ff 93       	push	r31
    1528:	2b db       	rcall	.-2474   	; 0xb80 <DispSetRow1>
    152a:	e0 ef       	ldi	r30, 0xF0	; 240
    152c:	f6 e0       	ldi	r31, 0x06	; 6
    152e:	34 db       	rcall	.-2456   	; 0xb98 <DispTextRam>
    1530:	ff 91       	pop	r31
    1532:	ef 91       	pop	r30
    1534:	8f 91       	pop	r24
    1536:	08 95       	ret
    1538:	a8 d1       	rcall	.+848    	; 0x188a <FlagTestDispRegT>
    153a:	69 f0       	breq	.+26     	; 0x1556 <DispFlags2+0x3c>
    153c:	c6 df       	rcall	.-116    	; 0x14ca <_PushAll>
    153e:	f7 d1       	rcall	.+1006   	; 0x192e <PushTempEdit>
    1540:	86 e0       	ldi	r24, 0x06	; 6
    1542:	c1 d3       	rcall	.+1922   	; 0x1cc6 <_CalcGetMem>
    1544:	0e 94 0e 20 	call	0x401c	; 0x401c <DecNumDef>
    1548:	1b db       	rcall	.-2506   	; 0xb80 <DispSetRow1>
    154a:	e9 e2       	ldi	r30, 0x29	; 41
    154c:	f1 e0       	ldi	r31, 0x01	; 1
    154e:	24 db       	rcall	.-2488   	; 0xb98 <DispTextRam>
    1550:	0a d2       	rcall	.+1044   	; 0x1966 <PopTempEdit>
    1552:	bd df       	rcall	.-134    	; 0x14ce <_PopAll>
    1554:	08 95       	ret
    1556:	8f 93       	push	r24
    1558:	ef 93       	push	r30
    155a:	ff 93       	push	r31
    155c:	11 db       	rcall	.-2526   	; 0xb80 <DispSetRow1>
    155e:	89 8d       	ldd	r24, Y+25	; 0x19
    1560:	e2 ed       	ldi	r30, 0xD2	; 210
    1562:	f4 e1       	ldi	r31, 0x14	; 20
    1564:	81 30       	cpi	r24, 0x01	; 1
    1566:	28 f0       	brcs	.+10     	; 0x1572 <DispFlags2+0x58>
    1568:	e6 ed       	ldi	r30, 0xD6	; 214
    156a:	f4 e1       	ldi	r31, 0x14	; 20
    156c:	11 f0       	breq	.+4      	; 0x1572 <DispFlags2+0x58>
    156e:	ea ed       	ldi	r30, 0xDA	; 218
    1570:	f4 e1       	ldi	r31, 0x14	; 20
    1572:	0d db       	rcall	.-2534   	; 0xb8e <DispTextRom>
    1574:	8e 8d       	ldd	r24, Y+30	; 0x1e
    1576:	e2 ee       	ldi	r30, 0xE2	; 226
    1578:	f4 e1       	ldi	r31, 0x14	; 20
    157a:	82 30       	cpi	r24, 0x02	; 2
    157c:	49 f0       	breq	.+18     	; 0x1590 <DispFlags2+0x76>
    157e:	e6 ee       	ldi	r30, 0xE6	; 230
    1580:	f4 e1       	ldi	r31, 0x14	; 20
    1582:	30 f4       	brcc	.+12     	; 0x1590 <DispFlags2+0x76>
    1584:	ee ed       	ldi	r30, 0xDE	; 222
    1586:	f4 e1       	ldi	r31, 0x14	; 20
    1588:	81 30       	cpi	r24, 0x01	; 1
    158a:	11 f0       	breq	.+4      	; 0x1590 <DispFlags2+0x76>
    158c:	ee ef       	ldi	r30, 0xFE	; 254
    158e:	f4 e1       	ldi	r31, 0x14	; 20
    1590:	fe da       	rcall	.-2564   	; 0xb8e <DispTextRom>
    1592:	ef 89       	ldd	r30, Y+23	; 0x17
    1594:	ef 30       	cpi	r30, 0x0F	; 15
    1596:	19 f4       	brne	.+6      	; 0x159e <DispFlags2+0x84>
    1598:	03 db       	rcall	.-2554   	; 0xba0 <DispSpc>
    159a:	02 db       	rcall	.-2556   	; 0xba0 <DispSpc>
    159c:	04 c0       	rjmp	.+8      	; 0x15a6 <DispFlags2+0x8c>
    159e:	86 e4       	ldi	r24, 0x46	; 70
    15a0:	6f da       	rcall	.-2850   	; 0xa80 <DispChar>
    15a2:	8e 2f       	mov	r24, r30
    15a4:	15 db       	rcall	.-2518   	; 0xbd0 <DispHexDig>
    15a6:	ee ee       	ldi	r30, 0xEE	; 238
    15a8:	f4 e1       	ldi	r31, 0x14	; 20
    15aa:	4c d1       	rcall	.+664    	; 0x1844 <FlagTestEng>
    15ac:	31 f4       	brne	.+12     	; 0x15ba <DispFlags2+0xa0>
    15ae:	ea ee       	ldi	r30, 0xEA	; 234
    15b0:	f4 e1       	ldi	r31, 0x14	; 20
    15b2:	45 d1       	rcall	.+650    	; 0x183e <FlagTestEE>
    15b4:	11 f4       	brne	.+4      	; 0x15ba <DispFlags2+0xa0>
    15b6:	ee ef       	ldi	r30, 0xFE	; 254
    15b8:	f4 e1       	ldi	r31, 0x14	; 20
    15ba:	e9 da       	rcall	.-2606   	; 0xb8e <DispTextRom>
    15bc:	e2 ef       	ldi	r30, 0xF2	; 242
    15be:	f4 e1       	ldi	r31, 0x14	; 20
    15c0:	8a 85       	ldd	r24, Y+10	; 0x0a
    15c2:	81 30       	cpi	r24, 0x01	; 1
    15c4:	29 f0       	breq	.+10     	; 0x15d0 <DispFlags2+0xb6>
    15c6:	e6 ef       	ldi	r30, 0xF6	; 246
    15c8:	f4 e1       	ldi	r31, 0x14	; 20
    15ca:	10 f4       	brcc	.+4      	; 0x15d0 <DispFlags2+0xb6>
    15cc:	ef ef       	ldi	r30, 0xFF	; 255
    15ce:	f4 e1       	ldi	r31, 0x14	; 20
    15d0:	de da       	rcall	.-2628   	; 0xb8e <DispTextRom>
    15d2:	ea ef       	ldi	r30, 0xFA	; 250
    15d4:	f4 e1       	ldi	r31, 0x14	; 20
    15d6:	2b d1       	rcall	.+598    	; 0x182e <FlagTestInv>
    15d8:	11 f4       	brne	.+4      	; 0x15de <DispFlags2+0xc4>
    15da:	ef ef       	ldi	r30, 0xFF	; 255
    15dc:	f4 e1       	ldi	r31, 0x14	; 20
    15de:	d7 da       	rcall	.-2642   	; 0xb8e <DispTextRom>
    15e0:	40 d1       	rcall	.+640    	; 0x1862 <FlagTestInKey>
    15e2:	8f e3       	ldi	r24, 0x3F	; 63
    15e4:	71 f4       	brne	.+28     	; 0x1602 <DispFlags2+0xe8>
    15e6:	0e 94 25 1d 	call	0x3a4a	; 0x3a4a <ExecLevel>
    15ea:	8f 70       	andi	r24, 0x0F	; 15
    15ec:	e2 e0       	ldi	r30, 0x02	; 2
    15ee:	f5 e1       	ldi	r31, 0x15	; 21
    15f0:	e8 0f       	add	r30, r24
    15f2:	f1 1d       	adc	r31, r1
    15f4:	84 91       	lpm	r24, Z+
    15f6:	80 32       	cpi	r24, 0x20	; 32
    15f8:	21 f4       	brne	.+8      	; 0x1602 <DispFlags2+0xe8>
    15fa:	eb 89       	ldd	r30, Y+19	; 0x13
    15fc:	ee 23       	and	r30, r30
    15fe:	09 f0       	breq	.+2      	; 0x1602 <DispFlags2+0xe8>
    1600:	88 e2       	ldi	r24, 0x28	; 40
    1602:	3e da       	rcall	.-2948   	; 0xa80 <DispChar>
    1604:	ff 91       	pop	r31
    1606:	ef 91       	pop	r30
    1608:	8f 91       	pop	r24
    160a:	08 95       	ret

0000160c <DispPrgMem>:
    160c:	82 dc       	rcall	.-1788   	; 0xf12 <LoadByte>
    160e:	08 f0       	brcs	.+2      	; 0x1612 <DispPrgMem+0x6>
    1610:	dc ca       	rjmp	.-2632   	; 0xbca <DispHexB>
    1612:	11 96       	adiw	r26, 0x01	; 1
    1614:	c5 da       	rcall	.-2678   	; 0xba0 <DispSpc>
    1616:	c4 ca       	rjmp	.-2680   	; 0xba0 <DispSpc>

00001618 <DispProg2>:
    1618:	a6 da       	rcall	.-2740   	; 0xb66 <DispSetPos>
    161a:	ac 8d       	ldd	r26, Y+28	; 0x1c
    161c:	bd 8d       	ldd	r27, Y+29	; 0x1d
    161e:	8c a1       	ldd	r24, Y+36	; 0x24
    1620:	9d a1       	ldd	r25, Y+37	; 0x25
    1622:	a8 17       	cp	r26, r24
    1624:	b9 07       	cpc	r27, r25
    1626:	80 f4       	brcc	.+32     	; 0x1648 <DispProg2+0x30>
    1628:	cd 01       	movw	r24, r26
    162a:	ea a1       	ldd	r30, Y+34	; 0x22
    162c:	8e 1b       	sub	r24, r30
    162e:	eb a1       	ldd	r30, Y+35	; 0x23
    1630:	9e 0b       	sbc	r25, r30
    1632:	b0 d1       	rcall	.+864    	; 0x1994 <Disp3Dig>
    1634:	88 a1       	ldd	r24, Y+32	; 0x20
    1636:	88 23       	and	r24, r24
    1638:	8a e2       	ldi	r24, 0x2A	; 42
    163a:	09 f4       	brne	.+2      	; 0x163e <DispProg2+0x26>
    163c:	80 e2       	ldi	r24, 0x20	; 32
    163e:	20 da       	rcall	.-3008   	; 0xa80 <DispChar>
    1640:	e5 df       	rcall	.-54     	; 0x160c <DispPrgMem>
    1642:	ae da       	rcall	.-2724   	; 0xba0 <DispSpc>
    1644:	54 dc       	rcall	.-1880   	; 0xeee <GetDispName>
    1646:	a3 da       	rcall	.-2746   	; 0xb8e <DispTextRom>
    1648:	b5 ca       	rjmp	.-2710   	; 0xbb4 <DispSpcClr>

0000164a <Disp>:
    164a:	63 df       	rcall	.-314    	; 0x1512 <DispFlags>
    164c:	2b d0       	rcall	.+86     	; 0x16a4 <DispEdit>

0000164e <DispProg>:
    164e:	f3 9b       	sbis	0x1e, 3	; 30
    1650:	08 95       	ret
    1652:	8f 93       	push	r24
    1654:	9f 93       	push	r25
    1656:	af 93       	push	r26
    1658:	bf 93       	push	r27
    165a:	ef 93       	push	r30
    165c:	ff 93       	push	r31
    165e:	90 da       	rcall	.-2784   	; 0xb80 <DispSetRow1>
    1660:	ac 8d       	ldd	r26, Y+28	; 0x1c
    1662:	bd 8d       	ldd	r27, Y+29	; 0x1d
    1664:	8c a1       	ldd	r24, Y+36	; 0x24
    1666:	9d a1       	ldd	r25, Y+37	; 0x25
    1668:	a8 17       	cp	r26, r24
    166a:	b9 07       	cpc	r27, r25
    166c:	20 f0       	brcs	.+8      	; 0x1676 <DispProg+0x28>
    166e:	dc 01       	movw	r26, r24
    1670:	11 97       	sbiw	r26, 0x01	; 1
    1672:	ac 8f       	std	Y+28, r26	; 0x1c
    1674:	bd 8f       	std	Y+29, r27	; 0x1d
    1676:	12 97       	sbiw	r26, 0x02	; 2
    1678:	c9 df       	rcall	.-110    	; 0x160c <DispPrgMem>
    167a:	92 da       	rcall	.-2780   	; 0xba0 <DispSpc>
    167c:	c7 df       	rcall	.-114    	; 0x160c <DispPrgMem>
    167e:	90 da       	rcall	.-2784   	; 0xba0 <DispSpc>
    1680:	8b e5       	ldi	r24, 0x5B	; 91
    1682:	fe d9       	rcall	.-3076   	; 0xa80 <DispChar>
    1684:	c3 df       	rcall	.-122    	; 0x160c <DispPrgMem>
    1686:	8d e5       	ldi	r24, 0x5D	; 93
    1688:	fb d9       	rcall	.-3082   	; 0xa80 <DispChar>
    168a:	8a da       	rcall	.-2796   	; 0xba0 <DispSpc>
    168c:	bf df       	rcall	.-130    	; 0x160c <DispPrgMem>
    168e:	88 da       	rcall	.-2800   	; 0xba0 <DispSpc>
    1690:	bd df       	rcall	.-134    	; 0x160c <DispPrgMem>
    1692:	80 e4       	ldi	r24, 0x40	; 64
    1694:	c1 df       	rcall	.-126    	; 0x1618 <DispProg2>
    1696:	ff 91       	pop	r31
    1698:	ef 91       	pop	r30
    169a:	bf 91       	pop	r27
    169c:	af 91       	pop	r26
    169e:	9f 91       	pop	r25
    16a0:	8f 91       	pop	r24
    16a2:	08 95       	ret

000016a4 <DispEdit>:
    16a4:	f2 99       	sbic	0x1e, 2	; 30
    16a6:	08 95       	ret
    16a8:	f3 99       	sbic	0x1e, 3	; 30
    16aa:	08 95       	ret

000016ac <DispEdit2>:
    16ac:	0e df       	rcall	.-484    	; 0x14ca <_PushAll>
    16ae:	f0 99       	sbic	0x1e, 0	; 30
    16b0:	04 c0       	rjmp	.+8      	; 0x16ba <DispEdit2+0xe>
    16b2:	87 e0       	ldi	r24, 0x07	; 7
    16b4:	08 d3       	rcall	.+1552   	; 0x1cc6 <_CalcGetMem>
    16b6:	0e 94 0e 20 	call	0x401c	; 0x401c <DecNumDef>
    16ba:	e1 d0       	rcall	.+450    	; 0x187e <FlagTestDebug>
    16bc:	41 f0       	breq	.+16     	; 0x16ce <DispEdit2+0x22>
    16be:	60 da       	rcall	.-2880   	; 0xb80 <DispSetRow1>
    16c0:	e2 eb       	ldi	r30, 0xB2	; 178
    16c2:	f1 e0       	ldi	r31, 0x01	; 1
    16c4:	98 e0       	ldi	r25, 0x08	; 8
    16c6:	81 91       	ld	r24, Z+
    16c8:	80 da       	rcall	.-2816   	; 0xbca <DispHexB>
    16ca:	9a 95       	dec	r25
    16cc:	e1 f7       	brne	.-8      	; 0x16c6 <DispEdit2+0x1a>
    16ce:	55 da       	rcall	.-2902   	; 0xb7a <DispSetRow2>
    16d0:	e9 e2       	ldi	r30, 0x29	; 41
    16d2:	f1 e0       	ldi	r31, 0x01	; 1
    16d4:	61 da       	rcall	.-2878   	; 0xb98 <DispTextRam>
    16d6:	fb de       	rcall	.-522    	; 0x14ce <_PopAll>
    16d8:	08 95       	ret

000016da <DispC>:
    16da:	8f 93       	push	r24
    16dc:	ef 93       	push	r30
    16de:	ff 93       	push	r31
    16e0:	4f da       	rcall	.-2914   	; 0xb80 <DispSetRow1>
    16e2:	ee ec       	ldi	r30, 0xCE	; 206
    16e4:	f6 e0       	ldi	r31, 0x06	; 6
    16e6:	58 da       	rcall	.-2896   	; 0xb98 <DispTextRam>
    16e8:	48 da       	rcall	.-2928   	; 0xb7a <DispSetRow2>
    16ea:	ef ed       	ldi	r30, 0xDF	; 223
    16ec:	f6 e0       	ldi	r31, 0x06	; 6
    16ee:	54 da       	rcall	.-2904   	; 0xb98 <DispTextRam>
    16f0:	ff 91       	pop	r31
    16f2:	ef 91       	pop	r30
    16f4:	8f 91       	pop	r24
    16f6:	08 95       	ret

000016f8 <DispErr>:
    16f8:	f2 99       	sbic	0x1e, 2	; 30
    16fa:	ef cf       	rjmp	.-34     	; 0x16da <DispC>
    16fc:	f3 99       	sbic	0x1e, 3	; 30
    16fe:	08 95       	ret
    1700:	0c df       	rcall	.-488    	; 0x151a <DispFlags2>
    1702:	9c 81       	ldd	r25, Y+4	; 0x04
    1704:	9f 73       	andi	r25, 0x3F	; 63
    1706:	95 31       	cpi	r25, 0x15	; 21
    1708:	08 f0       	brcs	.+2      	; 0x170c <DispErr+0x14>
    170a:	cc cf       	rjmp	.-104    	; 0x16a4 <DispEdit>
    170c:	36 da       	rcall	.-2964   	; 0xb7a <DispSetRow2>
    170e:	85 e4       	ldi	r24, 0x45	; 69
    1710:	f5 99       	sbic	0x1e, 5	; 30
    1712:	86 e4       	ldi	r24, 0x46	; 70
    1714:	b5 d9       	rcall	.-3222   	; 0xa80 <DispChar>
    1716:	4e ca       	rjmp	.-2916   	; 0xbb4 <DispSpcClr>

00001718 <DispTrace>:
    1718:	f2 9b       	sbis	0x1e, 2	; 30
    171a:	08 95       	ret
    171c:	98 81       	ld	r25, Y
    171e:	97 fb       	bst	r25, 7
    1720:	90 68       	ori	r25, 0x80	; 128
    1722:	f6 9b       	sbis	0x1e, 6	; 30
    1724:	9f 77       	andi	r25, 0x7F	; 127
    1726:	98 83       	st	Y, r25
    1728:	16 f4       	brtc	.+4      	; 0x172e <DispTrace+0x16>
    172a:	f6 9b       	sbis	0x1e, 6	; 30
    172c:	d6 df       	rcall	.-84     	; 0x16da <DispC>
    172e:	f6 9b       	sbis	0x1e, 6	; 30
    1730:	08 95       	ret
    1732:	a5 d0       	rcall	.+330    	; 0x187e <FlagTestDebug>
    1734:	11 f4       	brne	.+4      	; 0x173a <DispTrace+0x22>
    1736:	80 e0       	ldi	r24, 0x00	; 0
    1738:	6f df       	rcall	.-290    	; 0x1618 <DispProg2>
    173a:	b8 df       	rcall	.-144    	; 0x16ac <DispEdit2>
    173c:	0c 94 8b 03 	jmp	0x716	; 0x716 <Wait250ms>

00001740 <ClrPrintBuf>:
    1740:	ae ec       	ldi	r26, 0xCE	; 206
    1742:	b6 e0       	ldi	r27, 0x06	; 6
    1744:	80 e2       	ldi	r24, 0x20	; 32
    1746:	8d 93       	st	X+, r24
    1748:	ae 3d       	cpi	r26, 0xDE	; 222
    174a:	e9 f7       	brne	.-6      	; 0x1746 <ClrPrintBuf+0x6>
    174c:	1c 92       	st	X, r1
    174e:	af ed       	ldi	r26, 0xDF	; 223
    1750:	b6 e0       	ldi	r27, 0x06	; 6
    1752:	83 e4       	ldi	r24, 0x43	; 67
    1754:	8d 93       	st	X+, r24
    1756:	80 e2       	ldi	r24, 0x20	; 32
    1758:	8d 93       	st	X+, r24
    175a:	af 3e       	cpi	r26, 0xEF	; 239
    175c:	e9 f7       	brne	.-6      	; 0x1758 <ClrPrintBuf+0x18>
    175e:	1c 92       	st	X, r1
    1760:	08 95       	ret

00001762 <FlagSetInv>:
    1762:	9f 93       	push	r25
    1764:	91 e0       	ldi	r25, 0x01	; 1

00001766 <FlagSet>:
    1766:	8f 93       	push	r24
    1768:	88 81       	ld	r24, Y
    176a:	89 2b       	or	r24, r25
    176c:	88 83       	st	Y, r24
    176e:	8f 91       	pop	r24
    1770:	9f 91       	pop	r25
    1772:	08 95       	ret

00001774 <FlagSetEE>:
    1774:	9f 93       	push	r25
    1776:	92 e0       	ldi	r25, 0x02	; 2
    1778:	f6 cf       	rjmp	.-20     	; 0x1766 <FlagSet>

0000177a <FlagSetEng>:
    177a:	9f 93       	push	r25
    177c:	94 e0       	ldi	r25, 0x04	; 4
    177e:	f3 cf       	rjmp	.-26     	; 0x1766 <FlagSet>

00001780 <FlagSetResDec>:
    1780:	9f 93       	push	r25
    1782:	98 e0       	ldi	r25, 0x08	; 8
    1784:	f0 cf       	rjmp	.-32     	; 0x1766 <FlagSet>

00001786 <FlagSetDP>:
    1786:	9f 93       	push	r25
    1788:	90 e1       	ldi	r25, 0x10	; 16
    178a:	ed cf       	rjmp	.-38     	; 0x1766 <FlagSet>

0000178c <FlagSetExp>:
    178c:	9f 93       	push	r25
    178e:	90 e2       	ldi	r25, 0x20	; 32
    1790:	ea cf       	rjmp	.-44     	; 0x1766 <FlagSet>

00001792 <FlagSetInKey>:
    1792:	9f 93       	push	r25
    1794:	90 e4       	ldi	r25, 0x40	; 64
    1796:	e7 cf       	rjmp	.-50     	; 0x1766 <FlagSet>

00001798 <FlagSetErrDec>:
    1798:	9f 93       	push	r25
    179a:	91 e0       	ldi	r25, 0x01	; 1

0000179c <FlagSet2>:
    179c:	8f 93       	push	r24
    179e:	89 81       	ldd	r24, Y+1	; 0x01
    17a0:	89 2b       	or	r24, r25
    17a2:	89 83       	std	Y+1, r24	; 0x01
    17a4:	8f 91       	pop	r24
    17a6:	9f 91       	pop	r25
    17a8:	08 95       	ret

000017aa <FlagSetOldErr>:
    17aa:	9f 93       	push	r25
    17ac:	92 e0       	ldi	r25, 0x02	; 2
    17ae:	f6 cf       	rjmp	.-20     	; 0x179c <FlagSet2>

000017b0 <FlagSetDebug>:
    17b0:	9f 93       	push	r25
    17b2:	94 e0       	ldi	r25, 0x04	; 4
    17b4:	f3 cf       	rjmp	.-26     	; 0x179c <FlagSet2>

000017b6 <FlagSetOldRun>:
    17b6:	9f 93       	push	r25
    17b8:	98 e0       	ldi	r25, 0x08	; 8
    17ba:	f0 cf       	rjmp	.-32     	; 0x179c <FlagSet2>

000017bc <FlagSetDispRegT>:
    17bc:	9f 93       	push	r25
    17be:	90 e1       	ldi	r25, 0x10	; 16
    17c0:	ed cf       	rjmp	.-38     	; 0x179c <FlagSet2>

000017c2 <FlagSetDispText>:
    17c2:	9f 93       	push	r25
    17c4:	90 e2       	ldi	r25, 0x20	; 32
    17c6:	ea cf       	rjmp	.-44     	; 0x179c <FlagSet2>

000017c8 <FlagClrInv>:
    17c8:	9f 93       	push	r25
    17ca:	9e ef       	ldi	r25, 0xFE	; 254

000017cc <FlagClr>:
    17cc:	8f 93       	push	r24
    17ce:	88 81       	ld	r24, Y
    17d0:	89 23       	and	r24, r25
    17d2:	88 83       	st	Y, r24
    17d4:	8f 91       	pop	r24
    17d6:	9f 91       	pop	r25
    17d8:	08 95       	ret

000017da <FlagClrEE>:
    17da:	9f 93       	push	r25
    17dc:	9d ef       	ldi	r25, 0xFD	; 253
    17de:	f6 cf       	rjmp	.-20     	; 0x17cc <FlagClr>

000017e0 <FlagClrEng>:
    17e0:	9f 93       	push	r25
    17e2:	9b ef       	ldi	r25, 0xFB	; 251
    17e4:	f3 cf       	rjmp	.-26     	; 0x17cc <FlagClr>

000017e6 <FlagClrResDec>:
    17e6:	9f 93       	push	r25
    17e8:	97 ef       	ldi	r25, 0xF7	; 247
    17ea:	f0 cf       	rjmp	.-32     	; 0x17cc <FlagClr>

000017ec <FlagClrDP>:
    17ec:	9f 93       	push	r25
    17ee:	9f ee       	ldi	r25, 0xEF	; 239
    17f0:	ed cf       	rjmp	.-38     	; 0x17cc <FlagClr>

000017f2 <FlagClrExp>:
    17f2:	9f 93       	push	r25
    17f4:	9f ed       	ldi	r25, 0xDF	; 223
    17f6:	ea cf       	rjmp	.-44     	; 0x17cc <FlagClr>

000017f8 <FlagClrInKey>:
    17f8:	9f 93       	push	r25
    17fa:	9f eb       	ldi	r25, 0xBF	; 191
    17fc:	e7 cf       	rjmp	.-50     	; 0x17cc <FlagClr>

000017fe <FlagClrErrDec>:
    17fe:	9f 93       	push	r25
    1800:	9e ef       	ldi	r25, 0xFE	; 254

00001802 <FlagClr2>:
    1802:	8f 93       	push	r24
    1804:	89 81       	ldd	r24, Y+1	; 0x01
    1806:	89 23       	and	r24, r25
    1808:	89 83       	std	Y+1, r24	; 0x01
    180a:	8f 91       	pop	r24
    180c:	9f 91       	pop	r25
    180e:	08 95       	ret

00001810 <FlagClrOldErr>:
    1810:	9f 93       	push	r25
    1812:	9d ef       	ldi	r25, 0xFD	; 253
    1814:	f6 cf       	rjmp	.-20     	; 0x1802 <FlagClr2>

00001816 <FlagClrDebug>:
    1816:	9f 93       	push	r25
    1818:	9b ef       	ldi	r25, 0xFB	; 251
    181a:	f3 cf       	rjmp	.-26     	; 0x1802 <FlagClr2>

0000181c <FlagClrOldRun>:
    181c:	9f 93       	push	r25
    181e:	97 ef       	ldi	r25, 0xF7	; 247
    1820:	f0 cf       	rjmp	.-32     	; 0x1802 <FlagClr2>

00001822 <FlagClrDispRegT>:
    1822:	9f 93       	push	r25
    1824:	9f ee       	ldi	r25, 0xEF	; 239
    1826:	ed cf       	rjmp	.-38     	; 0x1802 <FlagClr2>

00001828 <FlagClrDispText>:
    1828:	9f 93       	push	r25
    182a:	9f ed       	ldi	r25, 0xDF	; 223
    182c:	ea cf       	rjmp	.-44     	; 0x1802 <FlagClr2>

0000182e <FlagTestInv>:
    182e:	9f 93       	push	r25
    1830:	91 e0       	ldi	r25, 0x01	; 1

00001832 <FlagTest>:
    1832:	8f 93       	push	r24
    1834:	88 81       	ld	r24, Y
    1836:	89 23       	and	r24, r25
    1838:	8f 91       	pop	r24
    183a:	9f 91       	pop	r25
    183c:	08 95       	ret

0000183e <FlagTestEE>:
    183e:	9f 93       	push	r25
    1840:	92 e0       	ldi	r25, 0x02	; 2
    1842:	f7 cf       	rjmp	.-18     	; 0x1832 <FlagTest>

00001844 <FlagTestEng>:
    1844:	9f 93       	push	r25
    1846:	94 e0       	ldi	r25, 0x04	; 4
    1848:	f4 cf       	rjmp	.-24     	; 0x1832 <FlagTest>

0000184a <FlagTestEEEng>:
    184a:	9f 93       	push	r25
    184c:	96 e0       	ldi	r25, 0x06	; 6
    184e:	f1 cf       	rjmp	.-30     	; 0x1832 <FlagTest>

00001850 <FlagTestResDec>:
    1850:	9f 93       	push	r25
    1852:	98 e0       	ldi	r25, 0x08	; 8
    1854:	ee cf       	rjmp	.-36     	; 0x1832 <FlagTest>

00001856 <FlagTestDP>:
    1856:	9f 93       	push	r25
    1858:	90 e1       	ldi	r25, 0x10	; 16
    185a:	eb cf       	rjmp	.-42     	; 0x1832 <FlagTest>

0000185c <FlagTestExp>:
    185c:	9f 93       	push	r25
    185e:	90 e2       	ldi	r25, 0x20	; 32
    1860:	e8 cf       	rjmp	.-48     	; 0x1832 <FlagTest>

00001862 <FlagTestInKey>:
    1862:	9f 93       	push	r25
    1864:	90 e4       	ldi	r25, 0x40	; 64
    1866:	e5 cf       	rjmp	.-54     	; 0x1832 <FlagTest>

00001868 <FlagTestErrDec>:
    1868:	9f 93       	push	r25
    186a:	91 e0       	ldi	r25, 0x01	; 1

0000186c <FlagTest2>:
    186c:	8f 93       	push	r24
    186e:	89 81       	ldd	r24, Y+1	; 0x01
    1870:	89 23       	and	r24, r25
    1872:	8f 91       	pop	r24
    1874:	9f 91       	pop	r25
    1876:	08 95       	ret

00001878 <FlagTestOldErr>:
    1878:	9f 93       	push	r25
    187a:	92 e0       	ldi	r25, 0x02	; 2
    187c:	f7 cf       	rjmp	.-18     	; 0x186c <FlagTest2>

0000187e <FlagTestDebug>:
    187e:	9f 93       	push	r25
    1880:	94 e0       	ldi	r25, 0x04	; 4
    1882:	f4 cf       	rjmp	.-24     	; 0x186c <FlagTest2>

00001884 <FlagTestOldRun>:
    1884:	9f 93       	push	r25
    1886:	98 e0       	ldi	r25, 0x08	; 8
    1888:	f1 cf       	rjmp	.-30     	; 0x186c <FlagTest2>

0000188a <FlagTestDispRegT>:
    188a:	9f 93       	push	r25
    188c:	90 e1       	ldi	r25, 0x10	; 16
    188e:	ee cf       	rjmp	.-36     	; 0x186c <FlagTest2>

00001890 <FlagTestDispText>:
    1890:	9f 93       	push	r25
    1892:	90 e2       	ldi	r25, 0x20	; 32
    1894:	eb cf       	rjmp	.-42     	; 0x186c <FlagTest2>

00001896 <UserFlagTest>:
    1896:	8f 30       	cpi	r24, 0x0F	; 15
    1898:	71 f0       	breq	.+28     	; 0x18b6 <UserFlagTest+0x20>
    189a:	9f 93       	push	r25
    189c:	98 2f       	mov	r25, r24
    189e:	8a 8d       	ldd	r24, Y+26	; 0x1a
    18a0:	98 30       	cpi	r25, 0x08	; 8
    18a2:	20 f0       	brcs	.+8      	; 0x18ac <UserFlagTest+0x16>
    18a4:	8b 8d       	ldd	r24, Y+27	; 0x1b
    18a6:	98 19       	sub	r25, r8
    18a8:	01 c0       	rjmp	.+2      	; 0x18ac <UserFlagTest+0x16>
    18aa:	86 95       	lsr	r24
    18ac:	9a 95       	dec	r25
    18ae:	ea f7       	brpl	.-6      	; 0x18aa <UserFlagTest+0x14>
    18b0:	81 70       	andi	r24, 0x01	; 1
    18b2:	9f 91       	pop	r25
    18b4:	08 95       	ret
    18b6:	88 27       	eor	r24, r24
    18b8:	f4 99       	sbic	0x1e, 4	; 30
    18ba:	83 95       	inc	r24
    18bc:	08 95       	ret

000018be <UserFlagSet>:
    18be:	8f 30       	cpi	r24, 0x0F	; 15
    18c0:	b9 f0       	breq	.+46     	; 0x18f0 <UserFlagSet+0x32>
    18c2:	8f 93       	push	r24
    18c4:	9f 93       	push	r25
    18c6:	91 e0       	ldi	r25, 0x01	; 1
    18c8:	88 30       	cpi	r24, 0x08	; 8
    18ca:	50 f0       	brcs	.+20     	; 0x18e0 <UserFlagSet+0x22>
    18cc:	88 50       	subi	r24, 0x08	; 8
    18ce:	01 c0       	rjmp	.+2      	; 0x18d2 <UserFlagSet+0x14>
    18d0:	99 0f       	add	r25, r25
    18d2:	8a 95       	dec	r24
    18d4:	ea f7       	brpl	.-6      	; 0x18d0 <UserFlagSet+0x12>
    18d6:	8b 8d       	ldd	r24, Y+27	; 0x1b
    18d8:	89 2b       	or	r24, r25
    18da:	8b 8f       	std	Y+27, r24	; 0x1b
    18dc:	06 c0       	rjmp	.+12     	; 0x18ea <UserFlagSet+0x2c>
    18de:	99 0f       	add	r25, r25
    18e0:	8a 95       	dec	r24
    18e2:	ea f7       	brpl	.-6      	; 0x18de <UserFlagSet+0x20>
    18e4:	8a 8d       	ldd	r24, Y+26	; 0x1a
    18e6:	89 2b       	or	r24, r25
    18e8:	8a 8f       	std	Y+26, r24	; 0x1a
    18ea:	9f 91       	pop	r25
    18ec:	8f 91       	pop	r24
    18ee:	08 95       	ret
    18f0:	f4 9a       	sbi	0x1e, 4	; 30
    18f2:	08 95       	ret

000018f4 <UserFlagClr>:
    18f4:	8f 30       	cpi	r24, 0x0F	; 15
    18f6:	c9 f0       	breq	.+50     	; 0x192a <UserFlagClr+0x36>
    18f8:	8f 93       	push	r24
    18fa:	9f 93       	push	r25
    18fc:	91 e0       	ldi	r25, 0x01	; 1
    18fe:	88 30       	cpi	r24, 0x08	; 8
    1900:	58 f0       	brcs	.+22     	; 0x1918 <UserFlagClr+0x24>
    1902:	88 50       	subi	r24, 0x08	; 8
    1904:	01 c0       	rjmp	.+2      	; 0x1908 <UserFlagClr+0x14>
    1906:	99 0f       	add	r25, r25
    1908:	8a 95       	dec	r24
    190a:	ea f7       	brpl	.-6      	; 0x1906 <UserFlagClr+0x12>
    190c:	8b 8d       	ldd	r24, Y+27	; 0x1b
    190e:	89 2b       	or	r24, r25
    1910:	89 27       	eor	r24, r25
    1912:	8b 8f       	std	Y+27, r24	; 0x1b
    1914:	07 c0       	rjmp	.+14     	; 0x1924 <UserFlagClr+0x30>
    1916:	99 0f       	add	r25, r25
    1918:	8a 95       	dec	r24
    191a:	ea f7       	brpl	.-6      	; 0x1916 <UserFlagClr+0x22>
    191c:	8a 8d       	ldd	r24, Y+26	; 0x1a
    191e:	89 2b       	or	r24, r25
    1920:	89 27       	eor	r24, r25
    1922:	8a 8f       	std	Y+26, r24	; 0x1a
    1924:	9f 91       	pop	r25
    1926:	8f 91       	pop	r24
    1928:	08 95       	ret
    192a:	f4 98       	cbi	0x1e, 4	; 30
    192c:	08 95       	ret

0000192e <PushTempEdit>:
    192e:	8f 93       	push	r24
    1930:	af 93       	push	r26
    1932:	bf 93       	push	r27
    1934:	ef 93       	push	r30
    1936:	ff 93       	push	r31
    1938:	88 81       	ld	r24, Y
    193a:	80 93 50 01 	sts	0x0150, r24
    193e:	8d 89       	ldd	r24, Y+21	; 0x15
    1940:	80 93 51 01 	sts	0x0151, r24
    1944:	8e 89       	ldd	r24, Y+22	; 0x16
    1946:	80 93 52 01 	sts	0x0152, r24
    194a:	a9 e2       	ldi	r26, 0x29	; 41
    194c:	b1 e0       	ldi	r27, 0x01	; 1
    194e:	ef e3       	ldi	r30, 0x3F	; 63
    1950:	f1 e0       	ldi	r31, 0x01	; 1
    1952:	8d 91       	ld	r24, X+
    1954:	81 93       	st	Z+, r24
    1956:	a9 33       	cpi	r26, 0x39	; 57
    1958:	e1 f7       	brne	.-8      	; 0x1952 <PushTempEdit+0x24>

0000195a <PushTempEdit4>:
    195a:	ff 91       	pop	r31
    195c:	ef 91       	pop	r30
    195e:	bf 91       	pop	r27
    1960:	af 91       	pop	r26
    1962:	8f 91       	pop	r24
    1964:	08 95       	ret

00001966 <PopTempEdit>:
    1966:	8f 93       	push	r24
    1968:	af 93       	push	r26
    196a:	bf 93       	push	r27
    196c:	ef 93       	push	r30
    196e:	ff 93       	push	r31
    1970:	80 91 50 01 	lds	r24, 0x0150
    1974:	88 83       	st	Y, r24
    1976:	80 91 51 01 	lds	r24, 0x0151
    197a:	8d 8b       	std	Y+21, r24	; 0x15
    197c:	80 91 52 01 	lds	r24, 0x0152
    1980:	8e 8b       	std	Y+22, r24	; 0x16
    1982:	af e3       	ldi	r26, 0x3F	; 63
    1984:	b1 e0       	ldi	r27, 0x01	; 1
    1986:	e9 e2       	ldi	r30, 0x29	; 41
    1988:	f1 e0       	ldi	r31, 0x01	; 1
    198a:	8d 91       	ld	r24, X+
    198c:	81 93       	st	Z+, r24
    198e:	af 34       	cpi	r26, 0x4F	; 79
    1990:	e1 f7       	brne	.-8      	; 0x198a <PopTempEdit+0x24>
    1992:	e3 cf       	rjmp	.-58     	; 0x195a <PushTempEdit4>

00001994 <Disp3Dig>:
    1994:	6f 93       	push	r22
    1996:	8f 93       	push	r24
    1998:	9f 93       	push	r25
    199a:	0e 94 64 1f 	call	0x3ec8	; 0x3ec8 <Split100>
    199e:	98 2f       	mov	r25, r24
    19a0:	86 2f       	mov	r24, r22
    19a2:	6e d8       	rcall	.-3876   	; 0xa80 <DispChar>
    19a4:	89 2f       	mov	r24, r25
    19a6:	03 c0       	rjmp	.+6      	; 0x19ae <Disp2Sig2>

000019a8 <Disp2Dig>:
    19a8:	6f 93       	push	r22
    19aa:	8f 93       	push	r24
    19ac:	9f 93       	push	r25

000019ae <Disp2Sig2>:
    19ae:	0e 94 6c 1f 	call	0x3ed8	; 0x3ed8 <Split10>
    19b2:	98 2f       	mov	r25, r24
    19b4:	86 2f       	mov	r24, r22
    19b6:	64 d8       	rcall	.-3896   	; 0xa80 <DispChar>
    19b8:	89 2f       	mov	r24, r25
    19ba:	62 d8       	rcall	.-3900   	; 0xa80 <DispChar>
    19bc:	9f 91       	pop	r25
    19be:	8f 91       	pop	r24
    19c0:	6f 91       	pop	r22
    19c2:	08 95       	ret

000019c4 <EditBufClear>:
    19c4:	13 df       	rcall	.-474    	; 0x17ec <FlagClrDP>
    19c6:	82 e0       	ldi	r24, 0x02	; 2
    19c8:	8d 8b       	std	Y+21, r24	; 0x15
    19ca:	1e 8a       	std	Y+22, r1	; 0x16
    19cc:	a9 e2       	ldi	r26, 0x29	; 41
    19ce:	b1 e0       	ldi	r27, 0x01	; 1
    19d0:	80 e2       	ldi	r24, 0x20	; 32
    19d2:	8d 93       	st	X+, r24
    19d4:	a8 33       	cpi	r26, 0x38	; 56
    19d6:	e9 f7       	brne	.-6      	; 0x19d2 <EditBufClear+0xe>
    19d8:	80 e3       	ldi	r24, 0x30	; 48
    19da:	8d 93       	st	X+, r24
    19dc:	1c 92       	st	X, r1
    19de:	08 95       	ret

000019e0 <TextBufShiftL>:
    19e0:	e9 e2       	ldi	r30, 0x29	; 41
    19e2:	f1 e0       	ldi	r31, 0x01	; 1
    19e4:	8d 89       	ldd	r24, Y+21	; 0x15
    19e6:	9e 89       	ldd	r25, Y+22	; 0x16
    19e8:	98 0f       	add	r25, r24
    19ea:	90 31       	cpi	r25, 0x10	; 16
    19ec:	78 f0       	brcs	.+30     	; 0x1a0c <TextBufShiftL+0x2c>
    19ee:	90 81       	ld	r25, Z
    19f0:	9d 32       	cpi	r25, 0x2D	; 45
    19f2:	11 f0       	breq	.+4      	; 0x19f8 <TextBufShiftL+0x18>
    19f4:	90 32       	cpi	r25, 0x20	; 32
    19f6:	31 f4       	brne	.+12     	; 0x1a04 <TextBufShiftL+0x24>
    19f8:	91 81       	ldd	r25, Z+1	; 0x01
    19fa:	90 33       	cpi	r25, 0x30	; 48
    19fc:	90 81       	ld	r25, Z
    19fe:	21 f0       	breq	.+8      	; 0x1a08 <TextBufShiftL+0x28>
    1a00:	90 32       	cpi	r25, 0x20	; 32
    1a02:	31 f0       	breq	.+12     	; 0x1a10 <TextBufShiftL+0x30>
    1a04:	08 94       	sec
    1a06:	08 95       	ret
    1a08:	91 83       	std	Z+1, r25	; 0x01
    1a0a:	8a 95       	dec	r24
    1a0c:	83 95       	inc	r24
    1a0e:	8d 8b       	std	Y+21, r24	; 0x15
    1a10:	8e 89       	ldd	r24, Y+22	; 0x16
    1a12:	9f e0       	ldi	r25, 0x0F	; 15
    1a14:	98 1b       	sub	r25, r24
    1a16:	81 81       	ldd	r24, Z+1	; 0x01
    1a18:	81 93       	st	Z+, r24
    1a1a:	9a 95       	dec	r25
    1a1c:	e1 f7       	brne	.-8      	; 0x1a16 <TextBufShiftL+0x36>
    1a1e:	70 83       	st	Z, r23
    1a20:	88 94       	clc
    1a22:	08 95       	ret

00001a24 <TextBufShiftR>:
    1a24:	e9 e2       	ldi	r30, 0x29	; 41
    1a26:	f1 e0       	ldi	r31, 0x01	; 1
    1a28:	70 e2       	ldi	r23, 0x20	; 32
    1a2a:	8d 89       	ldd	r24, Y+21	; 0x15
    1a2c:	9e 89       	ldd	r25, Y+22	; 0x16
    1a2e:	98 0f       	add	r25, r24
    1a30:	90 31       	cpi	r25, 0x10	; 16
    1a32:	60 f0       	brcs	.+24     	; 0x1a4c <TextBufShiftR+0x28>
    1a34:	90 81       	ld	r25, Z
    1a36:	90 32       	cpi	r25, 0x20	; 32
    1a38:	11 f0       	breq	.+4      	; 0x1a3e <TextBufShiftR+0x1a>
    1a3a:	9d 32       	cpi	r25, 0x2D	; 45
    1a3c:	49 f4       	brne	.+18     	; 0x1a50 <TextBufShiftR+0x2c>
    1a3e:	91 81       	ldd	r25, Z+1	; 0x01
    1a40:	9e 32       	cpi	r25, 0x2E	; 46
    1a42:	21 f4       	brne	.+8      	; 0x1a4c <TextBufShiftR+0x28>
    1a44:	70 81       	ld	r23, Z
    1a46:	90 e3       	ldi	r25, 0x30	; 48
    1a48:	90 83       	st	Z, r25
    1a4a:	83 95       	inc	r24
    1a4c:	8a 95       	dec	r24
    1a4e:	8d 8b       	std	Y+21, r24	; 0x15
    1a50:	8e 89       	ldd	r24, Y+22	; 0x16
    1a52:	9f e0       	ldi	r25, 0x0F	; 15
    1a54:	98 1b       	sub	r25, r24
    1a56:	e9 0f       	add	r30, r25
    1a58:	f1 1d       	adc	r31, r1
    1a5a:	82 91       	ld	r24, -Z
    1a5c:	81 83       	std	Z+1, r24	; 0x01
    1a5e:	9a 95       	dec	r25
    1a60:	e1 f7       	brne	.-8      	; 0x1a5a <TextBufShiftR+0x36>
    1a62:	70 83       	st	Z, r23
    1a64:	08 95       	ret

00001a66 <EditStart>:
    1a66:	f0 9a       	sbi	0x1e, 0	; 30
    1a68:	c4 de       	rcall	.-632    	; 0x17f2 <FlagClrExp>
    1a6a:	ac df       	rcall	.-168    	; 0x19c4 <EditBufClear>
    1a6c:	ee cd       	rjmp	.-1060   	; 0x164a <Disp>

00001a6e <EditStop>:
    1a6e:	f1 9a       	sbi	0x1e, 1	; 30

00001a70 <EditStopNoX>:
    1a70:	f0 9b       	sbis	0x1e, 0	; 30
    1a72:	08 95       	ret
    1a74:	f0 98       	cbi	0x1e, 0	; 30
    1a76:	f1 9a       	sbi	0x1e, 1	; 30
    1a78:	0e 94 cf 21 	call	0x439e	; 0x439e <EncNum>
    1a7c:	87 e0       	ldi	r24, 0x07	; 7
    1a7e:	28 d1       	rcall	.+592    	; 0x1cd0 <_CalcSetMemDel>
    1a80:	e4 cd       	rjmp	.-1080   	; 0x164a <Disp>

00001a82 <EditStop9>:
    1a82:	08 95       	ret

00001a84 <EditStopC>:
    1a84:	f4 df       	rcall	.-24     	; 0x1a6e <EditStop>
    1a86:	f2 9b       	sbis	0x1e, 2	; 30
    1a88:	28 ce       	rjmp	.-944    	; 0x16da <DispC>
    1a8a:	08 95       	ret

00001a8c <ExecDig>:
    1a8c:	8a 30       	cpi	r24, 0x0A	; 10
    1a8e:	08 f0       	brcs	.+2      	; 0x1a92 <ExecDig+0x6>
    1a90:	89 5f       	subi	r24, 0xF9	; 249
    1a92:	78 2f       	mov	r23, r24
    1a94:	70 5d       	subi	r23, 0xD0	; 208
    1a96:	f0 9b       	sbis	0x1e, 0	; 30
    1a98:	e6 df       	rcall	.-52     	; 0x1a66 <EditStart>
    1a9a:	e0 de       	rcall	.-576    	; 0x185c <FlagTestExp>
    1a9c:	71 f1       	breq	.+92     	; 0x1afa <ExecDig4>
    1a9e:	7a 33       	cpi	r23, 0x3A	; 58
    1aa0:	58 f5       	brcc	.+86     	; 0x1af8 <ExecDig3>
    1aa2:	96 e0       	ldi	r25, 0x06	; 6
    1aa4:	8e 8d       	ldd	r24, Y+30	; 0x1e
    1aa6:	80 30       	cpi	r24, 0x00	; 0
    1aa8:	11 f0       	breq	.+4      	; 0x1aae <ExecDig+0x22>
    1aaa:	83 30       	cpi	r24, 0x03	; 3
    1aac:	09 f4       	brne	.+2      	; 0x1ab0 <ExecDig+0x24>
    1aae:	95 e0       	ldi	r25, 0x05	; 5
    1ab0:	8e 89       	ldd	r24, Y+22	; 0x16
    1ab2:	89 17       	cp	r24, r25
    1ab4:	c0 f4       	brcc	.+48     	; 0x1ae6 <ExecDig2>
    1ab6:	82 30       	cpi	r24, 0x02	; 2
    1ab8:	29 f4       	brne	.+10     	; 0x1ac4 <ExecDig+0x38>
    1aba:	98 ad       	ldd	r25, Y+56	; 0x38
    1abc:	90 33       	cpi	r25, 0x30	; 48
    1abe:	11 f4       	brne	.+4      	; 0x1ac4 <ExecDig+0x38>
    1ac0:	78 af       	std	Y+56, r23	; 0x38
    1ac2:	c3 cd       	rjmp	.-1146   	; 0x164a <Disp>
    1ac4:	9d 89       	ldd	r25, Y+21	; 0x15
    1ac6:	98 0f       	add	r25, r24
    1ac8:	9d 8b       	std	Y+21, r25	; 0x15
    1aca:	1e 8a       	std	Y+22, r1	; 0x16
    1acc:	8f 93       	push	r24
    1ace:	88 df       	rcall	.-240    	; 0x19e0 <TextBufShiftL>
    1ad0:	8f 91       	pop	r24
    1ad2:	9d 89       	ldd	r25, Y+21	; 0x15
    1ad4:	28 f0       	brcs	.+10     	; 0x1ae0 <ExecDig+0x54>
    1ad6:	83 95       	inc	r24
    1ad8:	98 1b       	sub	r25, r24
    1ada:	9d 8b       	std	Y+21, r25	; 0x15
    1adc:	8e 8b       	std	Y+22, r24	; 0x16
    1ade:	b5 cd       	rjmp	.-1174   	; 0x164a <Disp>
    1ae0:	98 1b       	sub	r25, r24
    1ae2:	9d 8b       	std	Y+21, r25	; 0x15
    1ae4:	8e 8b       	std	Y+22, r24	; 0x16

00001ae6 <ExecDig2>:
    1ae6:	e9 e3       	ldi	r30, 0x39	; 57
    1ae8:	f1 e0       	ldi	r31, 0x01	; 1
    1aea:	8a 95       	dec	r24
    1aec:	92 91       	ld	r25, -Z
    1aee:	70 83       	st	Z, r23
    1af0:	79 2f       	mov	r23, r25
    1af2:	8a 95       	dec	r24
    1af4:	d9 f7       	brne	.-10     	; 0x1aec <ExecDig2+0x6>
    1af6:	a9 cd       	rjmp	.-1198   	; 0x164a <Disp>

00001af8 <ExecDig3>:
    1af8:	08 95       	ret

00001afa <ExecDig4>:
    1afa:	8e 8d       	ldd	r24, Y+30	; 0x1e
    1afc:	80 30       	cpi	r24, 0x00	; 0
    1afe:	11 f4       	brne	.+4      	; 0x1b04 <ExecDig4+0xa>
    1b00:	7a 33       	cpi	r23, 0x3A	; 58
    1b02:	d0 f7       	brcc	.-12     	; 0x1af8 <ExecDig3>
    1b04:	81 30       	cpi	r24, 0x01	; 1
    1b06:	11 f4       	brne	.+4      	; 0x1b0c <ExecDig4+0x12>
    1b08:	72 33       	cpi	r23, 0x32	; 50
    1b0a:	b0 f7       	brcc	.-20     	; 0x1af8 <ExecDig3>
    1b0c:	82 30       	cpi	r24, 0x02	; 2
    1b0e:	11 f4       	brne	.+4      	; 0x1b14 <ExecDig4+0x1a>
    1b10:	78 33       	cpi	r23, 0x38	; 56
    1b12:	90 f7       	brcc	.-28     	; 0x1af8 <ExecDig3>
    1b14:	8d 89       	ldd	r24, Y+21	; 0x15
    1b16:	82 30       	cpi	r24, 0x02	; 2
    1b18:	51 f4       	brne	.+20     	; 0x1b2e <ExecDig4+0x34>
    1b1a:	e8 e3       	ldi	r30, 0x38	; 56
    1b1c:	f1 e0       	ldi	r31, 0x01	; 1
    1b1e:	8e 89       	ldd	r24, Y+22	; 0x16
    1b20:	e8 1b       	sub	r30, r24
    1b22:	f1 09       	sbc	r31, r1
    1b24:	80 81       	ld	r24, Z
    1b26:	80 33       	cpi	r24, 0x30	; 48
    1b28:	11 f4       	brne	.+4      	; 0x1b2e <ExecDig4+0x34>
    1b2a:	70 83       	st	Z, r23
    1b2c:	01 c0       	rjmp	.+2      	; 0x1b30 <ExecDig4+0x36>
    1b2e:	58 df       	rcall	.-336    	; 0x19e0 <TextBufShiftL>
    1b30:	8c cd       	rjmp	.-1256   	; 0x164a <Disp>

00001b32 <EditRestart>:
    1b32:	87 e0       	ldi	r24, 0x07	; 7
    1b34:	c8 d0       	rcall	.+400    	; 0x1cc6 <_CalcGetMem>
    1b36:	0e 94 0e 20 	call	0x401c	; 0x401c <DecNumDef>
    1b3a:	f0 9a       	sbi	0x1e, 0	; 30
    1b3c:	0e 94 cf 21 	call	0x439e	; 0x439e <EncNum>
    1b40:	87 e0       	ldi	r24, 0x07	; 7
    1b42:	c6 c0       	rjmp	.+396    	; 0x1cd0 <_CalcSetMemDel>

00001b44 <ExecEe>:
    1b44:	39 f0       	breq	.+14     	; 0x1b54 <ExecEe2>
    1b46:	7e de       	rcall	.-772    	; 0x1844 <FlagTestEng>
    1b48:	21 f4       	brne	.+8      	; 0x1b52 <ExecEe+0xe>
    1b4a:	47 de       	rcall	.-882    	; 0x17da <FlagClrEE>
    1b4c:	f1 9a       	sbi	0x1e, 1	; 30
    1b4e:	f0 99       	sbic	0x1e, 0	; 30
    1b50:	2a d0       	rcall	.+84     	; 0x1ba6 <StopExp>
    1b52:	7b cd       	rjmp	.-1290   	; 0x164a <Disp>

00001b54 <ExecEe2>:
    1b54:	f0 9b       	sbis	0x1e, 0	; 30
    1b56:	ed df       	rcall	.-38     	; 0x1b32 <EditRestart>

00001b58 <ExecEe4>:
    1b58:	75 de       	rcall	.-790    	; 0x1844 <FlagTestEng>
    1b5a:	19 f4       	brne	.+6      	; 0x1b62 <ExecEe6>
    1b5c:	0b de       	rcall	.-1002   	; 0x1774 <FlagSetEE>
    1b5e:	f1 9a       	sbi	0x1e, 1	; 30
    1b60:	d8 dc       	rcall	.-1616   	; 0x1512 <DispFlags>

00001b62 <ExecEe6>:
    1b62:	8e 89       	ldd	r24, Y+22	; 0x16
    1b64:	88 23       	and	r24, r24
    1b66:	69 f4       	brne	.+26     	; 0x1b82 <ExecEe9>
    1b68:	7b e2       	ldi	r23, 0x2B	; 43
    1b6a:	3a df       	rcall	.-396    	; 0x19e0 <TextBufShiftL>
    1b6c:	58 f0       	brcs	.+22     	; 0x1b84 <ExecEe9+0x2>
    1b6e:	70 e3       	ldi	r23, 0x30	; 48
    1b70:	37 df       	rcall	.-402    	; 0x19e0 <TextBufShiftL>
    1b72:	10 f4       	brcc	.+4      	; 0x1b78 <ExecEe6+0x16>
    1b74:	57 df       	rcall	.-338    	; 0x1a24 <TextBufShiftR>
    1b76:	69 cd       	rjmp	.-1326   	; 0x164a <Disp>
    1b78:	8d 89       	ldd	r24, Y+21	; 0x15
    1b7a:	82 50       	subi	r24, 0x02	; 2
    1b7c:	8d 8b       	std	Y+21, r24	; 0x15
    1b7e:	82 e0       	ldi	r24, 0x02	; 2
    1b80:	8e 8b       	std	Y+22, r24	; 0x16

00001b82 <ExecEe9>:
    1b82:	04 de       	rcall	.-1016   	; 0x178c <FlagSetExp>
    1b84:	62 cd       	rjmp	.-1340   	; 0x164a <Disp>

00001b86 <ExecEng>:
    1b86:	11 f0       	breq	.+4      	; 0x1b8c <ExecEng+0x6>
    1b88:	2b de       	rcall	.-938    	; 0x17e0 <FlagClrEng>
    1b8a:	01 c0       	rjmp	.+2      	; 0x1b8e <ExecEng+0x8>
    1b8c:	f6 dd       	rcall	.-1044   	; 0x177a <FlagSetEng>
    1b8e:	25 de       	rcall	.-950    	; 0x17da <FlagClrEE>

00001b90 <ExecFix4>:
    1b90:	6e df       	rcall	.-292    	; 0x1a6e <EditStop>
    1b92:	5b cd       	rjmp	.-1354   	; 0x164a <Disp>

00001b94 <ExecFix>:
    1b94:	21 f0       	breq	.+8      	; 0x1b9e <ExecFix+0xa>
    1b96:	6b df       	rcall	.-298    	; 0x1a6e <EditStop>
    1b98:	8f e0       	ldi	r24, 0x0F	; 15
    1b9a:	8f 8b       	std	Y+23, r24	; 0x17
    1b9c:	56 cd       	rjmp	.-1364   	; 0x164a <Disp>
    1b9e:	67 df       	rcall	.-306    	; 0x1a6e <EditStop>
    1ba0:	0e da       	rcall	.-3044   	; 0xfbe <Load1Dig>
    1ba2:	d8 f7       	brcc	.-10     	; 0x1b9a <ExecFix+0x6>
    1ba4:	08 95       	ret

00001ba6 <StopExp>:
    1ba6:	25 de       	rcall	.-950    	; 0x17f2 <FlagClrExp>
    1ba8:	8e 89       	ldd	r24, Y+22	; 0x16
    1baa:	82 30       	cpi	r24, 0x02	; 2
    1bac:	49 f4       	brne	.+18     	; 0x1bc0 <StopExp+0x1a>
    1bae:	88 ad       	ldd	r24, Y+56	; 0x38
    1bb0:	80 33       	cpi	r24, 0x30	; 48
    1bb2:	31 f4       	brne	.+12     	; 0x1bc0 <StopExp+0x1a>
    1bb4:	1e 8a       	std	Y+22, r1	; 0x16
    1bb6:	8d 89       	ldd	r24, Y+21	; 0x15
    1bb8:	8e 5f       	subi	r24, 0xFE	; 254
    1bba:	8d 8b       	std	Y+21, r24	; 0x15
    1bbc:	33 df       	rcall	.-410    	; 0x1a24 <TextBufShiftR>
    1bbe:	32 df       	rcall	.-412    	; 0x1a24 <TextBufShiftR>
    1bc0:	08 95       	ret

00001bc2 <ExecDot>:
    1bc2:	51 f4       	brne	.+20     	; 0x1bd8 <ExecDot8>
    1bc4:	f0 9b       	sbis	0x1e, 0	; 30
    1bc6:	4f df       	rcall	.-354    	; 0x1a66 <EditStart>
    1bc8:	ee df       	rcall	.-36     	; 0x1ba6 <StopExp>
    1bca:	45 de       	rcall	.-886    	; 0x1856 <FlagTestDP>
    1bcc:	21 f4       	brne	.+8      	; 0x1bd6 <ExecDot+0x14>
    1bce:	7e e2       	ldi	r23, 0x2E	; 46
    1bd0:	07 df       	rcall	.-498    	; 0x19e0 <TextBufShiftL>
    1bd2:	08 f0       	brcs	.+2      	; 0x1bd6 <ExecDot+0x14>
    1bd4:	d8 dd       	rcall	.-1104   	; 0x1786 <FlagSetDP>
    1bd6:	39 cd       	rjmp	.-1422   	; 0x164a <Disp>

00001bd8 <ExecDot8>:
    1bd8:	f0 9b       	sbis	0x1e, 0	; 30
    1bda:	ab df       	rcall	.-170    	; 0x1b32 <EditRestart>
    1bdc:	36 cd       	rjmp	.-1428   	; 0x164a <Disp>

00001bde <ExecNeg>:
    1bde:	f0 99       	sbic	0x1e, 0	; 30
    1be0:	05 c0       	rjmp	.+10     	; 0x1bec <ExecNeg+0xe>
    1be2:	f1 9a       	sbi	0x1e, 1	; 30
    1be4:	72 d0       	rcall	.+228    	; 0x1cca <_Calc>
    1be6:	c7 41       	sbci	r28, 0x17	; 23
    1be8:	e7 01       	movw	r28, r14
    1bea:	2f cd       	rjmp	.-1442   	; 0x164a <Disp>
    1bec:	e9 e3       	ldi	r30, 0x39	; 57
    1bee:	f1 e0       	ldi	r31, 0x01	; 1
    1bf0:	9b e2       	ldi	r25, 0x2B	; 43
    1bf2:	8e 89       	ldd	r24, Y+22	; 0x16
    1bf4:	e8 1b       	sub	r30, r24
    1bf6:	f1 09       	sbc	r31, r1
    1bf8:	31 de       	rcall	.-926    	; 0x185c <FlagTestExp>
    1bfa:	51 f4       	brne	.+20     	; 0x1c10 <ExecNeg+0x32>
    1bfc:	90 e2       	ldi	r25, 0x20	; 32
    1bfe:	8d 89       	ldd	r24, Y+21	; 0x15
    1c00:	e8 1b       	sub	r30, r24
    1c02:	f1 09       	sbc	r31, r1
    1c04:	80 81       	ld	r24, Z
    1c06:	8d 32       	cpi	r24, 0x2D	; 45
    1c08:	39 f0       	breq	.+14     	; 0x1c18 <ExecNeg+0x3a>
    1c0a:	80 32       	cpi	r24, 0x20	; 32
    1c0c:	21 f0       	breq	.+8      	; 0x1c16 <ExecNeg+0x38>
    1c0e:	08 95       	ret
    1c10:	80 81       	ld	r24, Z
    1c12:	8d 32       	cpi	r24, 0x2D	; 45
    1c14:	09 f0       	breq	.+2      	; 0x1c18 <ExecNeg+0x3a>
    1c16:	9d e2       	ldi	r25, 0x2D	; 45
    1c18:	90 83       	st	Z, r25
    1c1a:	17 cd       	rjmp	.-1490   	; 0x164a <Disp>

00001c1c <ExecOverOff>:
    1c1c:	0e 94 68 26 	call	0x4cd0	; 0x4cd0 <CalcAddrMem>
    1c20:	90 81       	ld	r25, Z
    1c22:	81 81       	ldd	r24, Z+1	; 0x01
    1c24:	01 96       	adiw	r24, 0x01	; 1
    1c26:	29 f4       	brne	.+10     	; 0x1c32 <ExecOverOff+0x16>
    1c28:	82 81       	ldd	r24, Z+2	; 0x02
    1c2a:	0e 94 dd 23 	call	0x47ba	; 0x47ba <CalcZMax>
    1c2e:	8f 67       	ori	r24, 0x7F	; 127
    1c30:	82 83       	std	Z+2, r24	; 0x02
    1c32:	08 95       	ret

00001c34 <ClearErr>:
    1c34:	f4 98       	cbi	0x1e, 4	; 30
    1c36:	f5 98       	cbi	0x1e, 5	; 30
    1c38:	08 cd       	rjmp	.-1520   	; 0x164a <Disp>

00001c3a <DelDot>:
    1c3a:	f0 9b       	sbis	0x1e, 0	; 30
    1c3c:	08 95       	ret
    1c3e:	5e 89       	ldd	r21, Y+22	; 0x16
    1c40:	55 23       	and	r21, r21
    1c42:	11 f0       	breq	.+4      	; 0x1c48 <DelDot+0xe>
    1c44:	a3 dd       	rcall	.-1210   	; 0x178c <FlagSetExp>
    1c46:	02 c0       	rjmp	.+4      	; 0x1c4c <DelDot+0x12>
    1c48:	06 de       	rcall	.-1012   	; 0x1856 <FlagTestDP>
    1c4a:	11 f0       	breq	.+4      	; 0x1c50 <DelDot+0x16>
    1c4c:	10 d0       	rcall	.+32     	; 0x1c6e <ExecCe4>
    1c4e:	f7 cf       	rjmp	.-18     	; 0x1c3e <DelDot+0x4>
    1c50:	08 95       	ret

00001c52 <ExecCe>:
    1c52:	f4 99       	sbic	0x1e, 4	; 30
    1c54:	02 c0       	rjmp	.+4      	; 0x1c5a <ExecCe+0x8>
    1c56:	f5 9b       	sbis	0x1e, 5	; 30
    1c58:	08 c0       	rjmp	.+16     	; 0x1c6a <ExecCe2>
    1c5a:	ec df       	rcall	.-40     	; 0x1c34 <ClearErr>
    1c5c:	87 e0       	ldi	r24, 0x07	; 7
    1c5e:	de df       	rcall	.-68     	; 0x1c1c <ExecOverOff>
    1c60:	86 e0       	ldi	r24, 0x06	; 6
    1c62:	dc df       	rcall	.-72     	; 0x1c1c <ExecOverOff>
    1c64:	85 e0       	ldi	r24, 0x05	; 5
    1c66:	da df       	rcall	.-76     	; 0x1c1c <ExecOverOff>
    1c68:	f0 cc       	rjmp	.-1568   	; 0x164a <Disp>

00001c6a <ExecCe2>:
    1c6a:	f0 9b       	sbis	0x1e, 0	; 30
    1c6c:	2a c0       	rjmp	.+84     	; 0x1cc2 <ExecCe9>

00001c6e <ExecCe4>:
    1c6e:	5e 89       	ldd	r21, Y+22	; 0x16
    1c70:	f5 dd       	rcall	.-1046   	; 0x185c <FlagTestExp>
    1c72:	b9 f0       	breq	.+46     	; 0x1ca2 <ExecCe4+0x34>
    1c74:	52 30       	cpi	r21, 0x02	; 2
    1c76:	41 f4       	brne	.+16     	; 0x1c88 <ExecCe4+0x1a>
    1c78:	98 ad       	ldd	r25, Y+56	; 0x38
    1c7a:	90 33       	cpi	r25, 0x30	; 48
    1c7c:	11 f4       	brne	.+4      	; 0x1c82 <ExecCe4+0x14>
    1c7e:	93 df       	rcall	.-218    	; 0x1ba6 <StopExp>
    1c80:	21 c0       	rjmp	.+66     	; 0x1cc4 <ExecCe10>
    1c82:	90 e3       	ldi	r25, 0x30	; 48
    1c84:	98 af       	std	Y+56, r25	; 0x38
    1c86:	1e c0       	rjmp	.+60     	; 0x1cc4 <ExecCe10>
    1c88:	55 23       	and	r21, r21
    1c8a:	e1 f0       	breq	.+56     	; 0x1cc4 <ExecCe10>
    1c8c:	6d 89       	ldd	r22, Y+21	; 0x15
    1c8e:	65 0f       	add	r22, r21
    1c90:	6d 8b       	std	Y+21, r22	; 0x15
    1c92:	1e 8a       	std	Y+22, r1	; 0x16
    1c94:	c7 de       	rcall	.-626    	; 0x1a24 <TextBufShiftR>
    1c96:	6d 89       	ldd	r22, Y+21	; 0x15
    1c98:	5a 95       	dec	r21
    1c9a:	65 1b       	sub	r22, r21
    1c9c:	6d 8b       	std	Y+21, r22	; 0x15
    1c9e:	5e 8b       	std	Y+22, r21	; 0x16
    1ca0:	11 c0       	rjmp	.+34     	; 0x1cc4 <ExecCe10>
    1ca2:	e8 e3       	ldi	r30, 0x38	; 56
    1ca4:	f1 e0       	ldi	r31, 0x01	; 1
    1ca6:	e5 1b       	sub	r30, r21
    1ca8:	f1 09       	sbc	r31, r1
    1caa:	6d 89       	ldd	r22, Y+21	; 0x15
    1cac:	62 30       	cpi	r22, 0x02	; 2
    1cae:	19 f4       	brne	.+6      	; 0x1cb6 <ExecCe4+0x48>
    1cb0:	80 e3       	ldi	r24, 0x30	; 48
    1cb2:	80 83       	st	Z, r24
    1cb4:	ca cc       	rjmp	.-1644   	; 0x164a <Disp>
    1cb6:	80 81       	ld	r24, Z
    1cb8:	8e 32       	cpi	r24, 0x2E	; 46
    1cba:	09 f4       	brne	.+2      	; 0x1cbe <ExecCe4+0x50>
    1cbc:	97 dd       	rcall	.-1234   	; 0x17ec <FlagClrDP>
    1cbe:	b2 de       	rcall	.-668    	; 0x1a24 <TextBufShiftR>
    1cc0:	c4 cc       	rjmp	.-1656   	; 0x164a <Disp>

00001cc2 <ExecCe9>:
    1cc2:	f1 9a       	sbi	0x1e, 1	; 30

00001cc4 <ExecCe10>:
    1cc4:	c2 cc       	rjmp	.-1660   	; 0x164a <Disp>

00001cc6 <_CalcGetMem>:
    1cc6:	0c 94 75 26 	jmp	0x4cea	; 0x4cea <CalcGetMem>

00001cca <_Calc>:
    1cca:	0c 94 16 26 	jmp	0x4c2c	; 0x4c2c <Calc>

00001cce <_CalcSetMemDelX>:
    1cce:	87 e0       	ldi	r24, 0x07	; 7

00001cd0 <_CalcSetMemDel>:
    1cd0:	0c 94 73 26 	jmp	0x4ce6	; 0x4ce6 <CalcSetMemDel>

00001cd4 <_DispChar>:
    1cd4:	0c 94 40 05 	jmp	0xa80	; 0xa80 <DispChar>

00001cd8 <_CalcConst>:
    1cd8:	0c 94 3c 25 	jmp	0x4a78	; 0x4a78 <CalcConst>

00001cdc <_EditStop>:
    1cdc:	0c 94 37 0d 	jmp	0x1a6e	; 0x1a6e <EditStop>

00001ce0 <__Disp>:
    1ce0:	0c 94 25 0b 	jmp	0x164a	; 0x164a <Disp>

00001ce4 <MainProgText>:
    1ce4:	4d 61       	ori	r20, 0x1D	; 29
    1ce6:	69 6e       	ori	r22, 0xE9	; 233
    1ce8:	20 50       	subi	r18, 0x00	; 0
    1cea:	72 6f       	ori	r23, 0xF2	; 242
    1cec:	67 72       	andi	r22, 0x27	; 39
    1cee:	61 6d       	ori	r22, 0xD1	; 209
	...

00001cf2 <ClearTxt>:
    1cf2:	20 43       	sbci	r18, 0x30	; 48
    1cf4:	6c 65       	ori	r22, 0x5C	; 92
    1cf6:	61 72       	andi	r22, 0x21	; 33
    1cf8:	3f 20       	and	r3, r15
    1cfa:	28 31       	cpi	r18, 0x18	; 24
    1cfc:	3d 59       	subi	r19, 0x9D	; 157
    1cfe:	45 53       	subi	r20, 0x35	; 53
    1d00:	29 20       	and	r2, r9
	...

00001d04 <ExecIfTab>:
    1d04:	31 36       	cpi	r19, 0x61	; 97
    1d06:	37 31       	cpi	r19, 0x17	; 23
    1d08:	35 33       	cpi	r19, 0x35	; 53
    1d0a:	32 35       	cpi	r19, 0x52	; 82

00001d0c <ExecClr>:
    1d0c:	0e 94 34 26 	call	0x4c68	; 0x4c68 <CalcInit>
    1d10:	91 df       	rcall	.-222    	; 0x1c34 <ClearErr>
    1d12:	8a dd       	rcall	.-1260   	; 0x1828 <FlagClrDispText>
    1d14:	0e 94 8e 05 	call	0xb1c	; 0xb1c <LCD_SetFontDef>
    1d18:	1a 86       	std	Y+10, r1	; 0x0a
    1d1a:	5f dd       	rcall	.-1346   	; 0x17da <FlagClrEE>
    1d1c:	a4 de       	rcall	.-696    	; 0x1a66 <EditStart>
    1d1e:	f9 cb       	rjmp	.-2062   	; 0x1512 <DispFlags>

00001d20 <Exec2nd>:
    1d20:	8a 85       	ldd	r24, Y+10	; 0x0a
    1d22:	83 95       	inc	r24
    1d24:	83 30       	cpi	r24, 0x03	; 3
    1d26:	08 f0       	brcs	.+2      	; 0x1d2a <Exec2nd+0xa>
    1d28:	80 e0       	ldi	r24, 0x00	; 0
    1d2a:	8a 87       	std	Y+10, r24	; 0x0a
    1d2c:	f2 cb       	rjmp	.-2076   	; 0x1512 <DispFlags>

00001d2e <ExecInv>:
    1d2e:	77 23       	and	r23, r23
    1d30:	11 f0       	breq	.+4      	; 0x1d36 <ExecInv+0x8>
    1d32:	4a dd       	rcall	.-1388   	; 0x17c8 <FlagClrInv>
    1d34:	ee cb       	rjmp	.-2084   	; 0x1512 <DispFlags>
    1d36:	15 dd       	rcall	.-1494   	; 0x1762 <FlagSetInv>
    1d38:	ec cb       	rjmp	.-2088   	; 0x1512 <DispFlags>

00001d3a <ExecCp>:
    1d3a:	d0 df       	rcall	.-96     	; 0x1cdc <_EditStop>
    1d3c:	80 e0       	ldi	r24, 0x00	; 0
    1d3e:	cc df       	rcall	.-104    	; 0x1cd8 <_CalcConst>
    1d40:	86 e0       	ldi	r24, 0x06	; 6
    1d42:	c6 df       	rcall	.-116    	; 0x1cd0 <_CalcSetMemDel>
    1d44:	f2 99       	sbic	0x1e, 2	; 30
    1d46:	08 95       	ret
    1d48:	88 a1       	ldd	r24, Y+32	; 0x20
    1d4a:	88 23       	and	r24, r24
    1d4c:	c1 f4       	brne	.+48     	; 0x1d7e <ExecCp+0x44>
    1d4e:	0e 94 c0 05 	call	0xb80	; 0xb80 <DispSetRow1>
    1d52:	e2 ef       	ldi	r30, 0xF2	; 242
    1d54:	fc e1       	ldi	r31, 0x1C	; 28
    1d56:	0e 94 c7 05 	call	0xb8e	; 0xb8e <DispTextRom>
    1d5a:	8f ef       	ldi	r24, 0xFF	; 255
    1d5c:	0e 94 5a 04 	call	0x8b4	; 0x8b4 <ReturnKey>
    1d60:	0e 94 5c 04 	call	0x8b8	; 0x8b8 <WaitKey>
    1d64:	81 30       	cpi	r24, 0x01	; 1
    1d66:	51 f4       	brne	.+20     	; 0x1d7c <ExecCp+0x42>
    1d68:	b8 dc       	rcall	.-1680   	; 0x16da <DispC>
    1d6a:	a7 ee       	ldi	r26, 0xE7	; 231
    1d6c:	b3 e0       	ldi	r27, 0x03	; 3
    1d6e:	9f ef       	ldi	r25, 0xFF	; 255
    1d70:	0e 94 73 04 	call	0x8e6	; 0x8e6 <EEWrite>
    1d74:	11 97       	sbiw	r26, 0x01	; 1
    1d76:	e2 f7       	brpl	.-8      	; 0x1d70 <ExecCp+0x36>
    1d78:	1c 8e       	std	Y+28, r1	; 0x1c
    1d7a:	1d 8e       	std	Y+29, r1	; 0x1d
    1d7c:	66 cc       	rjmp	.-1844   	; 0x164a <Disp>
    1d7e:	08 95       	ret

00001d80 <ExecCode>:
    1d80:	f2 99       	sbic	0x1e, 2	; 30
    1d82:	08 95       	ret
    1d84:	0e 94 0e 08 	call	0x101c	; 0x101c <Load2Hex>
    1d88:	0c 94 5a 04 	jmp	0x8b4	; 0x8b4 <ReturnKey>

00001d8c <ExecXt>:
    1d8c:	a7 df       	rcall	.-178    	; 0x1cdc <_EditStop>
    1d8e:	9d df       	rcall	.-198    	; 0x1cca <_Calc>
    1d90:	c7 c6       	rjmp	.+3470   	; 0x2b20 <NumTextTab+0x18a>
    1d92:	e7 e6       	ldi	r30, 0x67	; 103
    1d94:	01 00       	.word	0x0001	; ????
    1d96:	59 cc       	rjmp	.-1870   	; 0x164a <Disp>

00001d98 <ExecXy>:
    1d98:	a1 df       	rcall	.-190    	; 0x1cdc <_EditStop>
    1d9a:	9b 89       	ldd	r25, Y+19	; 0x13
    1d9c:	99 23       	and	r25, r25
    1d9e:	49 f4       	brne	.+18     	; 0x1db2 <ExecXy+0x1a>
    1da0:	0e 94 25 1d 	call	0x3a4a	; 0x3a4a <ExecLevel>
    1da4:	8f 70       	andi	r24, 0x0F	; 15
    1da6:	29 f4       	brne	.+10     	; 0x1db2 <ExecXy+0x1a>
    1da8:	90 df       	rcall	.-224    	; 0x1cca <_Calc>
    1daa:	c7 c5       	rjmp	.+2958   	; 0x293a <ExecTab+0x138>
    1dac:	e7 e5       	ldi	r30, 0x57	; 87
    1dae:	01 00       	.word	0x0001	; ????
    1db0:	4c cc       	rjmp	.-1896   	; 0x164a <Disp>
    1db2:	87 e0       	ldi	r24, 0x07	; 7
    1db4:	0e 94 68 26 	call	0x4cd0	; 0x4cd0 <CalcAddrMem>
    1db8:	aa e0       	ldi	r26, 0x0A	; 10
    1dba:	9a 9f       	mul	r25, r26
    1dbc:	d0 01       	movw	r26, r0
    1dbe:	af 5f       	subi	r26, 0xFF	; 255
    1dc0:	b8 4f       	sbci	r27, 0xF8	; 248
    1dc2:	11 24       	eor	r1, r1
    1dc4:	0e 94 0a 29 	call	0x5214	; 0x5214 <CalcExcXZ>
    1dc8:	40 cc       	rjmp	.-1920   	; 0x164a <Disp>

00001dca <ExecPgmInd>:
    1dca:	86 d0       	rcall	.+268    	; 0x1ed8 <ExecMemNum>
    1dcc:	c0 f0       	brcs	.+48     	; 0x1dfe <ExecPgm9>
    1dce:	7b df       	rcall	.-266    	; 0x1cc6 <_CalcGetMem>
    1dd0:	0e 94 59 2a 	call	0x54b2	; 0x54b2 <CalcUnstackB>
    1dd4:	a0 f0       	brcs	.+40     	; 0x1dfe <ExecPgm9>
    1dd6:	99 f4       	brne	.+38     	; 0x1dfe <ExecPgm9>
    1dd8:	0a c0       	rjmp	.+20     	; 0x1dee <ExecPgm2>

00001dda <ExecPgm>:
    1dda:	31 f0       	breq	.+12     	; 0x1de8 <ExecPgm+0xe>
    1ddc:	7f df       	rcall	.-258    	; 0x1cdc <_EditStop>
    1dde:	88 a1       	ldd	r24, Y+32	; 0x20
    1de0:	6b d0       	rcall	.+214    	; 0x1eb8 <ExecLoadByte>
    1de2:	f2 99       	sbic	0x1e, 2	; 30
    1de4:	08 95       	ret
    1de6:	1d c0       	rjmp	.+58     	; 0x1e22 <ExdecPgm6>
    1de8:	0e 94 f3 07 	call	0xfe6	; 0xfe6 <Load2Dig>
    1dec:	40 f0       	brcs	.+16     	; 0x1dfe <ExecPgm9>

00001dee <ExecPgm2>:
    1dee:	9f 8d       	ldd	r25, Y+31	; 0x1f
    1df0:	98 17       	cp	r25, r24
    1df2:	10 f4       	brcc	.+4      	; 0x1df8 <ExecPgm2+0xa>
    1df4:	0c 94 3d 29 	jmp	0x527a	; 0x527a <CalcError>
    1df8:	f2 99       	sbic	0x1e, 2	; 30
    1dfa:	89 a3       	std	Y+33, r24	; 0x21
    1dfc:	f2 99       	sbic	0x1e, 2	; 30

00001dfe <ExecPgm9>:
    1dfe:	08 95       	ret
    1e00:	98 a1       	ldd	r25, Y+32	; 0x20
    1e02:	99 23       	and	r25, r25
    1e04:	21 f4       	brne	.+8      	; 0x1e0e <ExecPgm9+0x10>
    1e06:	9c 8d       	ldd	r25, Y+28	; 0x1c
    1e08:	9e a3       	std	Y+38, r25	; 0x26
    1e0a:	9d 8d       	ldd	r25, Y+29	; 0x1d
    1e0c:	9f a3       	std	Y+39, r25	; 0x27
    1e0e:	59 d8       	rcall	.-3918   	; 0xec2 <OpenProg>
    1e10:	88 a1       	ldd	r24, Y+32	; 0x20
    1e12:	88 23       	and	r24, r24
    1e14:	8e a1       	ldd	r24, Y+38	; 0x26
    1e16:	9f a1       	ldd	r25, Y+39	; 0x27
    1e18:	11 f0       	breq	.+4      	; 0x1e1e <ExecPgm9+0x20>
    1e1a:	8a a1       	ldd	r24, Y+34	; 0x22
    1e1c:	9b a1       	ldd	r25, Y+35	; 0x23
    1e1e:	8c 8f       	std	Y+28, r24	; 0x1c
    1e20:	9d 8f       	std	Y+29, r25	; 0x1d

00001e22 <ExdecPgm6>:
    1e22:	0e 94 c0 05 	call	0xb80	; 0xb80 <DispSetRow1>
    1e26:	88 a1       	ldd	r24, Y+32	; 0x20
    1e28:	88 23       	and	r24, r24
    1e2a:	29 f4       	brne	.+10     	; 0x1e36 <ExdecPgm6+0x14>
    1e2c:	e4 ee       	ldi	r30, 0xE4	; 228
    1e2e:	fc e1       	ldi	r31, 0x1C	; 28
    1e30:	0e 94 c7 05 	call	0xb8e	; 0xb8e <DispTextRom>
    1e34:	18 c0       	rjmp	.+48     	; 0x1e66 <ExdecPgm6+0x44>
    1e36:	8f 8d       	ldd	r24, Y+31	; 0x1f
    1e38:	83 95       	inc	r24
    1e3a:	37 d8       	rcall	.-3986   	; 0xeaa <GetProgAddr>
    1e3c:	85 91       	lpm	r24, Z+
    1e3e:	4a df       	rcall	.-364    	; 0x1cd4 <_DispChar>
    1e40:	84 91       	lpm	r24, Z+
    1e42:	48 df       	rcall	.-368    	; 0x1cd4 <_DispChar>
    1e44:	8d e2       	ldi	r24, 0x2D	; 45
    1e46:	46 df       	rcall	.-372    	; 0x1cd4 <_DispChar>
    1e48:	88 a1       	ldd	r24, Y+32	; 0x20
    1e4a:	ae dd       	rcall	.-1188   	; 0x19a8 <Disp2Dig>
    1e4c:	0e 94 d0 05 	call	0xba0	; 0xba0 <DispSpc>
    1e50:	88 e2       	ldi	r24, 0x28	; 40
    1e52:	40 df       	rcall	.-384    	; 0x1cd4 <_DispChar>
    1e54:	8c a1       	ldd	r24, Y+36	; 0x24
    1e56:	9d a1       	ldd	r25, Y+37	; 0x25
    1e58:	ea a1       	ldd	r30, Y+34	; 0x22
    1e5a:	8e 1b       	sub	r24, r30
    1e5c:	eb a1       	ldd	r30, Y+35	; 0x23
    1e5e:	9e 0b       	sbc	r25, r30
    1e60:	99 dd       	rcall	.-1230   	; 0x1994 <Disp3Dig>
    1e62:	89 e2       	ldi	r24, 0x29	; 41
    1e64:	37 df       	rcall	.-402    	; 0x1cd4 <_DispChar>
    1e66:	0e 94 da 05 	call	0xbb4	; 0xbb4 <DispSpcClr>
    1e6a:	0e 94 8b 03 	call	0x716	; 0x716 <Wait250ms>
    1e6e:	0e 94 8b 03 	call	0x716	; 0x716 <Wait250ms>
    1e72:	0e 94 8b 03 	call	0x716	; 0x716 <Wait250ms>
    1e76:	4d cb       	rjmp	.-2406   	; 0x1512 <DispFlags>

00001e78 <ExecPr>:
    1e78:	39 f0       	breq	.+14     	; 0x1e88 <ExecPr4>
    1e7a:	30 df       	rcall	.-416    	; 0x1cdc <_EditStop>
    1e7c:	26 df       	rcall	.-436    	; 0x1cca <_Calc>
    1e7e:	c6 c7       	rjmp	.+3980   	; 0x2e0c <CpxDel3+0x4>
    1e80:	5c 5a       	subi	r21, 0xAC	; 172
    1e82:	e7 e6       	ldi	r30, 0x67	; 103
    1e84:	01 00       	.word	0x0001	; ????
    1e86:	e1 cb       	rjmp	.-2110   	; 0x164a <Disp>

00001e88 <ExecPr4>:
    1e88:	29 df       	rcall	.-430    	; 0x1cdc <_EditStop>
    1e8a:	1f df       	rcall	.-450    	; 0x1cca <_Calc>
    1e8c:	c6 c7       	rjmp	.+3980   	; 0x2e1a <CpxNew+0xc>
    1e8e:	59 5b       	subi	r21, 0xB9	; 185
    1e90:	e7 e6       	ldi	r30, 0x67	; 103
    1e92:	01 00       	.word	0x0001	; ????
    1e94:	da cb       	rjmp	.-2124   	; 0x164a <Disp>

00001e96 <ExecLCD>:
    1e96:	71 f4       	brne	.+28     	; 0x1eb4 <ExecLCD+0x1e>
    1e98:	92 d8       	rcall	.-3804   	; 0xfbe <Load1Dig>
    1e9a:	58 f0       	brcs	.+22     	; 0x1eb2 <ExecLCD+0x1c>
    1e9c:	8a 30       	cpi	r24, 0x0A	; 10
    1e9e:	48 f4       	brcc	.+18     	; 0x1eb2 <ExecLCD+0x1c>
    1ea0:	8b 83       	std	Y+3, r24	; 0x03
    1ea2:	98 2f       	mov	r25, r24
    1ea4:	aa ef       	ldi	r26, 0xFA	; 250
    1ea6:	b3 e0       	ldi	r27, 0x03	; 3
    1ea8:	0e 94 73 04 	call	0x8e6	; 0x8e6 <EEWrite>
    1eac:	0e 94 62 05 	call	0xac4	; 0xac4 <LCD_Restore>
    1eb0:	cc db       	rcall	.-2152   	; 0x164a <Disp>
    1eb2:	08 95       	ret
    1eb4:	13 df       	rcall	.-474    	; 0x1cdc <_EditStop>
    1eb6:	8b 81       	ldd	r24, Y+3	; 0x03

00001eb8 <ExecLoadByte>:
    1eb8:	0e 94 13 2a 	call	0x5426	; 0x5426 <CalcStackB>
    1ebc:	08 df       	rcall	.-496    	; 0x1cce <_CalcSetMemDelX>
    1ebe:	f1 9a       	sbi	0x1e, 1	; 30
    1ec0:	c4 cb       	rjmp	.-2168   	; 0x164a <Disp>

00001ec2 <ExecInd>:
    1ec2:	0a d0       	rcall	.+20     	; 0x1ed8 <ExecMemNum>
    1ec4:	40 f0       	brcs	.+16     	; 0x1ed6 <ExecInd+0x14>
    1ec6:	ff de       	rcall	.-514    	; 0x1cc6 <_CalcGetMem>
    1ec8:	0e 94 59 2a 	call	0x54b2	; 0x54b2 <CalcUnstackB>
    1ecc:	10 f0       	brcs	.+4      	; 0x1ed2 <ExecInd+0x10>
    1ece:	09 f4       	brne	.+2      	; 0x1ed2 <ExecInd+0x10>
    1ed0:	38 c5       	rjmp	.+2672   	; 0x2942 <Exec>
    1ed2:	0e 94 3d 29 	call	0x527a	; 0x527a <CalcError>
    1ed6:	08 95       	ret

00001ed8 <ExecMemNum>:
    1ed8:	7f 93       	push	r23
    1eda:	00 df       	rcall	.-512    	; 0x1cdc <_EditStop>
    1edc:	0e 94 f3 07 	call	0xfe6	; 0xfe6 <Load2Dig>
    1ee0:	20 f0       	brcs	.+8      	; 0x1eea <ExecMemNum+0x12>
    1ee2:	8e 36       	cpi	r24, 0x6E	; 110
    1ee4:	20 f0       	brcs	.+8      	; 0x1eee <ExecMemNum+0x16>
    1ee6:	0e 94 3d 29 	call	0x527a	; 0x527a <CalcError>
    1eea:	7f 91       	pop	r23
    1eec:	08 95       	ret
    1eee:	88 5f       	subi	r24, 0xF8	; 248
    1ef0:	88 94       	clc
    1ef2:	7f 91       	pop	r23
    1ef4:	08 95       	ret

00001ef6 <ExecMemNumInd>:
    1ef6:	7f 93       	push	r23
    1ef8:	ef df       	rcall	.-34     	; 0x1ed8 <ExecMemNum>
    1efa:	68 f0       	brcs	.+26     	; 0x1f16 <ExecMemNumInd+0x20>
    1efc:	e4 de       	rcall	.-568    	; 0x1cc6 <_CalcGetMem>
    1efe:	0e 94 59 2a 	call	0x54b2	; 0x54b2 <CalcUnstackB>
    1f02:	38 f0       	brcs	.+14     	; 0x1f12 <ExecMemNumInd+0x1c>
    1f04:	31 f4       	brne	.+12     	; 0x1f12 <ExecMemNumInd+0x1c>
    1f06:	8e 36       	cpi	r24, 0x6E	; 110
    1f08:	20 f4       	brcc	.+8      	; 0x1f12 <ExecMemNumInd+0x1c>
    1f0a:	88 5f       	subi	r24, 0xF8	; 248
    1f0c:	7f 91       	pop	r23
    1f0e:	88 94       	clc
    1f10:	08 95       	ret
    1f12:	0e 94 3d 29 	call	0x527a	; 0x527a <CalcError>
    1f16:	7f 91       	pop	r23
    1f18:	08 95       	ret

00001f1a <ExecStoInd>:
    1f1a:	ed df       	rcall	.-38     	; 0x1ef6 <ExecMemNumInd>
    1f1c:	40 f0       	brcs	.+16     	; 0x1f2e <ExecSto9>
    1f1e:	02 c0       	rjmp	.+4      	; 0x1f24 <ExecSto2>

00001f20 <ExecSto>:
    1f20:	db df       	rcall	.-74     	; 0x1ed8 <ExecMemNum>
    1f22:	28 f0       	brcs	.+10     	; 0x1f2e <ExecSto9>

00001f24 <ExecSto2>:
    1f24:	8f 93       	push	r24
    1f26:	87 e0       	ldi	r24, 0x07	; 7
    1f28:	ce de       	rcall	.-612    	; 0x1cc6 <_CalcGetMem>
    1f2a:	8f 91       	pop	r24
    1f2c:	d1 ce       	rjmp	.-606    	; 0x1cd0 <_CalcSetMemDel>

00001f2e <ExecSto9>:
    1f2e:	08 95       	ret

00001f30 <ExecRclInd>:
    1f30:	e2 df       	rcall	.-60     	; 0x1ef6 <ExecMemNumInd>
    1f32:	e8 f3       	brcs	.-6      	; 0x1f2e <ExecSto9>
    1f34:	02 c0       	rjmp	.+4      	; 0x1f3a <ExecRcl2>

00001f36 <ExecRcl>:
    1f36:	d0 df       	rcall	.-96     	; 0x1ed8 <ExecMemNum>
    1f38:	d0 f3       	brcs	.-12     	; 0x1f2e <ExecSto9>

00001f3a <ExecRcl2>:
    1f3a:	c5 de       	rcall	.-630    	; 0x1cc6 <_CalcGetMem>
    1f3c:	c8 de       	rcall	.-624    	; 0x1cce <_CalcSetMemDelX>
    1f3e:	85 cb       	rjmp	.-2294   	; 0x164a <Disp>

00001f40 <ExecSumInd>:
    1f40:	da df       	rcall	.-76     	; 0x1ef6 <ExecMemNumInd>
    1f42:	a8 f3       	brcs	.-22     	; 0x1f2e <ExecSto9>
    1f44:	02 c0       	rjmp	.+4      	; 0x1f4a <ExecSum2>

00001f46 <ExecSum>:
    1f46:	c8 df       	rcall	.-112    	; 0x1ed8 <ExecMemNum>
    1f48:	90 f3       	brcs	.-28     	; 0x1f2e <ExecSto9>

00001f4a <ExecSum2>:
    1f4a:	8f 93       	push	r24
    1f4c:	7f 93       	push	r23
    1f4e:	bb de       	rcall	.-650    	; 0x1cc6 <_CalcGetMem>
    1f50:	87 e0       	ldi	r24, 0x07	; 7
    1f52:	b9 de       	rcall	.-654    	; 0x1cc6 <_CalcGetMem>
    1f54:	7f 91       	pop	r23
    1f56:	77 23       	and	r23, r23
    1f58:	11 f0       	breq	.+4      	; 0x1f5e <ExecSum2+0x14>
    1f5a:	0e 94 03 24 	call	0x4806	; 0x4806 <CalcNeg>
    1f5e:	0e 94 6e 27 	call	0x4edc	; 0x4edc <CalcAdd>
    1f62:	8f 91       	pop	r24
    1f64:	b5 ce       	rjmp	.-662    	; 0x1cd0 <_CalcSetMemDel>

00001f66 <ExecIncInd>:
    1f66:	c7 df       	rcall	.-114    	; 0x1ef6 <ExecMemNumInd>
    1f68:	10 f3       	brcs	.-60     	; 0x1f2e <ExecSto9>
    1f6a:	02 c0       	rjmp	.+4      	; 0x1f70 <ExecInc2>

00001f6c <ExecInc>:
    1f6c:	b5 df       	rcall	.-150    	; 0x1ed8 <ExecMemNum>
    1f6e:	f8 f2       	brcs	.-66     	; 0x1f2e <ExecSto9>

00001f70 <ExecInc2>:
    1f70:	8f 93       	push	r24
    1f72:	7f 93       	push	r23
    1f74:	a8 de       	rcall	.-688    	; 0x1cc6 <_CalcGetMem>
    1f76:	7f 91       	pop	r23
    1f78:	77 23       	and	r23, r23
    1f7a:	19 f0       	breq	.+6      	; 0x1f82 <ExecInc2+0x12>
    1f7c:	0e 94 be 23 	call	0x477c	; 0x477c <CalcDec>
    1f80:	02 c0       	rjmp	.+4      	; 0x1f86 <ExecInc2+0x16>
    1f82:	0e 94 bb 23 	call	0x4776	; 0x4776 <CalcInc>
    1f86:	8f 91       	pop	r24
    1f88:	a3 ce       	rjmp	.-698    	; 0x1cd0 <_CalcSetMemDel>

00001f8a <ExecCms>:
    1f8a:	7f 93       	push	r23
    1f8c:	a7 de       	rcall	.-690    	; 0x1cdc <_EditStop>
    1f8e:	80 e0       	ldi	r24, 0x00	; 0
    1f90:	a3 de       	rcall	.-698    	; 0x1cd8 <_CalcConst>
    1f92:	7f 91       	pop	r23
    1f94:	77 23       	and	r23, r23
    1f96:	51 f0       	breq	.+20     	; 0x1fac <ExecCms+0x22>
    1f98:	a1 de       	rcall	.-702    	; 0x1cdc <_EditStop>
    1f9a:	87 e0       	ldi	r24, 0x07	; 7
    1f9c:	0e 94 6f 26 	call	0x4cde	; 0x4cde <CalcSetMem>
    1fa0:	86 e0       	ldi	r24, 0x06	; 6
    1fa2:	0e 94 6f 26 	call	0x4cde	; 0x4cde <CalcSetMem>
    1fa6:	89 e0       	ldi	r24, 0x09	; 9
    1fa8:	9e e0       	ldi	r25, 0x0E	; 14
    1faa:	02 c0       	rjmp	.+4      	; 0x1fb0 <ExecCms+0x26>
    1fac:	88 e0       	ldi	r24, 0x08	; 8
    1fae:	95 e7       	ldi	r25, 0x75	; 117
    1fb0:	8f 93       	push	r24
    1fb2:	9f 93       	push	r25
    1fb4:	0e 94 6f 26 	call	0x4cde	; 0x4cde <CalcSetMem>
    1fb8:	9f 91       	pop	r25
    1fba:	8f 91       	pop	r24
    1fbc:	83 95       	inc	r24
    1fbe:	89 17       	cp	r24, r25
    1fc0:	b9 f7       	brne	.-18     	; 0x1fb0 <ExecCms+0x26>
    1fc2:	86 de       	rcall	.-756    	; 0x1cd0 <_CalcSetMemDel>

00001fc4 <ExecCms9>:
    1fc4:	42 cb       	rjmp	.-2428   	; 0x164a <Disp>

00001fc6 <ExecExcInd>:
    1fc6:	97 df       	rcall	.-210    	; 0x1ef6 <ExecMemNumInd>
    1fc8:	e8 f3       	brcs	.-6      	; 0x1fc4 <ExecCms9>
    1fca:	02 c0       	rjmp	.+4      	; 0x1fd0 <ExecExc2>

00001fcc <ExecExc>:
    1fcc:	85 df       	rcall	.-246    	; 0x1ed8 <ExecMemNum>
    1fce:	d0 f3       	brcs	.-12     	; 0x1fc4 <ExecCms9>

00001fd0 <ExecExc2>:
    1fd0:	8f 93       	push	r24
    1fd2:	79 de       	rcall	.-782    	; 0x1cc6 <_CalcGetMem>
    1fd4:	87 e0       	ldi	r24, 0x07	; 7
    1fd6:	77 de       	rcall	.-786    	; 0x1cc6 <_CalcGetMem>
    1fd8:	8f 91       	pop	r24
    1fda:	7a de       	rcall	.-780    	; 0x1cd0 <_CalcSetMemDel>
    1fdc:	78 de       	rcall	.-784    	; 0x1cce <_CalcSetMemDelX>
    1fde:	35 cb       	rjmp	.-2454   	; 0x164a <Disp>

00001fe0 <ExecPrdInd>:
    1fe0:	8a df       	rcall	.-236    	; 0x1ef6 <ExecMemNumInd>
    1fe2:	80 f3       	brcs	.-32     	; 0x1fc4 <ExecCms9>
    1fe4:	02 c0       	rjmp	.+4      	; 0x1fea <ExecPrd2>

00001fe6 <ExecPrd>:
    1fe6:	78 df       	rcall	.-272    	; 0x1ed8 <ExecMemNum>
    1fe8:	68 f3       	brcs	.-38     	; 0x1fc4 <ExecCms9>

00001fea <ExecPrd2>:
    1fea:	8f 93       	push	r24
    1fec:	7f 93       	push	r23
    1fee:	6b de       	rcall	.-810    	; 0x1cc6 <_CalcGetMem>
    1ff0:	87 e0       	ldi	r24, 0x07	; 7
    1ff2:	69 de       	rcall	.-814    	; 0x1cc6 <_CalcGetMem>
    1ff4:	7f 91       	pop	r23
    1ff6:	77 23       	and	r23, r23
    1ff8:	19 f0       	breq	.+6      	; 0x2000 <ExecPrd2+0x16>
    1ffa:	0e 94 05 27 	call	0x4e0a	; 0x4e0a <CalcDiv>
    1ffe:	02 c0       	rjmp	.+4      	; 0x2004 <ExecPrd2+0x1a>
    2000:	0e 94 9b 26 	call	0x4d36	; 0x4d36 <CalcMul>
    2004:	8f 91       	pop	r24
    2006:	64 ce       	rjmp	.-824    	; 0x1cd0 <_CalcSetMemDel>

00002008 <ExecBat>:
    2008:	7f 93       	push	r23
    200a:	68 de       	rcall	.-816    	; 0x1cdc <_EditStop>
    200c:	0e 94 1b 02 	call	0x436	; 0x436 <ADC_Vcc>
    2010:	7f 91       	pop	r23
    2012:	77 23       	and	r23, r23
    2014:	71 f0       	breq	.+28     	; 0x2032 <ExecBat+0x2a>
    2016:	80 5f       	subi	r24, 0xF0	; 240
    2018:	90 40       	sbci	r25, 0x00	; 0
    201a:	12 f4       	brpl	.+4      	; 0x2020 <ExecBat+0x18>
    201c:	88 27       	eor	r24, r24
    201e:	99 27       	eor	r25, r25
    2020:	82 33       	cpi	r24, 0x32	; 50
    2022:	91 05       	cpc	r25, r1
    2024:	10 f0       	brcs	.+4      	; 0x202a <ExecBat+0x22>
    2026:	82 e3       	ldi	r24, 0x32	; 50
    2028:	99 27       	eor	r25, r25
    202a:	88 0f       	add	r24, r24
    202c:	0e 94 14 2a 	call	0x5428	; 0x5428 <CalcStackW>
    2030:	06 c0       	rjmp	.+12     	; 0x203e <ExecBat+0x36>
    2032:	0e 94 14 2a 	call	0x5428	; 0x5428 <CalcStackW>
    2036:	89 e0       	ldi	r24, 0x09	; 9
    2038:	4f de       	rcall	.-866    	; 0x1cd8 <_CalcConst>
    203a:	0e 94 9b 26 	call	0x4d36	; 0x4d36 <CalcMul>
    203e:	47 de       	rcall	.-882    	; 0x1cce <_CalcSetMemDelX>
    2040:	f1 9a       	sbi	0x1e, 1	; 30
    2042:	03 cb       	rjmp	.-2554   	; 0x164a <Disp>

00002044 <ExecTemp>:
    2044:	7f 93       	push	r23
    2046:	4a de       	rcall	.-876    	; 0x1cdc <_EditStop>
    2048:	7f 91       	pop	r23
    204a:	77 23       	and	r23, r23
    204c:	a1 f4       	brne	.+40     	; 0x2076 <ExecTemp+0x32>
    204e:	0e 94 26 02 	call	0x44c	; 0x44c <ADC_Temp>
    2052:	85 5f       	subi	r24, 0xF5	; 245
    2054:	91 09       	sbc	r25, r1
    2056:	fc 01       	movw	r30, r24
    2058:	ab ef       	ldi	r26, 0xFB	; 251
    205a:	b3 e0       	ldi	r27, 0x03	; 3
    205c:	0e 94 f1 05 	call	0xbe2	; 0xbe2 <_EERead>
    2060:	99 27       	eor	r25, r25
    2062:	88 23       	and	r24, r24
    2064:	0a f4       	brpl	.+2      	; 0x2068 <ExecTemp+0x24>
    2066:	9f ef       	ldi	r25, 0xFF	; 255
    2068:	8e 0f       	add	r24, r30
    206a:	9f 1f       	adc	r25, r31
    206c:	0e 94 24 2a 	call	0x5448	; 0x5448 <CalcStackS16>
    2070:	2e de       	rcall	.-932    	; 0x1cce <_CalcSetMemDelX>
    2072:	f1 9a       	sbi	0x1e, 1	; 30
    2074:	ea ca       	rjmp	.-2604   	; 0x164a <Disp>
    2076:	f2 99       	sbic	0x1e, 2	; 30
    2078:	08 95       	ret
    207a:	87 e0       	ldi	r24, 0x07	; 7
    207c:	24 de       	rcall	.-952    	; 0x1cc6 <_CalcGetMem>
    207e:	0e 94 5e 2a 	call	0x54bc	; 0x54bc <CalcUnstackS16>
    2082:	a8 2f       	mov	r26, r24
    2084:	0e 94 26 02 	call	0x44c	; 0x44c <ADC_Temp>
    2088:	85 5f       	subi	r24, 0xF5	; 245
    208a:	a8 1b       	sub	r26, r24
    208c:	9a 2f       	mov	r25, r26
    208e:	ab ef       	ldi	r26, 0xFB	; 251
    2090:	b3 e0       	ldi	r27, 0x03	; 3
    2092:	0c 94 f3 05 	jmp	0xbe6	; 0xbe6 <_EEWrite>

00002096 <ExecFact>:
    2096:	7f 93       	push	r23
    2098:	f5 dc       	rcall	.-1558   	; 0x1a84 <EditStopC>
    209a:	87 e0       	ldi	r24, 0x07	; 7
    209c:	14 de       	rcall	.-984    	; 0x1cc6 <_CalcGetMem>
    209e:	7f 91       	pop	r23
    20a0:	77 23       	and	r23, r23
    20a2:	19 f4       	brne	.+6      	; 0x20aa <ExecFact+0x14>
    20a4:	0e 94 4e 28 	call	0x509c	; 0x509c <CalcFact>
    20a8:	02 c0       	rjmp	.+4      	; 0x20ae <ExecFact8>
    20aa:	0e 94 05 28 	call	0x500a	; 0x500a <CalcFactInt>

000020ae <ExecFact8>:
    20ae:	0f de       	rcall	.-994    	; 0x1cce <_CalcSetMemDelX>
    20b0:	f1 9a       	sbi	0x1e, 1	; 30
    20b2:	cb ca       	rjmp	.-2666   	; 0x164a <Disp>

000020b4 <ExecLnFact>:
    20b4:	e7 dc       	rcall	.-1586   	; 0x1a84 <EditStopC>
    20b6:	87 e0       	ldi	r24, 0x07	; 7
    20b8:	06 de       	rcall	.-1012   	; 0x1cc6 <_CalcGetMem>
    20ba:	0e 94 64 28 	call	0x50c8	; 0x50c8 <CalcFactLn>
    20be:	f7 cf       	rjmp	.-18     	; 0x20ae <ExecFact8>

000020c0 <ExecLogFact>:
    20c0:	e1 dc       	rcall	.-1598   	; 0x1a84 <EditStopC>
    20c2:	87 e0       	ldi	r24, 0x07	; 7
    20c4:	00 de       	rcall	.-1024   	; 0x1cc6 <_CalcGetMem>
    20c6:	0e 94 64 28 	call	0x50c8	; 0x50c8 <CalcFactLn>
    20ca:	8f e0       	ldi	r24, 0x0F	; 15
    20cc:	0e 94 3c 25 	call	0x4a78	; 0x4a78 <CalcConst>
    20d0:	0e 94 9b 26 	call	0x4d36	; 0x4d36 <CalcMul>
    20d4:	ec cf       	rjmp	.-40     	; 0x20ae <ExecFact8>

000020d6 <ExecDeg>:
    20d6:	80 e0       	ldi	r24, 0x00	; 0

000020d8 <ExecDeg2>:
    20d8:	89 8f       	std	Y+25, r24	; 0x19
    20da:	1b ca       	rjmp	.-3018   	; 0x1512 <DispFlags>

000020dc <ExecGtoInd>:
    20dc:	fd de       	rcall	.-518    	; 0x1ed8 <ExecMemNum>
    20de:	30 f0       	brcs	.+12     	; 0x20ec <ExecGto9>
    20e0:	f2 dd       	rcall	.-1052   	; 0x1cc6 <_CalcGetMem>

000020e2 <ExecGto8>:
    20e2:	0e 94 40 2a 	call	0x5480	; 0x5480 <CalcUnstackW>
    20e6:	dc 01       	movw	r26, r24
    20e8:	08 f0       	brcs	.+2      	; 0x20ec <ExecGto9>
    20ea:	21 f0       	breq	.+8      	; 0x20f4 <ExecGto2>

000020ec <ExecGto9>:
    20ec:	0c 94 ac 02 	jmp	0x558	; 0x558 <Fatal>

000020f0 <ExecGto>:
    20f0:	0e 94 74 08 	call	0x10e8	; 0x10e8 <LoadAddr>

000020f4 <ExecGto2>:
    20f4:	90 d1       	rcall	.+800    	; 0x2416 <ExecGoSbr>
    20f6:	ac 8f       	std	Y+28, r26	; 0x1c
    20f8:	bd 8f       	std	Y+29, r27	; 0x1d
    20fa:	a7 ca       	rjmp	.-2738   	; 0x164a <Disp>

000020fc <ExecPause>:
    20fc:	f2 9b       	sbis	0x1e, 2	; 30
    20fe:	08 95       	ret
    2100:	f2 98       	cbi	0x1e, 2	; 30
    2102:	a3 da       	rcall	.-2746   	; 0x164a <Disp>
    2104:	0e 94 8b 03 	call	0x716	; 0x716 <Wait250ms>
    2108:	f2 9a       	sbi	0x1e, 2	; 30
    210a:	e7 ca       	rjmp	.-2610   	; 0x16da <DispC>

0000210c <ExecEqu>:
    210c:	7f 93       	push	r23
    210e:	e6 dd       	rcall	.-1076   	; 0x1cdc <_EditStop>
    2110:	dc dd       	rcall	.-1096   	; 0x1cca <_Calc>
    2112:	c7 c6       	rjmp	.+3470   	; 0x2ea2 <ExecOp_00+0xc>
    2114:	28 01       	movw	r4, r16
    2116:	0e 94 48 26 	call	0x4c90	; 0x4c90 <CalcTopCheck>

0000211a <ExecEqu2>:
    211a:	7f 91       	pop	r23
    211c:	31 f0       	breq	.+12     	; 0x212a <ExecEqu2+0x10>
    211e:	77 23       	and	r23, r23
    2120:	31 f4       	brne	.+12     	; 0x212e <ExecEqu2+0x14>
    2122:	0e 94 e5 28 	call	0x51ca	; 0x51ca <CalcDel>
    2126:	0c 94 74 08 	jmp	0x10e8	; 0x10e8 <LoadAddr>
    212a:	77 23       	and	r23, r23
    212c:	d1 f7       	brne	.-12     	; 0x2122 <ExecEqu2+0x8>
    212e:	0e 94 e5 28 	call	0x51ca	; 0x51ca <CalcDel>
    2132:	de cf       	rjmp	.-68     	; 0x20f0 <ExecGto>

00002134 <ExecGre>:
    2134:	7f 93       	push	r23
    2136:	d2 dd       	rcall	.-1116   	; 0x1cdc <_EditStop>
    2138:	c8 dd       	rcall	.-1136   	; 0x1cca <_Calc>
    213a:	c7 c6       	rjmp	.+3470   	; 0x2eca <ExecOp_06+0x2>
    213c:	28 01       	movw	r4, r16
    213e:	0e 94 45 26 	call	0x4c8a	; 0x4c8a <CalcTop>
    2142:	82 81       	ldd	r24, Z+2	; 0x02
    2144:	80 78       	andi	r24, 0x80	; 128
    2146:	e9 cf       	rjmp	.-46     	; 0x211a <ExecEqu2>

00002148 <ExecIf>:
    2148:	8f 93       	push	r24
    214a:	27 d0       	rcall	.+78     	; 0x219a <ExecRegPrep1>
    214c:	8f 91       	pop	r24
    214e:	8f 93       	push	r24
    2150:	8d 36       	cpi	r24, 0x6D	; 109
    2152:	09 f4       	brne	.+2      	; 0x2156 <ExecIf2>
    2154:	34 d0       	rcall	.+104    	; 0x21be <ExecRegPrep2>

00002156 <ExecIf2>:
    2156:	90 30       	cpi	r25, 0x00	; 0
    2158:	31 f0       	breq	.+12     	; 0x2166 <ExecIf2+0x10>
    215a:	97 30       	cpi	r25, 0x07	; 7
    215c:	21 f0       	breq	.+8      	; 0x2166 <ExecIf2+0x10>
    215e:	98 30       	cpi	r25, 0x08	; 8
    2160:	11 f0       	breq	.+4      	; 0x2166 <ExecIf2+0x10>
    2162:	9f 30       	cpi	r25, 0x0F	; 15
    2164:	21 f4       	brne	.+8      	; 0x216e <ExecIf3>
    2166:	82 d0       	rcall	.+260    	; 0x226c <ExecRegPrep6>

00002168 <ExecIf22>:
    2168:	8f 91       	pop	r24
    216a:	40 f4       	brcc	.+16     	; 0x217c <ExecIf5>
    216c:	08 95       	ret

0000216e <ExecIf3>:
    216e:	32 d0       	rcall	.+100    	; 0x21d4 <ExecRegPrep3>
    2170:	d8 f3       	brcs	.-10     	; 0x2168 <ExecIf22>
    2172:	8f 91       	pop	r24
    2174:	8d 36       	cpi	r24, 0x6D	; 109
    2176:	09 f4       	brne	.+2      	; 0x217a <ExecIf4>
    2178:	4f d0       	rcall	.+158    	; 0x2218 <ExecRegPrep4>

0000217a <ExecIf4>:
    217a:	60 d0       	rcall	.+192    	; 0x223c <ExecRegPrep5>

0000217c <ExecIf5>:
    217c:	97 70       	andi	r25, 0x07	; 7
    217e:	e4 e0       	ldi	r30, 0x04	; 4
    2180:	fd e1       	ldi	r31, 0x1D	; 29
    2182:	e9 0f       	add	r30, r25
    2184:	f1 1d       	adc	r31, r1
    2186:	84 91       	lpm	r24, Z+
    2188:	0e 94 c1 23 	call	0x4782	; 0x4782 <CalcCmp>
    218c:	0e 94 59 2a 	call	0x54b2	; 0x54b2 <CalcUnstackB>
    2190:	88 23       	and	r24, r24
    2192:	09 f0       	breq	.+2      	; 0x2196 <ExecIf5+0x1a>
    2194:	ad cf       	rjmp	.-166    	; 0x20f0 <ExecGto>
    2196:	0c 94 74 08 	jmp	0x10e8	; 0x10e8 <LoadAddr>

0000219a <ExecRegPrep1>:
    219a:	0e 94 0e 08 	call	0x101c	; 0x101c <Load2Hex>
    219e:	98 2f       	mov	r25, r24
    21a0:	92 95       	swap	r25
    21a2:	9f 70       	andi	r25, 0x0F	; 15
    21a4:	8f 70       	andi	r24, 0x0F	; 15
    21a6:	93 fd       	sbrc	r25, 3
    21a8:	03 c0       	rjmp	.+6      	; 0x21b0 <ExecRegPrep1+0x16>
    21aa:	88 5f       	subi	r24, 0xF8	; 248
    21ac:	0c 94 68 26 	jmp	0x4cd0	; 0x4cd0 <CalcAddrMem>
    21b0:	ea e0       	ldi	r30, 0x0A	; 10
    21b2:	8e 9f       	mul	r24, r30
    21b4:	f0 01       	movw	r30, r0
    21b6:	11 24       	eor	r1, r1
    21b8:	ea 5f       	subi	r30, 0xFA	; 250
    21ba:	f9 4f       	sbci	r31, 0xF9	; 249
    21bc:	08 95       	ret

000021be <ExecRegPrep2>:
    21be:	9f 93       	push	r25
    21c0:	0e 94 76 26 	call	0x4cec	; 0x4cec <CalcGetMemZ>
    21c4:	0e 94 59 2a 	call	0x54b2	; 0x54b2 <CalcUnstackB>
    21c8:	9f 91       	pop	r25
    21ca:	8e 36       	cpi	r24, 0x6E	; 110
    21cc:	60 f4       	brcc	.+24     	; 0x21e6 <ExecRegPrepErr>
    21ce:	88 5f       	subi	r24, 0xF8	; 248
    21d0:	0c 94 68 26 	jmp	0x4cd0	; 0x4cd0 <CalcAddrMem>

000021d4 <ExecRegPrep3>:
    21d4:	ef 93       	push	r30
    21d6:	ff 93       	push	r31
    21d8:	9f 93       	push	r25
    21da:	0e 94 f3 07 	call	0xfe6	; 0xfe6 <Load2Dig>
    21de:	9f 91       	pop	r25
    21e0:	20 f0       	brcs	.+8      	; 0x21ea <ExecRegPrepErr+0x4>
    21e2:	8e 36       	cpi	r24, 0x6E	; 110
    21e4:	30 f0       	brcs	.+12     	; 0x21f2 <ExecRegPrepErr+0xc>

000021e6 <ExecRegPrepErr>:
    21e6:	0c 94 ac 02 	jmp	0x558	; 0x558 <Fatal>
    21ea:	ff 91       	pop	r31
    21ec:	ef 91       	pop	r30
    21ee:	08 94       	sec
    21f0:	08 95       	ret
    21f2:	93 ff       	sbrs	r25, 3
    21f4:	09 c0       	rjmp	.+18     	; 0x2208 <ExecRegPrepErr+0x22>
    21f6:	80 31       	cpi	r24, 0x10	; 16
    21f8:	b0 f7       	brcc	.-20     	; 0x21e6 <ExecRegPrepErr>
    21fa:	aa e0       	ldi	r26, 0x0A	; 10
    21fc:	8a 9f       	mul	r24, r26
    21fe:	d0 01       	movw	r26, r0
    2200:	11 24       	eor	r1, r1
    2202:	aa 5f       	subi	r26, 0xFA	; 250
    2204:	b9 4f       	sbci	r27, 0xF9	; 249
    2206:	04 c0       	rjmp	.+8      	; 0x2210 <ExecRegPrepErr+0x2a>
    2208:	88 5f       	subi	r24, 0xF8	; 248
    220a:	0e 94 68 26 	call	0x4cd0	; 0x4cd0 <CalcAddrMem>
    220e:	df 01       	movw	r26, r30
    2210:	ff 91       	pop	r31
    2212:	ef 91       	pop	r30
    2214:	88 94       	clc
    2216:	08 95       	ret

00002218 <ExecRegPrep4>:
    2218:	9f 93       	push	r25
    221a:	ef 93       	push	r30
    221c:	ff 93       	push	r31
    221e:	fd 01       	movw	r30, r26
    2220:	0e 94 76 26 	call	0x4cec	; 0x4cec <CalcGetMemZ>
    2224:	0e 94 59 2a 	call	0x54b2	; 0x54b2 <CalcUnstackB>
    2228:	8e 36       	cpi	r24, 0x6E	; 110
    222a:	e8 f6       	brcc	.-70     	; 0x21e6 <ExecRegPrepErr>
    222c:	88 5f       	subi	r24, 0xF8	; 248
    222e:	0e 94 68 26 	call	0x4cd0	; 0x4cd0 <CalcAddrMem>
    2232:	df 01       	movw	r26, r30
    2234:	ff 91       	pop	r31
    2236:	ef 91       	pop	r30
    2238:	9f 91       	pop	r25
    223a:	08 95       	ret

0000223c <ExecRegPrep5>:
    223c:	9f 93       	push	r25
    223e:	ef 93       	push	r30
    2240:	ff 93       	push	r31
    2242:	af 93       	push	r26
    2244:	bf 93       	push	r27
    2246:	0e 94 76 26 	call	0x4cec	; 0x4cec <CalcGetMemZ>
    224a:	bf 91       	pop	r27
    224c:	af 91       	pop	r26
    224e:	ff 91       	pop	r31
    2250:	ef 91       	pop	r30
    2252:	ef 93       	push	r30
    2254:	ff 93       	push	r31
    2256:	af 93       	push	r26
    2258:	bf 93       	push	r27
    225a:	fd 01       	movw	r30, r26
    225c:	0e 94 76 26 	call	0x4cec	; 0x4cec <CalcGetMemZ>
    2260:	bf 91       	pop	r27
    2262:	af 91       	pop	r26
    2264:	ff 91       	pop	r31
    2266:	ef 91       	pop	r30
    2268:	9f 91       	pop	r25
    226a:	08 95       	ret

0000226c <ExecRegPrep6>:
    226c:	ef 93       	push	r30
    226e:	ff 93       	push	r31
    2270:	9f 93       	push	r25
    2272:	0e 94 76 26 	call	0x4cec	; 0x4cec <CalcGetMemZ>
    2276:	0e 94 f3 07 	call	0xfe6	; 0xfe6 <Load2Dig>
    227a:	18 f0       	brcs	.+6      	; 0x2282 <ExecRegPrep6+0x16>
    227c:	0e 94 13 2a 	call	0x5426	; 0x5426 <CalcStackB>
    2280:	88 94       	clc
    2282:	9f 91       	pop	r25
    2284:	ff 91       	pop	r31
    2286:	ef 91       	pop	r30
    2288:	08 95       	ret

0000228a <ExecReg>:
    228a:	7f 93       	push	r23
    228c:	8f 93       	push	r24
    228e:	85 df       	rcall	.-246    	; 0x219a <ExecRegPrep1>
    2290:	92 ff       	sbrs	r25, 2
    2292:	01 c0       	rjmp	.+2      	; 0x2296 <ExecReg2>
    2294:	94 df       	rcall	.-216    	; 0x21be <ExecRegPrep2>

00002296 <ExecReg2>:
    2296:	90 fd       	sbrc	r25, 0
    2298:	91 ff       	sbrs	r25, 1
    229a:	05 c0       	rjmp	.+10     	; 0x22a6 <ExecReg3>
    229c:	e7 df       	rcall	.-50     	; 0x226c <ExecRegPrep6>
    229e:	8f 91       	pop	r24
    22a0:	48 f4       	brcc	.+18     	; 0x22b4 <ExecReg5>

000022a2 <ExecReg22>:
    22a2:	7f 91       	pop	r23
    22a4:	08 95       	ret

000022a6 <ExecReg3>:
    22a6:	96 df       	rcall	.-212    	; 0x21d4 <ExecRegPrep3>
    22a8:	8f 91       	pop	r24
    22aa:	d8 f3       	brcs	.-10     	; 0x22a2 <ExecReg22>
    22ac:	8c 36       	cpi	r24, 0x6C	; 108
    22ae:	09 f4       	brne	.+2      	; 0x22b2 <ExecReg3+0xc>
    22b0:	b3 df       	rcall	.-154    	; 0x2218 <ExecRegPrep4>
    22b2:	c4 df       	rcall	.-120    	; 0x223c <ExecRegPrep5>

000022b4 <ExecReg5>:
    22b4:	7f 91       	pop	r23
    22b6:	93 70       	andi	r25, 0x03	; 3
    22b8:	77 23       	and	r23, r23
    22ba:	09 f0       	breq	.+2      	; 0x22be <ExecReg5+0xa>
    22bc:	94 60       	ori	r25, 0x04	; 4
    22be:	ef 93       	push	r30
    22c0:	ff 93       	push	r31
    22c2:	90 30       	cpi	r25, 0x00	; 0
    22c4:	29 f4       	brne	.+10     	; 0x22d0 <ExecReg5+0x1c>
    22c6:	0e 94 09 29 	call	0x5212	; 0x5212 <CalcExc>
    22ca:	0e 94 e5 28 	call	0x51ca	; 0x51ca <CalcDel>
    22ce:	2e c0       	rjmp	.+92     	; 0x232c <ExecReg8>
    22d0:	91 30       	cpi	r25, 0x01	; 1
    22d2:	19 f4       	brne	.+6      	; 0x22da <ExecReg5+0x26>
    22d4:	0e 94 6e 27 	call	0x4edc	; 0x4edc <CalcAdd>
    22d8:	29 c0       	rjmp	.+82     	; 0x232c <ExecReg8>
    22da:	92 30       	cpi	r25, 0x02	; 2
    22dc:	19 f4       	brne	.+6      	; 0x22e4 <ExecReg5+0x30>
    22de:	0e 94 9b 26 	call	0x4d36	; 0x4d36 <CalcMul>
    22e2:	24 c0       	rjmp	.+72     	; 0x232c <ExecReg8>
    22e4:	93 30       	cpi	r25, 0x03	; 3
    22e6:	19 f4       	brne	.+6      	; 0x22ee <ExecReg5+0x3a>
    22e8:	0e 94 09 29 	call	0x5212	; 0x5212 <CalcExc>
    22ec:	0c c0       	rjmp	.+24     	; 0x2306 <ExecReg7>
    22ee:	94 30       	cpi	r25, 0x04	; 4
    22f0:	69 f4       	brne	.+26     	; 0x230c <ExecReg7+0x6>
    22f2:	af 93       	push	r26
    22f4:	bf 93       	push	r27
    22f6:	0e 94 09 29 	call	0x5212	; 0x5212 <CalcExc>
    22fa:	bf 91       	pop	r27
    22fc:	af 91       	pop	r26
    22fe:	0e 94 45 26 	call	0x4c8a	; 0x4c8a <CalcTop>
    2302:	0e 94 ff 29 	call	0x53fe	; 0x53fe <CalcCopyNum>

00002306 <ExecReg7>:
    2306:	0e 94 e5 28 	call	0x51ca	; 0x51ca <CalcDel>
    230a:	10 c0       	rjmp	.+32     	; 0x232c <ExecReg8>
    230c:	95 30       	cpi	r25, 0x05	; 5
    230e:	19 f4       	brne	.+6      	; 0x2316 <ExecReg7+0x10>
    2310:	0e 94 6d 27 	call	0x4eda	; 0x4eda <CalcSub>
    2314:	0b c0       	rjmp	.+22     	; 0x232c <ExecReg8>
    2316:	96 30       	cpi	r25, 0x06	; 6
    2318:	19 f4       	brne	.+6      	; 0x2320 <ExecReg7+0x1a>
    231a:	0e 94 05 27 	call	0x4e0a	; 0x4e0a <CalcDiv>
    231e:	4b c1       	rjmp	.+662    	; 0x25b6 <ExecHir2+0x86>
    2320:	0e 94 09 29 	call	0x5212	; 0x5212 <CalcExc>
    2324:	0e 94 e5 28 	call	0x51ca	; 0x51ca <CalcDel>
    2328:	0e 94 03 24 	call	0x4806	; 0x4806 <CalcNeg>

0000232c <ExecReg8>:
    232c:	bf 91       	pop	r27
    232e:	af 91       	pop	r26
    2330:	0e 94 45 26 	call	0x4c8a	; 0x4c8a <CalcTop>
    2334:	0e 94 ff 29 	call	0x53fe	; 0x53fe <CalcCopyNum>
    2338:	0c 94 e5 28 	jmp	0x51ca	; 0x51ca <CalcDel>

0000233c <ExecNop>:
    233c:	08 95       	ret

0000233e <ExecRel>:
    233e:	7f 93       	push	r23
    2340:	0e 94 f3 07 	call	0xfe6	; 0xfe6 <Load2Dig>
    2344:	ac 8d       	ldd	r26, Y+28	; 0x1c
    2346:	bd 8d       	ldd	r27, Y+29	; 0x1d
    2348:	7f 91       	pop	r23
    234a:	77 23       	and	r23, r23
    234c:	19 f0       	breq	.+6      	; 0x2354 <ExecRel+0x16>
    234e:	a8 1b       	sub	r26, r24
    2350:	b1 09       	sbc	r27, r1
    2352:	02 c0       	rjmp	.+4      	; 0x2358 <ExecRel2>
    2354:	a8 0f       	add	r26, r24
    2356:	b1 1d       	adc	r27, r1

00002358 <ExecRel2>:
    2358:	8a a1       	ldd	r24, Y+34	; 0x22
    235a:	9b a1       	ldd	r25, Y+35	; 0x23
    235c:	a8 17       	cp	r26, r24
    235e:	b9 07       	cpc	r27, r25
    2360:	28 f0       	brcs	.+10     	; 0x236c <ExecRel2+0x14>
    2362:	8c a1       	ldd	r24, Y+36	; 0x24
    2364:	9d a1       	ldd	r25, Y+37	; 0x25
    2366:	a8 17       	cp	r26, r24
    2368:	b9 07       	cpc	r27, r25
    236a:	18 f0       	brcs	.+6      	; 0x2372 <ExecRel2+0x1a>
    236c:	0e 94 3d 29 	call	0x527a	; 0x527a <CalcError>
    2370:	08 c0       	rjmp	.+16     	; 0x2382 <StopProg>
    2372:	ac 8f       	std	Y+28, r26	; 0x1c
    2374:	bd 8f       	std	Y+29, r27	; 0x1d
    2376:	08 95       	ret

00002378 <ExecRad>:
    2378:	81 e0       	ldi	r24, 0x01	; 1
    237a:	ae ce       	rjmp	.-676    	; 0x20d8 <ExecDeg2>

0000237c <ExecRtn>:
    237c:	88 a5       	ldd	r24, Y+40	; 0x28
    237e:	88 23       	and	r24, r24
    2380:	19 f4       	brne	.+6      	; 0x2388 <StopProg+0x6>

00002382 <StopProg>:
    2382:	f2 98       	cbi	0x1e, 2	; 30
    2384:	dd d9       	rcall	.-3142   	; 0x1740 <ClrPrintBuf>
    2386:	61 c9       	rjmp	.-3390   	; 0x164a <Disp>
    2388:	8a 95       	dec	r24
    238a:	88 a7       	std	Y+40, r24	; 0x28
    238c:	ef e1       	ldi	r30, 0x1F	; 31
    238e:	f8 e0       	ldi	r31, 0x08	; 8
    2390:	e8 0f       	add	r30, r24
    2392:	f1 1d       	adc	r31, r1
    2394:	e8 0f       	add	r30, r24
    2396:	f1 1d       	adc	r31, r1
    2398:	01 90       	ld	r0, Z+
    239a:	f0 81       	ld	r31, Z
    239c:	0c 8e       	std	Y+28, r0	; 0x1c
    239e:	fd 8f       	std	Y+29, r31	; 0x1d
    23a0:	ef e3       	ldi	r30, 0x3F	; 63
    23a2:	f8 e0       	ldi	r31, 0x08	; 8
    23a4:	e8 0f       	add	r30, r24
    23a6:	f1 1d       	adc	r31, r1
    23a8:	80 81       	ld	r24, Z
    23aa:	0c 94 61 07 	jmp	0xec2	; 0xec2 <OpenProg>

000023ae <ExecSbrLab>:
    23ae:	b8 2f       	mov	r27, r24
    23b0:	aa 27       	eor	r26, r26
    23b2:	0c c0       	rjmp	.+24     	; 0x23cc <ExecSbr2>

000023b4 <ExecSbrInd>:
    23b4:	91 dd       	rcall	.-1246   	; 0x1ed8 <ExecMemNum>
    23b6:	a8 f1       	brcs	.+106    	; 0x2422 <ExecGoSbr9>
    23b8:	86 dc       	rcall	.-1780   	; 0x1cc6 <_CalcGetMem>

000023ba <ExecSbr8>:
    23ba:	0e 94 40 2a 	call	0x5480	; 0x5480 <CalcUnstackW>
    23be:	dc 01       	movw	r26, r24
    23c0:	80 f1       	brcs	.+96     	; 0x2422 <ExecGoSbr9>
    23c2:	79 f5       	brne	.+94     	; 0x2422 <ExecGoSbr9>
    23c4:	03 c0       	rjmp	.+6      	; 0x23cc <ExecSbr2>

000023c6 <ExecSbr>:
    23c6:	d1 f6       	brne	.-76     	; 0x237c <ExecRtn>
    23c8:	0e 94 74 08 	call	0x10e8	; 0x10e8 <LoadAddr>

000023cc <ExecSbr2>:
    23cc:	88 a1       	ldd	r24, Y+32	; 0x20
    23ce:	8f 93       	push	r24
    23d0:	89 a1       	ldd	r24, Y+33	; 0x21
    23d2:	0e 94 61 07 	call	0xec2	; 0xec2 <OpenProg>
    23d6:	1f d0       	rcall	.+62     	; 0x2416 <ExecGoSbr>
    23d8:	f2 9b       	sbis	0x1e, 2	; 30
    23da:	18 a6       	std	Y+40, r1	; 0x28
    23dc:	88 a5       	ldd	r24, Y+40	; 0x28
    23de:	80 31       	cpi	r24, 0x10	; 16
    23e0:	00 f5       	brcc	.+64     	; 0x2422 <ExecGoSbr9>
    23e2:	83 95       	inc	r24
    23e4:	f2 99       	sbic	0x1e, 2	; 30
    23e6:	88 a7       	std	Y+40, r24	; 0x28
    23e8:	ee e3       	ldi	r30, 0x3E	; 62
    23ea:	f8 e0       	ldi	r31, 0x08	; 8
    23ec:	e8 0f       	add	r30, r24
    23ee:	f1 1d       	adc	r31, r1
    23f0:	9f 91       	pop	r25
    23f2:	90 83       	st	Z, r25
    23f4:	88 0f       	add	r24, r24
    23f6:	ed e1       	ldi	r30, 0x1D	; 29
    23f8:	f8 e0       	ldi	r31, 0x08	; 8
    23fa:	e8 0f       	add	r30, r24
    23fc:	f1 1d       	adc	r31, r1
    23fe:	9c 8d       	ldd	r25, Y+28	; 0x1c
    2400:	91 93       	st	Z+, r25
    2402:	9d 8d       	ldd	r25, Y+29	; 0x1d
    2404:	90 83       	st	Z, r25
    2406:	ac 8f       	std	Y+28, r26	; 0x1c
    2408:	bd 8f       	std	Y+29, r27	; 0x1d
    240a:	f2 99       	sbic	0x1e, 2	; 30
    240c:	08 95       	ret
    240e:	f2 9a       	sbi	0x1e, 2	; 30
    2410:	64 d9       	rcall	.-3384   	; 0x16da <DispC>
    2412:	0c 94 86 03 	jmp	0x70c	; 0x70c <Wait100ms>

00002416 <ExecGoSbr>:
    2416:	b0 31       	cpi	r27, 0x10	; 16
    2418:	30 f0       	brcs	.+12     	; 0x2426 <ExecGoSbr9+0x4>
    241a:	8b 2f       	mov	r24, r27
    241c:	0e 94 33 08 	call	0x1066	; 0x1066 <FindLab>
    2420:	30 f4       	brcc	.+12     	; 0x242e <ExecGoSbr9+0xc>

00002422 <ExecGoSbr9>:
    2422:	0c 94 ac 02 	jmp	0x558	; 0x558 <Fatal>
    2426:	8a a1       	ldd	r24, Y+34	; 0x22
    2428:	a8 0f       	add	r26, r24
    242a:	8b a1       	ldd	r24, Y+35	; 0x23
    242c:	b8 1f       	adc	r27, r24
    242e:	8a a1       	ldd	r24, Y+34	; 0x22
    2430:	9b a1       	ldd	r25, Y+35	; 0x23
    2432:	a8 17       	cp	r26, r24
    2434:	b9 07       	cpc	r27, r25
    2436:	a8 f3       	brcs	.-22     	; 0x2422 <ExecGoSbr9>
    2438:	8c a1       	ldd	r24, Y+36	; 0x24
    243a:	9d a1       	ldd	r25, Y+37	; 0x25
    243c:	a8 17       	cp	r26, r24
    243e:	b9 07       	cpc	r27, r25
    2440:	80 f7       	brcc	.-32     	; 0x2422 <ExecGoSbr9>
    2442:	08 95       	ret

00002444 <ExecLbl>:
    2444:	11 f0       	breq	.+4      	; 0x244a <ExecLbl+0x6>
    2446:	8d d9       	rcall	.-3302   	; 0x1762 <FlagSetInv>
    2448:	64 d8       	rcall	.-3896   	; 0x1512 <DispFlags>
    244a:	f2 99       	sbic	0x1e, 2	; 30
    244c:	0c 94 a4 07 	jmp	0xf48	; 0xf48 <LoadPrg>
    2450:	08 95       	ret

00002452 <ExecStat>:
    2452:	a1 f0       	breq	.+40     	; 0x247c <ExecStat+0x2a>
    2454:	43 dc       	rcall	.-1914   	; 0x1cdc <_EditStop>
    2456:	39 dc       	rcall	.-1934   	; 0x1cca <_Calc>
    2458:	c9 c7       	rjmp	.+3986   	; 0x33ec <ExecOp_54+0x20>
    245a:	28 e9       	ldi	r18, 0x98	; 152
    245c:	ca c7       	rjmp	.+3988   	; 0x33f2 <ExecOp_54+0x26>
    245e:	64 28       	or	r6, r4
    2460:	ea cb       	rjmp	.-2092   	; 0x1c36 <ClearErr+0x2>
    2462:	40 eb       	ldi	r20, 0xB0	; 176
    2464:	cc c6       	rjmp	.+3480   	; 0x31fe <ExecOp_4C+0x12>
    2466:	28 ec       	ldi	r18, 0xC8	; 200
    2468:	cd c6       	rjmp	.+3482   	; 0x3204 <ExecOp_4C+0x18>
    246a:	64 28       	or	r6, r4
    246c:	ed ce       	rjmp	.-550    	; 0x2248 <ExecRegPrep5+0xc>
    246e:	c6 c7       	rjmp	.+3980   	; 0x33fc <ExecOp_54+0x30>
    2470:	22 28       	or	r2, r2
    2472:	ee cb       	rjmp	.-2084   	; 0x1c50 <DelDot+0x16>
    2474:	e7 c6       	rjmp	.+3534   	; 0x3244 <ExecOp_4D+0x1c>
    2476:	40 e6       	ldi	r20, 0x60	; 96
    2478:	01 00       	.word	0x0001	; ????
    247a:	e7 c8       	rjmp	.-3634   	; 0x164a <Disp>
    247c:	2f dc       	rcall	.-1954   	; 0x1cdc <_EditStop>
    247e:	25 dc       	rcall	.-1974   	; 0x1cca <_Calc>
    2480:	c9 c7       	rjmp	.+3986   	; 0x3414 <ExecOp_54+0x48>
    2482:	29 e9       	ldi	r18, 0x99	; 153
    2484:	ca c7       	rjmp	.+3988   	; 0x341a <ExecOp_54+0x4e>
    2486:	64 29       	or	r22, r4
    2488:	ea cb       	rjmp	.-2092   	; 0x1c5e <ExecCe+0xc>
    248a:	3f eb       	ldi	r19, 0xBF	; 191
    248c:	cc c6       	rjmp	.+3480   	; 0x3226 <ExecOp_4C+0x3a>
    248e:	29 ec       	ldi	r18, 0xC9	; 201
    2490:	cd c6       	rjmp	.+3482   	; 0x322c <ExecOp_4D+0x4>
    2492:	64 29       	or	r22, r4
    2494:	ed ce       	rjmp	.-550    	; 0x2270 <ExecRegPrep6+0x4>
    2496:	c6 c7       	rjmp	.+3980   	; 0x3424 <ExecOp_54+0x58>
    2498:	22 29       	or	r18, r2
    249a:	ee cb       	rjmp	.-2084   	; 0x1c78 <ExecCe4+0xa>
    249c:	e7 c6       	rjmp	.+3534   	; 0x326c <ExecOp_4D+0x44>
    249e:	3f e6       	ldi	r19, 0x6F	; 111
    24a0:	01 00       	.word	0x0001	; ????
    24a2:	d3 c8       	rjmp	.-3674   	; 0x164a <Disp>

000024a4 <ExecAvrg>:
    24a4:	79 f0       	breq	.+30     	; 0x24c4 <ExecAvrg+0x20>
    24a6:	1a dc       	rcall	.-1996   	; 0x1cdc <_EditStop>
    24a8:	10 dc       	rcall	.-2016   	; 0x1cca <_Calc>
    24aa:	cd cc       	rjmp	.-1638   	; 0x1e46 <ExdecPgm6+0x24>
    24ac:	64 cb       	rjmp	.-2360   	; 0x1b76 <ExecEe6+0x14>
    24ae:	23 28       	or	r2, r3
    24b0:	cb 40       	sbci	r28, 0x0B	; 11
    24b2:	23 63       	ori	r18, 0x33	; 51
    24b4:	e6 ca       	rjmp	.-2612   	; 0x1a82 <EditStop9>
    24b6:	c9 64       	ori	r28, 0x49	; 73
    24b8:	cb 23       	and	r28, r27
    24ba:	28 cb       	rjmp	.-2480   	; 0x1b0c <ExecDig4+0x12>
    24bc:	40 23       	and	r20, r16
    24be:	63 e7       	ldi	r22, 0x73	; 115
    24c0:	01 00       	.word	0x0001	; ????
    24c2:	c3 c8       	rjmp	.-3706   	; 0x164a <Disp>
    24c4:	0b dc       	rcall	.-2026   	; 0x1cdc <_EditStop>
    24c6:	01 dc       	rcall	.-2046   	; 0x1cca <_Calc>
    24c8:	cc cb       	rjmp	.-2152   	; 0x1c62 <ExecCe+0x10>
    24ca:	23 e6       	ldi	r18, 0x63	; 99
    24cc:	c9 cb       	rjmp	.-2158   	; 0x1c60 <ExecCe+0xe>
    24ce:	23 e7       	ldi	r18, 0x73	; 115
    24d0:	01 00       	.word	0x0001	; ????
    24d2:	bb c8       	rjmp	.-3722   	; 0x164a <Disp>

000024d4 <ExecGrad>:
    24d4:	82 e0       	ldi	r24, 0x02	; 2
    24d6:	00 ce       	rjmp	.-1024   	; 0x20d8 <ExecDeg2>

000024d8 <ExecRst>:
    24d8:	18 a6       	std	Y+40, r1	; 0x28
    24da:	1a 8e       	std	Y+26, r1	; 0x1a
    24dc:	1b 8e       	std	Y+27, r1	; 0x1b
    24de:	88 a1       	ldd	r24, Y+32	; 0x20
    24e0:	88 23       	and	r24, r24
    24e2:	21 f0       	breq	.+8      	; 0x24ec <ExecRst+0x14>
    24e4:	f2 98       	cbi	0x1e, 2	; 30
    24e6:	88 27       	eor	r24, r24
    24e8:	0e 94 61 07 	call	0xec2	; 0xec2 <OpenProg>
    24ec:	8a a1       	ldd	r24, Y+34	; 0x22
    24ee:	8c 8f       	std	Y+28, r24	; 0x1c
    24f0:	8b a1       	ldd	r24, Y+35	; 0x23
    24f2:	8d 8f       	std	Y+29, r24	; 0x1d
    24f4:	aa c8       	rjmp	.-3756   	; 0x164a <Disp>

000024f6 <ExecHir>:
    24f6:	8f 93       	push	r24
    24f8:	0e 94 0e 08 	call	0x101c	; 0x101c <Load2Hex>
    24fc:	98 2f       	mov	r25, r24
    24fe:	9f 70       	andi	r25, 0x0F	; 15
    2500:	aa e0       	ldi	r26, 0x0A	; 10
    2502:	9a 9f       	mul	r25, r26
    2504:	d0 01       	movw	r26, r0
    2506:	aa 5f       	subi	r26, 0xFA	; 250
    2508:	b9 4f       	sbci	r27, 0xF9	; 249
    250a:	11 24       	eor	r1, r1
    250c:	9f 91       	pop	r25
    250e:	97 32       	cpi	r25, 0x27	; 39
    2510:	79 f4       	brne	.+30     	; 0x2530 <ExecHir2>
    2512:	8f 93       	push	r24
    2514:	fd 01       	movw	r30, r26
    2516:	0e 94 76 26 	call	0x4cec	; 0x4cec <CalcGetMemZ>
    251a:	0e 94 59 2a 	call	0x54b2	; 0x54b2 <CalcUnstackB>
    251e:	8e 36       	cpi	r24, 0x6E	; 110
    2520:	10 f0       	brcs	.+4      	; 0x2526 <ExecHir+0x30>
    2522:	0c 94 ac 02 	jmp	0x558	; 0x558 <Fatal>
    2526:	88 5f       	subi	r24, 0xF8	; 248
    2528:	0e 94 68 26 	call	0x4cd0	; 0x4cd0 <CalcAddrMem>
    252c:	df 01       	movw	r26, r30
    252e:	8f 91       	pop	r24

00002530 <ExecHir2>:
    2530:	af 93       	push	r26
    2532:	bf 93       	push	r27
    2534:	8f 93       	push	r24
    2536:	0e 94 5c 26 	call	0x4cb8	; 0x4cb8 <CalcNew>
    253a:	0e 94 55 26 	call	0x4caa	; 0x4caa <ExcXZ>
    253e:	0e 94 ff 29 	call	0x53fe	; 0x53fe <CalcCopyNum>
    2542:	8f 91       	pop	r24
    2544:	80 7f       	andi	r24, 0xF0	; 240
    2546:	31 f4       	brne	.+12     	; 0x2554 <ExecHir2+0x24>
    2548:	0e 94 e5 28 	call	0x51ca	; 0x51ca <CalcDel>
    254c:	c7 db       	rcall	.-2162   	; 0x1cdc <_EditStop>
    254e:	87 e0       	ldi	r24, 0x07	; 7
    2550:	ba db       	rcall	.-2188   	; 0x1cc6 <_CalcGetMem>
    2552:	6c c0       	rjmp	.+216    	; 0x262c <ExecHir9>
    2554:	80 31       	cpi	r24, 0x10	; 16
    2556:	29 f4       	brne	.+10     	; 0x2562 <ExecHir2+0x32>
    2558:	c1 db       	rcall	.-2174   	; 0x1cdc <_EditStop>
    255a:	87 e0       	ldi	r24, 0x07	; 7
    255c:	0e 94 6f 26 	call	0x4cde	; 0x4cde <CalcSetMem>
    2560:	65 c0       	rjmp	.+202    	; 0x262c <ExecHir9>
    2562:	80 32       	cpi	r24, 0x20	; 32
    2564:	19 f4       	brne	.+6      	; 0x256c <ExecHir2+0x3c>
    2566:	0e 94 29 24 	call	0x4852	; 0x4852 <CalcRound>
    256a:	60 c0       	rjmp	.+192    	; 0x262c <ExecHir9>
    256c:	80 33       	cpi	r24, 0x30	; 48
    256e:	31 f4       	brne	.+12     	; 0x257c <ExecHir2+0x4c>
    2570:	b5 db       	rcall	.-2198   	; 0x1cdc <_EditStop>
    2572:	87 e0       	ldi	r24, 0x07	; 7
    2574:	a8 db       	rcall	.-2224   	; 0x1cc6 <_CalcGetMem>
    2576:	0e 94 6e 27 	call	0x4edc	; 0x4edc <CalcAdd>
    257a:	58 c0       	rjmp	.+176    	; 0x262c <ExecHir9>
    257c:	80 34       	cpi	r24, 0x40	; 64
    257e:	31 f4       	brne	.+12     	; 0x258c <ExecHir2+0x5c>
    2580:	ad db       	rcall	.-2214   	; 0x1cdc <_EditStop>
    2582:	87 e0       	ldi	r24, 0x07	; 7
    2584:	a0 db       	rcall	.-2240   	; 0x1cc6 <_CalcGetMem>
    2586:	0e 94 9b 26 	call	0x4d36	; 0x4d36 <CalcMul>
    258a:	50 c0       	rjmp	.+160    	; 0x262c <ExecHir9>
    258c:	80 35       	cpi	r24, 0x50	; 80
    258e:	31 f4       	brne	.+12     	; 0x259c <ExecHir2+0x6c>
    2590:	a5 db       	rcall	.-2230   	; 0x1cdc <_EditStop>
    2592:	87 e0       	ldi	r24, 0x07	; 7
    2594:	98 db       	rcall	.-2256   	; 0x1cc6 <_CalcGetMem>
    2596:	0e 94 6d 27 	call	0x4eda	; 0x4eda <CalcSub>
    259a:	48 c0       	rjmp	.+144    	; 0x262c <ExecHir9>
    259c:	80 36       	cpi	r24, 0x60	; 96
    259e:	31 f4       	brne	.+12     	; 0x25ac <ExecHir2+0x7c>
    25a0:	9d db       	rcall	.-2246   	; 0x1cdc <_EditStop>
    25a2:	87 e0       	ldi	r24, 0x07	; 7
    25a4:	90 db       	rcall	.-2272   	; 0x1cc6 <_CalcGetMem>
    25a6:	0e 94 05 27 	call	0x4e0a	; 0x4e0a <CalcDiv>
    25aa:	40 c0       	rjmp	.+128    	; 0x262c <ExecHir9>
    25ac:	80 37       	cpi	r24, 0x70	; 112
    25ae:	19 f4       	brne	.+6      	; 0x25b6 <ExecHir2+0x86>
    25b0:	0e 94 bb 23 	call	0x4776	; 0x4776 <CalcInc>
    25b4:	3b c0       	rjmp	.+118    	; 0x262c <ExecHir9>
    25b6:	80 38       	cpi	r24, 0x80	; 128
    25b8:	19 f4       	brne	.+6      	; 0x25c0 <ExecHir2+0x90>
    25ba:	0e 94 be 23 	call	0x477c	; 0x477c <CalcDec>
    25be:	36 c0       	rjmp	.+108    	; 0x262c <ExecHir9>
    25c0:	80 39       	cpi	r24, 0x90	; 144
    25c2:	39 f4       	brne	.+14     	; 0x25d2 <ExecHir2+0xa2>
    25c4:	8b db       	rcall	.-2282   	; 0x1cdc <_EditStop>
    25c6:	87 e0       	ldi	r24, 0x07	; 7
    25c8:	7e db       	rcall	.-2308   	; 0x1cc6 <_CalcGetMem>
    25ca:	0e 94 09 29 	call	0x5212	; 0x5212 <CalcExc>
    25ce:	7f db       	rcall	.-2306   	; 0x1cce <_CalcSetMemDelX>
    25d0:	2d c0       	rjmp	.+90     	; 0x262c <ExecHir9>
    25d2:	80 3c       	cpi	r24, 0xC0	; 192
    25d4:	19 f4       	brne	.+6      	; 0x25dc <ExecHir2+0xac>
    25d6:	0e 94 e8 23 	call	0x47d0	; 0x47d0 <CalcGr0>
    25da:	04 c0       	rjmp	.+8      	; 0x25e4 <ExecHir2+0xb4>
    25dc:	80 3d       	cpi	r24, 0xD0	; 208
    25de:	29 f4       	brne	.+10     	; 0x25ea <ExecHir2+0xba>
    25e0:	0e 94 ec 23 	call	0x47d8	; 0x47d8 <CalcLtEq0>
    25e4:	bf 91       	pop	r27
    25e6:	af 91       	pop	r26
    25e8:	14 c0       	rjmp	.+40     	; 0x2612 <ExecHir6>
    25ea:	80 3e       	cpi	r24, 0xE0	; 224
    25ec:	11 f4       	brne	.+4      	; 0x25f2 <ExecHir2+0xc2>
    25ee:	80 e0       	ldi	r24, 0x00	; 0
    25f0:	03 c0       	rjmp	.+6      	; 0x25f8 <ExecHir5>
    25f2:	80 3f       	cpi	r24, 0xF0	; 240
    25f4:	a9 f4       	brne	.+42     	; 0x2620 <ExecHir6+0xe>
    25f6:	81 e0       	ldi	r24, 0x01	; 1

000025f8 <ExecHir5>:
    25f8:	0e 94 3c 25 	call	0x4a78	; 0x4a78 <CalcConst>
    25fc:	0e 94 09 29 	call	0x5212	; 0x5212 <CalcExc>
    2600:	9d d0       	rcall	.+314    	; 0x273c <DjnzReg>
    2602:	bf 91       	pop	r27
    2604:	af 91       	pop	r26
    2606:	0e 94 45 26 	call	0x4c8a	; 0x4c8a <CalcTop>
    260a:	0e 94 ff 29 	call	0x53fe	; 0x53fe <CalcCopyNum>
    260e:	0e 94 e5 28 	call	0x51ca	; 0x51ca <CalcDel>

00002612 <ExecHir6>:
    2612:	0e 94 59 2a 	call	0x54b2	; 0x54b2 <CalcUnstackB>
    2616:	88 23       	and	r24, r24
    2618:	09 f4       	brne	.+2      	; 0x261c <ExecHir6+0xa>
    261a:	6a cd       	rjmp	.-1324   	; 0x20f0 <ExecGto>
    261c:	0c 94 74 08 	jmp	0x10e8	; 0x10e8 <LoadAddr>
    2620:	bf 91       	pop	r27
    2622:	af 91       	pop	r26
    2624:	80 3a       	cpi	r24, 0xA0	; 160
    2626:	09 f4       	brne	.+2      	; 0x262a <ExecHir6+0x18>
    2628:	5c cd       	rjmp	.-1352   	; 0x20e2 <ExecGto8>
    262a:	c7 ce       	rjmp	.-626    	; 0x23ba <ExecSbr8>

0000262c <ExecHir9>:
    262c:	bf 91       	pop	r27
    262e:	af 91       	pop	r26
    2630:	0e 94 45 26 	call	0x4c8a	; 0x4c8a <CalcTop>
    2634:	0e 94 ff 29 	call	0x53fe	; 0x53fe <CalcCopyNum>
    2638:	0e 94 e5 28 	call	0x51ca	; 0x51ca <CalcDel>
    263c:	06 c8       	rjmp	.-4084   	; 0x164a <Disp>

0000263e <ExecStFlg>:
    263e:	39 f0       	breq	.+14     	; 0x264e <ExecStFlg+0x10>
    2640:	0e 94 df 07 	call	0xfbe	; 0xfbe <Load1Dig>
    2644:	68 f0       	brcs	.+26     	; 0x2660 <ExecStFlg+0x22>
    2646:	80 31       	cpi	r24, 0x10	; 16
    2648:	48 f4       	brcc	.+18     	; 0x265c <ExecStFlg+0x1e>
    264a:	0c 94 7a 0c 	jmp	0x18f4	; 0x18f4 <UserFlagClr>
    264e:	0e 94 df 07 	call	0xfbe	; 0xfbe <Load1Dig>
    2652:	30 f0       	brcs	.+12     	; 0x2660 <ExecStFlg+0x22>
    2654:	80 31       	cpi	r24, 0x10	; 16
    2656:	10 f4       	brcc	.+4      	; 0x265c <ExecStFlg+0x1e>
    2658:	0c 94 5f 0c 	jmp	0x18be	; 0x18be <UserFlagSet>
    265c:	0e 94 3d 29 	call	0x527a	; 0x527a <CalcError>
    2660:	08 95       	ret

00002662 <ExecIfFlg>:
    2662:	49 f0       	breq	.+18     	; 0x2676 <ExecIfFlg+0x14>
    2664:	0e 94 df 07 	call	0xfbe	; 0xfbe <Load1Dig>
    2668:	98 f0       	brcs	.+38     	; 0x2690 <ExecIfFlg+0x2e>
    266a:	80 31       	cpi	r24, 0x10	; 16
    266c:	68 f4       	brcc	.+26     	; 0x2688 <ExecIfFlg+0x26>
    266e:	0e 94 4b 0c 	call	0x1896	; 0x1896 <UserFlagTest>
    2672:	61 f4       	brne	.+24     	; 0x268c <ExecIfFlg+0x2a>
    2674:	3d cd       	rjmp	.-1414   	; 0x20f0 <ExecGto>
    2676:	0e 94 df 07 	call	0xfbe	; 0xfbe <Load1Dig>
    267a:	50 f0       	brcs	.+20     	; 0x2690 <ExecIfFlg+0x2e>
    267c:	80 31       	cpi	r24, 0x10	; 16
    267e:	20 f4       	brcc	.+8      	; 0x2688 <ExecIfFlg+0x26>
    2680:	0e 94 4b 0c 	call	0x1896	; 0x1896 <UserFlagTest>
    2684:	19 f0       	breq	.+6      	; 0x268c <ExecIfFlg+0x2a>
    2686:	34 cd       	rjmp	.-1432   	; 0x20f0 <ExecGto>
    2688:	0e 94 3d 29 	call	0x527a	; 0x527a <CalcError>
    268c:	0e 94 74 08 	call	0x10e8	; 0x10e8 <LoadAddr>
    2690:	08 95       	ret

00002692 <ExecDms>:
    2692:	91 f0       	breq	.+36     	; 0x26b8 <ExecDms+0x26>
    2694:	23 db       	rcall	.-2490   	; 0x1cdc <_EditStop>
    2696:	8c e3       	ldi	r24, 0x3C	; 60
    2698:	0e 94 13 2a 	call	0x5426	; 0x5426 <CalcStackB>
    269c:	16 db       	rcall	.-2516   	; 0x1cca <_Calc>
    269e:	c7 03       	fmuls	r20, r23
    26a0:	45 a7       	std	Z+45, r20	; 0x2d
    26a2:	28 04       	cpc	r2, r8
    26a4:	22 03       	mulsu	r18, r18
    26a6:	45 03       	mulsu	r20, r21
    26a8:	89 22       	and	r8, r25
    26aa:	c7 29       	or	r28, r7
    26ac:	e7 28       	or	r14, r7
    26ae:	22 8a       	std	Z+18, r2	; 0x12
    26b0:	22 c7       	rjmp	.+3652   	; 0x34f6 <ExecOp_5F+0xe>
    26b2:	29 e7       	ldi	r18, 0x79	; 121
    26b4:	01 00       	.word	0x0001	; ????
    26b6:	14 cb       	rjmp	.-2520   	; 0x1ce0 <__Disp>
    26b8:	11 db       	rcall	.-2526   	; 0x1cdc <_EditStop>
    26ba:	84 e2       	ldi	r24, 0x24	; 36
    26bc:	0e 94 13 2a 	call	0x5426	; 0x5426 <CalcStackB>
    26c0:	8c e3       	ldi	r24, 0x3C	; 60
    26c2:	0e 94 13 2a 	call	0x5426	; 0x5426 <CalcStackB>
    26c6:	01 db       	rcall	.-2558   	; 0x1cca <_Calc>
    26c8:	c7 03       	fmuls	r20, r23
    26ca:	45 a7       	std	Z+45, r20	; 0x2d
    26cc:	28 88       	ldd	r2, Y+16	; 0x10
    26ce:	22 09       	sbc	r18, r2
    26d0:	04 45       	sbci	r16, 0x54	; 84
    26d2:	03 0a       	sbc	r0, r19
    26d4:	23 c7       	rjmp	.+3654   	; 0x351c <ExecOp_60+0x18>
    26d6:	29 e7       	ldi	r18, 0x79	; 121
    26d8:	28 09       	sbc	r18, r8
    26da:	23 c7       	rjmp	.+3654   	; 0x3522 <ExecOp_62>
    26dc:	29 e7       	ldi	r18, 0x79	; 121
    26de:	01 00       	.word	0x0001	; ????
    26e0:	ff ca       	rjmp	.-2562   	; 0x1ce0 <__Disp>

000026e2 <ExecPi>:
    26e2:	fc da       	rcall	.-2568   	; 0x1cdc <_EditStop>
    26e4:	f2 da       	rcall	.-2588   	; 0x1cca <_Calc>
    26e6:	96 e7       	ldi	r25, 0x76	; 118
    26e8:	01 00       	.word	0x0001	; ????
    26ea:	fa ca       	rjmp	.-2572   	; 0x1ce0 <__Disp>

000026ec <ExecHex>:
    26ec:	19 f0       	breq	.+6      	; 0x26f4 <ExecHex+0x8>
    26ee:	0e 94 d8 0b 	call	0x17b0	; 0x17b0 <FlagSetDebug>
    26f2:	02 c0       	rjmp	.+4      	; 0x26f8 <ExecHex+0xc>
    26f4:	0e 94 0b 0c 	call	0x1816	; 0x1816 <FlagClrDebug>
    26f8:	f1 da       	rcall	.-2590   	; 0x1cdc <_EditStop>
    26fa:	83 e0       	ldi	r24, 0x03	; 3
    26fc:	8e 8f       	std	Y+30, r24	; 0x1e
    26fe:	f0 ca       	rjmp	.-2592   	; 0x1ce0 <__Disp>

00002700 <ExecBin>:
    2700:	19 f0       	breq	.+6      	; 0x2708 <ExecBin+0x8>
    2702:	0e 94 d8 0b 	call	0x17b0	; 0x17b0 <FlagSetDebug>
    2706:	02 c0       	rjmp	.+4      	; 0x270c <ExecBin+0xc>
    2708:	0e 94 0b 0c 	call	0x1816	; 0x1816 <FlagClrDebug>
    270c:	e7 da       	rcall	.-2610   	; 0x1cdc <_EditStop>
    270e:	81 e0       	ldi	r24, 0x01	; 1
    2710:	8e 8f       	std	Y+30, r24	; 0x1e
    2712:	e6 ca       	rjmp	.-2612   	; 0x1ce0 <__Disp>

00002714 <ExecOct>:
    2714:	19 f0       	breq	.+6      	; 0x271c <ExecOct+0x8>
    2716:	0e 94 d8 0b 	call	0x17b0	; 0x17b0 <FlagSetDebug>
    271a:	02 c0       	rjmp	.+4      	; 0x2720 <ExecOct+0xc>
    271c:	0e 94 0b 0c 	call	0x1816	; 0x1816 <FlagClrDebug>
    2720:	dd da       	rcall	.-2630   	; 0x1cdc <_EditStop>
    2722:	82 e0       	ldi	r24, 0x02	; 2
    2724:	8e 8f       	std	Y+30, r24	; 0x1e
    2726:	dc ca       	rjmp	.-2632   	; 0x1ce0 <__Disp>

00002728 <ExecList>:
    2728:	a2 d9       	rcall	.-3260   	; 0x1a6e <EditStop>
    272a:	08 95       	ret

0000272c <ExecRs>:
    272c:	f2 99       	sbic	0x1e, 2	; 30
    272e:	29 ce       	rjmp	.-942    	; 0x2382 <StopProg>

00002730 <StartProg>:
    2730:	f2 9a       	sbi	0x1e, 2	; 30
    2732:	22 d1       	rcall	.+580    	; 0x2978 <_DispC>
    2734:	0c 94 86 03 	jmp	0x70c	; 0x70c <Wait100ms>

00002738 <ExecWrite>:
    2738:	9a d9       	rcall	.-3276   	; 0x1a6e <EditStop>
    273a:	08 95       	ret

0000273c <DjnzReg>:
    273c:	c6 da       	rcall	.-2676   	; 0x1cca <_Calc>
    273e:	03 3b       	cpi	r16, 0xB3	; 179
    2740:	12 0d       	add	r17, r2
    2742:	02 03       	mulsu	r16, r18
    2744:	34 10       	cpse	r3, r4
    2746:	05 40       	sbci	r16, 0x05	; 5
    2748:	03 39       	cpi	r16, 0x93	; 147
    274a:	0f 03       	fmul	r16, r23
    274c:	3f 03       	fmul	r19, r23
    274e:	3a 09       	sbc	r19, r10
    2750:	0a 11       	cpse	r16, r10
    2752:	01 3b       	cpi	r16, 0xB1	; 177
    2754:	09 48       	sbci	r16, 0x89	; 137
    2756:	01 00       	.word	0x0001	; ????
    2758:	08 95       	ret

0000275a <ExecDsz>:
    275a:	0e 94 df 07 	call	0xfbe	; 0xfbe <Load1Dig>
    275e:	c0 f0       	brcs	.+48     	; 0x2790 <ExecDsz+0x36>
    2760:	80 31       	cpi	r24, 0x10	; 16
    2762:	90 f4       	brcc	.+36     	; 0x2788 <ExecDsz+0x2e>
    2764:	8f 93       	push	r24
    2766:	87 2f       	mov	r24, r23
    2768:	0e 94 13 2a 	call	0x5426	; 0x5426 <CalcStackB>
    276c:	8f 91       	pop	r24
    276e:	88 5f       	subi	r24, 0xF8	; 248
    2770:	8f 93       	push	r24
    2772:	a9 da       	rcall	.-2734   	; 0x1cc6 <_CalcGetMem>
    2774:	e3 df       	rcall	.-58     	; 0x273c <DjnzReg>
    2776:	8f 91       	pop	r24
    2778:	ab da       	rcall	.-2730   	; 0x1cd0 <_CalcSetMemDel>
    277a:	0e 94 59 2a 	call	0x54b2	; 0x54b2 <CalcUnstackB>
    277e:	88 23       	and	r24, r24
    2780:	09 f4       	brne	.+2      	; 0x2784 <ExecDsz+0x2a>
    2782:	b6 cc       	rjmp	.-1684   	; 0x20f0 <ExecGto>
    2784:	0c 94 74 08 	jmp	0x10e8	; 0x10e8 <LoadAddr>
    2788:	0e 94 3d 29 	call	0x527a	; 0x527a <CalcError>
    278c:	0e 94 74 08 	call	0x10e8	; 0x10e8 <LoadAddr>
    2790:	08 95       	ret

00002792 <ExecAdv>:
    2792:	6d d9       	rcall	.-3366   	; 0x1a6e <EditStop>
    2794:	08 95       	ret

00002796 <ExecPrt>:
    2796:	6b d9       	rcall	.-3370   	; 0x1a6e <EditStop>
    2798:	08 95       	ret

0000279a <ExecPhi>:
    279a:	a0 da       	rcall	.-2752   	; 0x1cdc <_EditStop>
    279c:	96 da       	rcall	.-2772   	; 0x1cca <_Calc>
    279e:	9e e7       	ldi	r25, 0x7E	; 126
    27a0:	01 00       	.word	0x0001	; ????
    27a2:	9e ca       	rjmp	.-2756   	; 0x1ce0 <__Disp>

000027a4 <ExecDec>:
    27a4:	19 f0       	breq	.+6      	; 0x27ac <ExecDec+0x8>
    27a6:	0e 94 d8 0b 	call	0x17b0	; 0x17b0 <FlagSetDebug>
    27aa:	02 c0       	rjmp	.+4      	; 0x27b0 <ExecDec+0xc>
    27ac:	0e 94 0b 0c 	call	0x1816	; 0x1816 <FlagClrDebug>
    27b0:	95 da       	rcall	.-2774   	; 0x1cdc <_EditStop>
    27b2:	80 e0       	ldi	r24, 0x00	; 0
    27b4:	8e 8f       	std	Y+30, r24	; 0x1e
    27b6:	94 ca       	rjmp	.-2776   	; 0x1ce0 <__Disp>

000027b8 <ExecNot>:
    27b8:	91 da       	rcall	.-2782   	; 0x1cdc <_EditStop>
    27ba:	87 e0       	ldi	r24, 0x07	; 7
    27bc:	84 da       	rcall	.-2808   	; 0x1cc6 <_CalcGetMem>
    27be:	0e 94 03 24 	call	0x4806	; 0x4806 <CalcNeg>
    27c2:	0e 94 be 23 	call	0x477c	; 0x477c <CalcDec>
    27c6:	8e 8d       	ldd	r24, Y+30	; 0x1e
    27c8:	80 30       	cpi	r24, 0x00	; 0
    27ca:	b1 f0       	breq	.+44     	; 0x27f8 <ExecNot+0x40>
    27cc:	0e 94 45 26 	call	0x4c8a	; 0x4c8a <CalcTop>
    27d0:	82 81       	ldd	r24, Z+2	; 0x02
    27d2:	88 23       	and	r24, r24
    27d4:	8a f4       	brpl	.+34     	; 0x27f8 <ExecNot+0x40>
    27d6:	81 e0       	ldi	r24, 0x01	; 1
    27d8:	0e 94 3c 25 	call	0x4a78	; 0x4a78 <CalcConst>
    27dc:	7e 8d       	ldd	r23, Y+30	; 0x1e
    27de:	8e e0       	ldi	r24, 0x0E	; 14
    27e0:	72 30       	cpi	r23, 0x02	; 2
    27e2:	18 f0       	brcs	.+6      	; 0x27ea <ExecNot+0x32>
    27e4:	8a e2       	ldi	r24, 0x2A	; 42
    27e6:	09 f0       	breq	.+2      	; 0x27ea <ExecNot+0x32>
    27e8:	88 e3       	ldi	r24, 0x38	; 56
    27ea:	90 e8       	ldi	r25, 0x80	; 128
    27ec:	0e 94 45 26 	call	0x4c8a	; 0x4c8a <CalcTop>
    27f0:	90 83       	st	Z, r25
    27f2:	81 83       	std	Z+1, r24	; 0x01
    27f4:	0e 94 6e 27 	call	0x4edc	; 0x4edc <CalcAdd>
    27f8:	6a da       	rcall	.-2860   	; 0x1cce <_CalcSetMemDelX>
    27fa:	0c 94 25 0b 	jmp	0x164a	; 0x164a <Disp>

000027fe <ExecOff>:
    27fe:	0c 94 1d 0a 	jmp	0x143a	; 0x143a <GoSleep>

00002802 <ExecTab>:
    2802:	8c 1a       	sub	r8, r28
    2804:	8c 1a       	sub	r8, r28
    2806:	8c 1a       	sub	r8, r28
    2808:	8c 1a       	sub	r8, r28
    280a:	8c 1a       	sub	r8, r28
    280c:	8c 1a       	sub	r8, r28
    280e:	8c 1a       	sub	r8, r28
    2810:	8c 1a       	sub	r8, r28
    2812:	8c 1a       	sub	r8, r28
    2814:	8c 1a       	sub	r8, r28
    2816:	8c 1a       	sub	r8, r28
    2818:	8c 1a       	sub	r8, r28
    281a:	8c 1a       	sub	r8, r28
    281c:	8c 1a       	sub	r8, r28
    281e:	8c 1a       	sub	r8, r28
    2820:	8c 1a       	sub	r8, r28
    2822:	ae 23       	and	r26, r30
    2824:	ae 23       	and	r26, r30
    2826:	ae 23       	and	r26, r30
    2828:	ae 23       	and	r26, r30
    282a:	ae 23       	and	r26, r30
    282c:	ae 23       	and	r26, r30
    282e:	ae 23       	and	r26, r30
    2830:	ae 23       	and	r26, r30
    2832:	ae 23       	and	r26, r30
    2834:	ae 23       	and	r26, r30
    2836:	ae 23       	and	r26, r30
    2838:	ae 23       	and	r26, r30
    283a:	ae 23       	and	r26, r30
    283c:	ae 23       	and	r26, r30
    283e:	ae 23       	and	r26, r30
    2840:	ae 23       	and	r26, r30
    2842:	fe 27       	eor	r31, r30
    2844:	20 1d       	adc	r18, r0
    2846:	2e 1d       	adc	r18, r14
    2848:	4a 3d       	cpi	r20, 0xDA	; 218
    284a:	52 1c       	adc	r5, r2
    284c:	0c 1d       	adc	r16, r12
    284e:	b4 23       	and	r27, r20
    2850:	f6 24       	eor	r15, r6
    2852:	60 3d       	cpi	r22, 0xD0	; 208
    2854:	3a 1d       	adc	r19, r10
    2856:	3c 23       	and	r19, r28
    2858:	80 1d       	adc	r24, r0
    285a:	76 3d       	cpi	r23, 0xD6	; 214
    285c:	8c 3d       	cpi	r24, 0xDC	; 220
    285e:	3c 23       	and	r19, r28
    2860:	3c 23       	and	r19, r28
    2862:	a4 3d       	cpi	r26, 0xD4	; 212
    2864:	a6 11       	cpse	r26, r6
    2866:	8c 1d       	adc	r24, r12
    2868:	be 3d       	cpi	r27, 0xDE	; 222
    286a:	c8 3d       	cpi	r28, 0xD8	; 216
    286c:	d2 3d       	cpi	r29, 0xD2	; 210
    286e:	da 1d       	adc	r29, r10
    2870:	78 1e       	adc	r7, r24
    2872:	dc 3d       	cpi	r29, 0xDC	; 220
    2874:	f6 3d       	cpi	r31, 0xD6	; 214
    2876:	44 20       	and	r4, r4
    2878:	98 1d       	adc	r25, r8
    287a:	54 3e       	cpi	r21, 0xE4	; 228
    287c:	72 3e       	cpi	r23, 0xE2	; 226
    287e:	90 3e       	cpi	r25, 0xE0	; 224
    2880:	3c 23       	and	r19, r28
    2882:	c2 1e       	adc	r12, r18
    2884:	b6 11       	cpse	r27, r6
    2886:	20 1f       	adc	r18, r16
    2888:	36 1f       	adc	r19, r22
    288a:	46 1f       	adc	r20, r22
    288c:	be 3c       	cpi	r27, 0xCE	; 206
    288e:	ec 11       	cpse	r30, r12
    2890:	8a 1f       	adc	r24, r26
    2892:	cc 1f       	adc	r28, r28
    2894:	e6 1f       	adc	r30, r22
    2896:	08 20       	and	r0, r8
    2898:	96 20       	and	r9, r6
    289a:	b4 20       	and	r11, r4
    289c:	c0 20       	and	r12, r0
    289e:	2e 3c       	cpi	r18, 0xCE	; 206
    28a0:	3c 23       	and	r19, r28
    28a2:	10 3e       	cpi	r17, 0xE0	; 224
    28a4:	24 12       	cpse	r2, r20
    28a6:	44 1b       	sub	r20, r20
    28a8:	3c 3b       	cpi	r19, 0xBC	; 188
    28aa:	44 3b       	cpi	r20, 0xB4	; 180
    28ac:	1c 3c       	cpi	r17, 0xCC	; 204
    28ae:	42 12       	cpse	r4, r18
    28b0:	86 1b       	sub	r24, r22
    28b2:	94 1b       	sub	r25, r20
    28b4:	28 3e       	cpi	r18, 0xE8	; 232
    28b6:	96 1e       	adc	r9, r22
    28b8:	ae 3c       	cpi	r26, 0xCE	; 206
    28ba:	b6 3c       	cpi	r27, 0xC6	; 198
    28bc:	3e 3e       	cpi	r19, 0xEE	; 238
    28be:	26 3c       	cpi	r18, 0xC6	; 198
    28c0:	3c 23       	and	r19, r28
    28c2:	d6 20       	and	r13, r6
    28c4:	f0 20       	and	r15, r0
    28c6:	ca 1d       	adc	r28, r10
    28c8:	c6 1f       	adc	r28, r22
    28ca:	e0 1f       	adc	r30, r16
    28cc:	d2 3b       	cpi	r29, 0xB2	; 178
    28ce:	fc 20       	and	r15, r12
    28d0:	0c 21       	and	r16, r12
    28d2:	3c 23       	and	r19, r28
    28d4:	76 2e       	mov	r7, r22
    28d6:	3e 23       	and	r19, r30
    28d8:	66 1f       	adc	r22, r22
    28da:	8a 22       	and	r8, r26
    28dc:	48 21       	and	r20, r8
    28de:	ba 3b       	cpi	r27, 0xBA	; 186
    28e0:	3c 23       	and	r19, r28
    28e2:	78 23       	and	r23, r24
    28e4:	c6 23       	and	r28, r22
    28e6:	1a 1f       	adc	r17, r26
    28e8:	30 1f       	adc	r19, r16
    28ea:	40 1f       	adc	r20, r16
    28ec:	b0 3b       	cpi	r27, 0xB0	; 176
    28ee:	44 24       	eor	r4, r4
    28f0:	34 21       	and	r19, r4
    28f2:	52 24       	eor	r5, r2
    28f4:	a4 24       	eor	r10, r4
    28f6:	48 21       	and	r20, r8
    28f8:	3c 23       	and	r19, r28
    28fa:	3c 23       	and	r19, r28
    28fc:	3c 23       	and	r19, r28
    28fe:	c2 3b       	cpi	r28, 0xB2	; 178
    2900:	3c 23       	and	r19, r28
    2902:	d4 24       	eor	r13, r4
    2904:	d8 24       	eor	r13, r8
    2906:	f6 24       	eor	r15, r6
    2908:	dc 20       	and	r13, r12
    290a:	1e 2d       	mov	r17, r14
    290c:	5e 3b       	cpi	r21, 0xBE	; 190
    290e:	3e 26       	eor	r3, r30
    2910:	62 26       	eor	r6, r18
    2912:	92 26       	eor	r9, r18
    2914:	e2 26       	eor	r14, r18
    2916:	8a 22       	and	r8, r26
    2918:	ec 26       	eor	r14, r28
    291a:	00 27       	eor	r16, r16
    291c:	14 27       	eor	r17, r20
    291e:	ca 3b       	cpi	r28, 0xBA	; 186
    2920:	3c 23       	and	r19, r28
    2922:	28 27       	eor	r18, r24
    2924:	2c 27       	eor	r18, r28
    2926:	7c 23       	and	r23, r28
    2928:	c2 1b       	sub	r28, r18
    292a:	de 1b       	sub	r29, r30
    292c:	0e 3d       	cpi	r16, 0xDE	; 222
    292e:	38 27       	eor	r19, r24
    2930:	5a 27       	eor	r21, r26
    2932:	92 27       	eor	r25, r18
    2934:	96 27       	eor	r25, r22
    2936:	9a 27       	eor	r25, r26
    2938:	a4 27       	eor	r26, r20
    293a:	6c 1f       	adc	r22, r28
    293c:	b8 27       	eor	r27, r24
    293e:	36 3c       	cpi	r19, 0xC6	; 198
    2940:	3c 23       	and	r19, r28

00002942 <Exec>:
    2942:	77 27       	eor	r23, r23
    2944:	0e 94 17 0c 	call	0x182e	; 0x182e <FlagTestInv>
    2948:	39 f0       	breq	.+14     	; 0x2958 <Exec+0x16>
    294a:	0e 94 e4 0b 	call	0x17c8	; 0x17c8 <FlagClrInv>
    294e:	8f 93       	push	r24
    2950:	0e 94 89 0a 	call	0x1512	; 0x1512 <DispFlags>
    2954:	8f 91       	pop	r24
    2956:	71 e0       	ldi	r23, 0x01	; 1
    2958:	80 3a       	cpi	r24, 0xA0	; 160
    295a:	68 f4       	brcc	.+26     	; 0x2976 <Exec+0x34>
    295c:	e2 e0       	ldi	r30, 0x02	; 2
    295e:	f8 e2       	ldi	r31, 0x28	; 40
    2960:	e8 0f       	add	r30, r24
    2962:	f1 1d       	adc	r31, r1
    2964:	e8 0f       	add	r30, r24
    2966:	f1 1d       	adc	r31, r1
    2968:	05 90       	lpm	r0, Z+
    296a:	f4 91       	lpm	r31, Z+
    296c:	e0 2d       	mov	r30, r0
    296e:	f6 95       	lsr	r31
    2970:	e7 95       	ror	r30
    2972:	77 23       	and	r23, r23
    2974:	09 94       	ijmp
    2976:	08 95       	ret

00002978 <_DispC>:
    2978:	0c 94 6d 0b 	jmp	0x16da	; 0x16da <DispC>

0000297c <__Calc>:
    297c:	0c 94 16 26 	jmp	0x4c2c	; 0x4c2c <Calc>

00002980 <__CalcGetMem>:
    2980:	0c 94 75 26 	jmp	0x4cea	; 0x4cea <CalcGetMem>

00002984 <LoadTxt>:
    2984:	20 4c       	sbci	r18, 0xC0	; 192
    2986:	6f 61       	ori	r22, 0x1F	; 31
    2988:	64 3f       	cpi	r22, 0xF4	; 244
    298a:	20 20       	and	r2, r0
    298c:	28 31       	cpi	r18, 0x18	; 24
    298e:	3d 59       	subi	r19, 0x9D	; 157
    2990:	45 53       	subi	r20, 0x35	; 53
    2992:	29 20       	and	r2, r9
	...

00002996 <NumTextTab>:
    2996:	20 20       	and	r2, r0
    2998:	20 20       	and	r2, r0
    299a:	20 20       	and	r2, r0
    299c:	4f 4b       	sbci	r20, 0xBF	; 191
    299e:	20 20       	and	r2, r0
    29a0:	20 45       	sbci	r18, 0x50	; 80
    29a2:	52 52       	subi	r21, 0x22	; 34
    29a4:	4f 52       	subi	r20, 0x2F	; 47
    29a6:	44 69       	ori	r20, 0x94	; 148
    29a8:	61 67       	ori	r22, 0x71	; 113
    29aa:	6e 6f       	ori	r22, 0xFE	; 254
    29ac:	73 65       	ori	r23, 0x53	; 83
    29ae:	20 20       	and	r2, r0
    29b0:	52 65       	ori	r21, 0x52	; 82
    29b2:	73 75       	andi	r23, 0x53	; 83
    29b4:	6c 74       	andi	r22, 0x4C	; 76
    29b6:	20 20       	and	r2, r0
    29b8:	20 49       	sbci	r18, 0x90	; 144
    29ba:	6e 70       	andi	r22, 0x0E	; 14
    29bc:	75 74       	andi	r23, 0x45	; 69
    29be:	20 20       	and	r2, r0
    29c0:	20 45       	sbci	r18, 0x50	; 80
    29c2:	6e 74       	andi	r22, 0x4E	; 78
    29c4:	65 72       	andi	r22, 0x25	; 37
    29c6:	20 20       	and	r2, r0
    29c8:	20 49       	sbci	r18, 0x90	; 144
    29ca:	6e 64       	ori	r22, 0x4E	; 78
    29cc:	65 78       	andi	r22, 0x85	; 133
    29ce:	20 20       	and	r2, r0
    29d0:	20 20       	and	r2, r0
    29d2:	20 52       	subi	r18, 0x20	; 32
    29d4:	6f 77       	andi	r22, 0x7F	; 127
    29d6:	20 20       	and	r2, r0
    29d8:	43 6f       	ori	r20, 0xF3	; 243
    29da:	6c 75       	andi	r22, 0x5C	; 92
    29dc:	6d 6e       	ori	r22, 0xED	; 237
    29de:	43 6f       	ori	r20, 0xF3	; 243
    29e0:	6e 74       	andi	r22, 0x4E	; 78
    29e2:	69 6e       	ori	r22, 0xE9	; 233
    29e4:	75 65       	ori	r23, 0x55	; 85
    29e6:	20 20       	and	r2, r0
    29e8:	20 20       	and	r2, r0
    29ea:	53 54       	subi	r21, 0x43	; 67
    29ec:	4f 50       	subi	r20, 0x0F	; 15
    29ee:	20 20       	and	r2, r0
    29f0:	4d 61       	ori	r20, 0x1D	; 29
    29f2:	74 72       	andi	r23, 0x24	; 36
    29f4:	69 78       	andi	r22, 0x89	; 137
    29f6:	20 43       	sbci	r18, 0x30	; 48
    29f8:	6f 6d       	ori	r22, 0xDF	; 223
    29fa:	70 6c       	ori	r23, 0xC0	; 192
    29fc:	65 78       	andi	r22, 0x85	; 133
    29fe:	20 20       	and	r2, r0
    2a00:	4e 75       	andi	r20, 0x5E	; 94
    2a02:	6d 62       	ori	r22, 0x2D	; 45
    2a04:	65 72       	andi	r22, 0x25	; 37
    2a06:	20 45       	sbci	r18, 0x50	; 80
    2a08:	6c 65       	ori	r22, 0x5C	; 92
    2a0a:	6d 65       	ori	r22, 0x5D	; 93
    2a0c:	6e 74       	andi	r22, 0x4E	; 78
    2a0e:	20 20       	and	r2, r0
    2a10:	20 20       	and	r2, r0
    2a12:	49 74       	andi	r20, 0x49	; 73
    2a14:	65 6d       	ori	r22, 0xD5	; 213
    2a16:	20 20       	and	r2, r0
    2a18:	20 50       	subi	r18, 0x00	; 0
    2a1a:	72 69       	ori	r23, 0x92	; 146
    2a1c:	6e 74       	andi	r22, 0x4E	; 78
    2a1e:	20 20       	and	r2, r0
    2a20:	20 20       	and	r2, r0
    2a22:	66 72       	andi	r22, 0x26	; 38
    2a24:	6f 6d       	ori	r22, 0xDF	; 223
    2a26:	20 20       	and	r2, r0
    2a28:	20 20       	and	r2, r0
    2a2a:	20 20       	and	r2, r0
    2a2c:	74 6f       	ori	r23, 0xF4	; 244
    2a2e:	20 44       	sbci	r18, 0x40	; 64
    2a30:	69 73       	andi	r22, 0x39	; 57
    2a32:	70 6c       	ori	r23, 0xC0	; 192
    2a34:	61 79       	andi	r22, 0x91	; 145
    2a36:	20 50       	subi	r18, 0x00	; 0
    2a38:	72 6f       	ori	r23, 0xF2	; 242
    2a3a:	67 72       	andi	r22, 0x27	; 39
    2a3c:	61 6d       	ori	r22, 0xD1	; 209
    2a3e:	20 20       	and	r2, r0
    2a40:	20 20       	and	r2, r0
    2a42:	4c 6f       	ori	r20, 0xFC	; 252
    2a44:	61 64       	ori	r22, 0x41	; 65
    2a46:	20 20       	and	r2, r0
    2a48:	20 20       	and	r2, r0
    2a4a:	53 61       	ori	r21, 0x13	; 19
    2a4c:	76 65       	ori	r23, 0x56	; 86
    2a4e:	20 20       	and	r2, r0
    2a50:	20 20       	and	r2, r0
    2a52:	20 59       	subi	r18, 0x90	; 144
    2a54:	45 53       	subi	r20, 0x35	; 53
    2a56:	20 20       	and	r2, r0
    2a58:	20 20       	and	r2, r0
    2a5a:	20 20       	and	r2, r0
    2a5c:	4e 4f       	sbci	r20, 0xFE	; 254
    2a5e:	20 20       	and	r2, r0
    2a60:	20 20       	and	r2, r0
    2a62:	20 41       	sbci	r18, 0x10	; 16
    2a64:	64 64       	ori	r22, 0x44	; 68
    2a66:	53 75       	andi	r21, 0x53	; 83
    2a68:	62 74       	andi	r22, 0x42	; 66
    2a6a:	72 61       	ori	r23, 0x12	; 18
    2a6c:	63 74       	andi	r22, 0x43	; 67
    2a6e:	4d 75       	andi	r20, 0x5D	; 93
    2a70:	6c 74       	andi	r22, 0x4C	; 76
    2a72:	69 70       	andi	r22, 0x09	; 9
    2a74:	6c 79       	andi	r22, 0x9C	; 156
    2a76:	20 20       	and	r2, r0
    2a78:	44 69       	ori	r20, 0x94	; 148
    2a7a:	76 69       	ori	r23, 0x96	; 150
    2a7c:	64 65       	ori	r22, 0x54	; 84
    2a7e:	20 20       	and	r2, r0
    2a80:	20 50       	subi	r18, 0x00	; 0
    2a82:	6f 77       	andi	r22, 0x7F	; 127
    2a84:	65 72       	andi	r22, 0x25	; 37
    2a86:	20 20       	and	r2, r0
    2a88:	20 20       	and	r2, r0
    2a8a:	52 6f       	ori	r21, 0xF2	; 242
    2a8c:	6f 74       	andi	r22, 0x4F	; 79
    2a8e:	20 20       	and	r2, r0
    2a90:	53 71       	andi	r21, 0x13	; 19
    2a92:	75 61       	ori	r23, 0x15	; 21
    2a94:	72 65       	ori	r23, 0x52	; 82
    2a96:	20 20       	and	r2, r0
    2a98:	20 20       	and	r2, r0
    2a9a:	20 4b       	sbci	r18, 0xB0	; 176
    2a9c:	65 79       	andi	r22, 0x95	; 149
    2a9e:	20 20       	and	r2, r0
    2aa0:	42 75       	andi	r20, 0x52	; 82
    2aa2:	74 74       	andi	r23, 0x44	; 68
    2aa4:	6f 6e       	ori	r22, 0xEF	; 239
    2aa6:	20 28       	or	r2, r0
    2aa8:	31 3d       	cpi	r19, 0xD1	; 209
    2aaa:	59 45       	sbci	r21, 0x59	; 89
    2aac:	53 29       	or	r21, r3
    2aae:	20 20       	and	r2, r0
    2ab0:	56 65       	ori	r21, 0x56	; 86
    2ab2:	63 74       	andi	r22, 0x43	; 67
    2ab4:	6f 72       	andi	r22, 0x2F	; 47
    2ab6:	20 4c       	sbci	r18, 0xC0	; 192
    2ab8:	69 62       	ori	r22, 0x29	; 41
    2aba:	72 61       	ori	r23, 0x12	; 18
    2abc:	72 79       	andi	r23, 0x92	; 146
    2abe:	20 20       	and	r2, r0
    2ac0:	20 46       	sbci	r18, 0x60	; 96
    2ac2:	69 72       	andi	r22, 0x29	; 41
    2ac4:	73 74       	andi	r23, 0x43	; 67
    2ac6:	20 20       	and	r2, r0
    2ac8:	53 65       	ori	r21, 0x53	; 83
    2aca:	63 6f       	ori	r22, 0xF3	; 243
    2acc:	6e 64       	ori	r22, 0x4E	; 78
    2ace:	20 20       	and	r2, r0
    2ad0:	20 54       	subi	r18, 0x40	; 64
    2ad2:	68 69       	ori	r22, 0x98	; 152
    2ad4:	72 64       	ori	r23, 0x42	; 66
    2ad6:	20 20       	and	r2, r0
    2ad8:	46 6f       	ori	r20, 0xF6	; 246
    2ada:	75 72       	andi	r23, 0x25	; 37
    2adc:	74 68       	ori	r23, 0x84	; 132
    2ade:	20 20       	and	r2, r0
    2ae0:	50 61       	ori	r21, 0x10	; 16
    2ae2:	72 61       	ori	r23, 0x12	; 18
    2ae4:	6d 2e       	mov	r6, r29
    2ae6:	20 20       	and	r2, r0
    2ae8:	20 45       	sbci	r18, 0x50	; 80
    2aea:	6e 74       	andi	r22, 0x4E	; 78
    2aec:	72 79       	andi	r23, 0x92	; 146
    2aee:	20 20       	and	r2, r0
    2af0:	4f 75       	andi	r20, 0x5F	; 95
    2af2:	74 70       	andi	r23, 0x04	; 4
    2af4:	75 74       	andi	r23, 0x45	; 69
    2af6:	20 20       	and	r2, r0
    2af8:	20 20       	and	r2, r0
    2afa:	52 6f       	ori	r21, 0xF2	; 242
    2afc:	77 73       	andi	r23, 0x37	; 55
    2afe:	20 43       	sbci	r18, 0x30	; 48
    2b00:	6f 6c       	ori	r22, 0xCF	; 207
    2b02:	75 6d       	ori	r23, 0xD5	; 213
    2b04:	6e 73       	andi	r22, 0x3E	; 62
    2b06:	20 20       	and	r2, r0
    2b08:	20 20       	and	r2, r0
    2b0a:	53 69       	ori	r21, 0x93	; 147
    2b0c:	7a 65       	ori	r23, 0x5A	; 90
    2b0e:	20 20       	and	r2, r0
    2b10:	20 52       	subi	r18, 0x20	; 32
    2b12:	65 61       	ori	r22, 0x15	; 21
    2b14:	64 79       	andi	r22, 0x94	; 148
    2b16:	20 20       	and	r2, r0
    2b18:	4c 61       	ori	r20, 0x1C	; 28
    2b1a:	6d 62       	ori	r22, 0x2D	; 45
    2b1c:	64 61       	ori	r22, 0x14	; 20
    2b1e:	20 50       	subi	r18, 0x00	; 0
    2b20:	6f 6c       	ori	r22, 0xCF	; 207
    2b22:	79 6e       	ori	r23, 0xE9	; 233
    2b24:	6f 6d       	ori	r22, 0xDF	; 223
    2b26:	20 20       	and	r2, r0
    2b28:	20 41       	sbci	r18, 0x10	; 16
    2b2a:	6e 67       	ori	r22, 0x7E	; 126
    2b2c:	6c 65       	ori	r22, 0x5C	; 92
    2b2e:	20 20       	and	r2, r0
    2b30:	20 20       	and	r2, r0
    2b32:	53 69       	ori	r21, 0x93	; 147
    2b34:	64 65       	ori	r22, 0x54	; 84
    2b36:	54 72       	andi	r21, 0x24	; 36
    2b38:	69 61       	ori	r22, 0x19	; 25
    2b3a:	6e 67       	ori	r22, 0x7E	; 126
    2b3c:	6c 65       	ori	r22, 0x5C	; 92
    2b3e:	20 20       	and	r2, r0
    2b40:	20 20       	and	r2, r0
    2b42:	41 72       	andi	r20, 0x21	; 33
    2b44:	65 61       	ori	r22, 0x15	; 21
    2b46:	20 50       	subi	r18, 0x00	; 0
    2b48:	65 72       	andi	r22, 0x25	; 37
    2b4a:	69 6d       	ori	r22, 0xD9	; 217
    2b4c:	65 74       	andi	r22, 0x45	; 69
    2b4e:	20 20       	and	r2, r0
    2b50:	52 61       	ori	r21, 0x12	; 18
    2b52:	64 69       	ori	r22, 0x94	; 148
    2b54:	75 73       	andi	r23, 0x35	; 53
    2b56:	20 20       	and	r2, r0
    2b58:	41 72       	andi	r20, 0x21	; 33
    2b5a:	63 4c       	sbci	r22, 0xC3	; 195
    2b5c:	65 6e       	ori	r22, 0xE5	; 229
    2b5e:	20 20       	and	r2, r0
    2b60:	20 43       	sbci	r18, 0x30	; 48
    2b62:	68 6f       	ori	r22, 0xF8	; 248
    2b64:	72 64       	ori	r23, 0x42	; 66
    2b66:	20 20       	and	r2, r0
    2b68:	53 2d       	mov	r21, r3
    2b6a:	41 72       	andi	r20, 0x21	; 33
    2b6c:	65 61       	ori	r22, 0x15	; 21
    2b6e:	20 20       	and	r2, r0
    2b70:	20 20       	and	r2, r0
    2b72:	20 4c       	sbci	r18, 0xC0	; 192
    2b74:	6f 77       	andi	r22, 0x7F	; 127
    2b76:	20 20       	and	r2, r0
    2b78:	20 20       	and	r2, r0
    2b7a:	48 69       	ori	r20, 0x98	; 152
    2b7c:	67 68       	ori	r22, 0x87	; 135
    2b7e:	20 54       	subi	r18, 0x40	; 64
    2b80:	6f 6f       	ori	r22, 0xFF	; 255
    2b82:	20 4c       	sbci	r18, 0xC0	; 192
    2b84:	6f 77       	andi	r22, 0x7F	; 127
    2b86:	20 43       	sbci	r18, 0x30	; 48
    2b88:	6f 72       	andi	r22, 0x2F	; 47
    2b8a:	72 65       	ori	r23, 0x52	; 82
    2b8c:	63 74       	andi	r22, 0x43	; 67
    2b8e:	54 6f       	ori	r21, 0xF4	; 244
    2b90:	6f 20       	and	r6, r15
    2b92:	48 69       	ori	r20, 0x98	; 152
    2b94:	67 68       	ori	r22, 0x87	; 135
    2b96:	20 20       	and	r2, r0
    2b98:	20 20       	and	r2, r0
    2b9a:	47 61       	ori	r20, 0x17	; 23
    2b9c:	6d 65       	ori	r22, 0x5D	; 93
    2b9e:	20 20       	and	r2, r0
    2ba0:	20 20       	and	r2, r0
    2ba2:	54 69       	ori	r21, 0x94	; 148
    2ba4:	6d 65       	ori	r22, 0x5D	; 93
    2ba6:	20 57       	subi	r18, 0x70	; 112
    2ba8:	6f 72       	andi	r22, 0x2F	; 47
    2baa:	6b 69       	ori	r22, 0x9B	; 155
    2bac:	6e 67       	ori	r22, 0x7E	; 126
    2bae:	20 20       	and	r2, r0
    2bb0:	20 20       	and	r2, r0
    2bb2:	20 2e       	mov	r2, r16
    2bb4:	2e 2e       	mov	r2, r30
    2bb6:	20 20       	and	r2, r0
    2bb8:	20 20       	and	r2, r0
    2bba:	20 57       	subi	r18, 0x70	; 112
    2bbc:	69 6e       	ori	r22, 0xE9	; 233
    2bbe:	20 20       	and	r2, r0
    2bc0:	20 20       	and	r2, r0
    2bc2:	4c 6f       	ori	r20, 0xFC	; 252
    2bc4:	73 73       	andi	r23, 0x33	; 51
    2bc6:	42 61       	ori	r20, 0x12	; 18
    2bc8:	6e 6b       	ori	r22, 0xBE	; 190
    2bca:	72 6f       	ori	r23, 0xF2	; 242
    2bcc:	6c 6c       	ori	r22, 0xCC	; 204
    2bce:	20 53       	subi	r18, 0x30	; 48
    2bd0:	75 63       	ori	r23, 0x35	; 53
    2bd2:	63 65       	ori	r22, 0x53	; 83
    2bd4:	73 73       	andi	r23, 0x33	; 51
    2bd6:	20 20       	and	r2, r0
    2bd8:	20 43       	sbci	r18, 0x30	; 48
    2bda:	72 61       	ori	r23, 0x12	; 18
    2bdc:	73 68       	ori	r23, 0x83	; 131
    2bde:	20 20       	and	r2, r0
    2be0:	20 20       	and	r2, r0
    2be2:	46 61       	ori	r20, 0x16	; 22
    2be4:	69 6c       	ori	r22, 0xC9	; 201
    2be6:	20 20       	and	r2, r0
    2be8:	20 53       	subi	r18, 0x30	; 48
    2bea:	70 65       	ori	r23, 0x50	; 80
    2bec:	65 64       	ori	r22, 0x45	; 69
    2bee:	20 20       	and	r2, r0
    2bf0:	20 43       	sbci	r18, 0x30	; 48
    2bf2:	68 65       	ori	r22, 0x58	; 88
    2bf4:	63 6b       	ori	r22, 0xB3	; 179
    2bf6:	20 4c       	sbci	r18, 0xC0	; 192
    2bf8:	61 6e       	ori	r22, 0xE1	; 225
    2bfa:	64 69       	ori	r22, 0x94	; 148
    2bfc:	6e 67       	ori	r22, 0x7E	; 126
    2bfe:	20 4d       	sbci	r18, 0xD0	; 208
    2c00:	69 73       	andi	r22, 0x39	; 57
    2c02:	73 69       	ori	r23, 0x93	; 147
    2c04:	6f 6e       	ori	r22, 0xEF	; 239
    2c06:	43 6f       	ori	r20, 0xF3	; 243
    2c08:	6d 70       	andi	r22, 0x0D	; 13
    2c0a:	6c 65       	ori	r22, 0x5C	; 92
    2c0c:	74 65       	ori	r23, 0x54	; 84
    2c0e:	20 46       	sbci	r18, 0x60	; 96
    2c10:	61 69       	ori	r22, 0x91	; 145
    2c12:	6c 75       	andi	r22, 0x5C	; 92
    2c14:	72 65       	ori	r23, 0x52	; 82
    2c16:	20 20       	and	r2, r0
    2c18:	53 6d       	ori	r21, 0xD3	; 211
    2c1a:	6f 6f       	ori	r22, 0xFF	; 255
    2c1c:	74 68       	ori	r23, 0x84	; 132
    2c1e:	20 20       	and	r2, r0
    2c20:	20 20       	and	r2, r0
    2c22:	54 75       	andi	r21, 0x54	; 84
    2c24:	72 6e       	ori	r23, 0xE2	; 226
    2c26:	20 20       	and	r2, r0
    2c28:	20 54       	subi	r18, 0x40	; 64
    2c2a:	75 72       	andi	r23, 0x25	; 37
    2c2c:	6e 73       	andi	r22, 0x3E	; 62
    2c2e:	43 6f       	ori	r20, 0xF3	; 243
    2c30:	6d 70       	andi	r22, 0x0D	; 13
    2c32:	75 74       	andi	r23, 0x45	; 69
    2c34:	65 72       	andi	r22, 0x25	; 37
    2c36:	20 20       	and	r2, r0
    2c38:	20 20       	and	r2, r0
    2c3a:	59 6f       	ori	r21, 0xF9	; 249
    2c3c:	75 72       	andi	r23, 0x25	; 37
    2c3e:	20 20       	and	r2, r0
    2c40:	20 20       	and	r2, r0
    2c42:	20 59       	subi	r18, 0x90	; 144
    2c44:	6f 75       	andi	r22, 0x5F	; 95
    2c46:	20 20       	and	r2, r0
    2c48:	20 20       	and	r2, r0
    2c4a:	20 20       	and	r2, r0
    2c4c:	4d 79       	andi	r20, 0x9D	; 157
    2c4e:	20 20       	and	r2, r0
    2c50:	20 20       	and	r2, r0
    2c52:	4c 6f       	ori	r20, 0xFC	; 252
    2c54:	73 74       	andi	r23, 0x43	; 67
    2c56:	20 20       	and	r2, r0
    2c58:	20 43       	sbci	r18, 0x30	; 48
    2c5a:	6f 75       	andi	r22, 0x5F	; 95
    2c5c:	6e 74       	andi	r22, 0x4E	; 78
    2c5e:	20 43       	sbci	r18, 0x30	; 48
    2c60:	6f 75       	andi	r22, 0x5F	; 95
    2c62:	6e 74       	andi	r22, 0x4E	; 78
    2c64:	65 72       	andi	r22, 0x25	; 37
    2c66:	20 20       	and	r2, r0
    2c68:	20 20       	and	r2, r0
    2c6a:	43 61       	ori	r20, 0x13	; 19
    2c6c:	6c 63       	ori	r22, 0x3C	; 60
    2c6e:	20 20       	and	r2, r0
    2c70:	43 61       	ori	r20, 0x13	; 19
    2c72:	6c 63       	ori	r22, 0x3C	; 60
    2c74:	75 6c       	ori	r23, 0xC5	; 197
    2c76:	43 61       	ori	r20, 0x13	; 19
    2c78:	6c 63       	ori	r22, 0x3C	; 60
    2c7a:	75 6c       	ori	r23, 0xC5	; 197
    2c7c:	65 72       	andi	r22, 0x25	; 37
    2c7e:	20 20       	and	r2, r0
    2c80:	20 20       	and	r2, r0
    2c82:	20 57       	subi	r18, 0x70	; 112
    2c84:	6f 6e       	ori	r22, 0xEF	; 239
    2c86:	20 20       	and	r2, r0
    2c88:	20 20       	and	r2, r0
    2c8a:	57 61       	ori	r21, 0x17	; 23
    2c8c:	69 74       	andi	r22, 0x49	; 73
    2c8e:	20 20       	and	r2, r0
    2c90:	20 50       	subi	r18, 0x00	; 0
    2c92:	72 65       	ori	r23, 0x52	; 82
    2c94:	73 73       	andi	r23, 0x33	; 51
    2c96:	20 20       	and	r2, r0
    2c98:	20 61       	ori	r18, 0x10	; 16
    2c9a:	20 4b       	sbci	r18, 0xB0	; 176
    2c9c:	65 79       	andi	r22, 0x95	; 149
    2c9e:	52 65       	ori	r21, 0x52	; 82
    2ca0:	61 63       	ori	r22, 0x31	; 49
    2ca2:	74 69       	ori	r23, 0x94	; 148
    2ca4:	6f 6e       	ori	r22, 0xEF	; 239
    2ca6:	52 65       	ori	r21, 0x52	; 82
    2ca8:	73 70       	andi	r23, 0x03	; 3
    2caa:	6f 6e       	ori	r22, 0xEF	; 239
    2cac:	73 65       	ori	r23, 0x53	; 83
    2cae:	20 20       	and	r2, r0
    2cb0:	20 41       	sbci	r18, 0x10	; 16
    2cb2:	6c 69       	ori	r22, 0x9C	; 156
    2cb4:	65 6e       	ori	r22, 0xE5	; 229
    2cb6:	20 52       	subi	r18, 0x20	; 32
    2cb8:	75 6e       	ori	r23, 0xE5	; 229
    2cba:	6e 69       	ori	r22, 0x9E	; 158
    2cbc:	6e 67       	ori	r22, 0x7E	; 126
    2cbe:	20 20       	and	r2, r0
    2cc0:	20 20       	and	r2, r0
    2cc2:	54 65       	ori	r21, 0x54	; 84
    2cc4:	73 74       	andi	r23, 0x43	; 67
    2cc6:	20 20       	and	r2, r0
    2cc8:	20 20       	and	r2, r0
    2cca:	48 65       	ori	r20, 0x58	; 88
    2ccc:	6c 70       	andi	r22, 0x0C	; 12
    2cce:	20 20       	and	r2, r0
    2cd0:	20 48       	sbci	r18, 0x80	; 128
    2cd2:	65 6c       	ori	r22, 0xC5	; 197
    2cd4:	6c 6f       	ori	r22, 0xFC	; 252
    2cd6:	20 20       	and	r2, r0
    2cd8:	20 57       	subi	r18, 0x70	; 112
    2cda:	6f 72       	andi	r22, 0x2F	; 47
    2cdc:	6c 64       	ori	r22, 0x4C	; 76
    2cde:	20 20       	and	r2, r0
    2ce0:	20 45       	sbci	r18, 0x50	; 80
    2ce2:	54 2d       	mov	r21, r4
    2ce4:	35 38       	cpi	r19, 0x85	; 133
    2ce6:	50 72       	andi	r21, 0x20	; 32
    2ce8:	6f 67       	ori	r22, 0x7F	; 127
    2cea:	72 65       	ori	r23, 0x52	; 82
    2cec:	73 73       	andi	r23, 0x33	; 51
    2cee:	20 20       	and	r2, r0
    2cf0:	20 47       	sbci	r18, 0x70	; 112
    2cf2:	72 61       	ori	r23, 0x12	; 18
    2cf4:	70 68       	ori	r23, 0x80	; 128
    2cf6:	20 20       	and	r2, r0
    2cf8:	20 42       	sbci	r18, 0x20	; 32
    2cfa:	6c 61       	ori	r22, 0x1C	; 28
    2cfc:	63 6b       	ori	r22, 0xB3	; 179
    2cfe:	20 20       	and	r2, r0
    2d00:	20 57       	subi	r18, 0x70	; 112
    2d02:	68 69       	ori	r22, 0x98	; 152
    2d04:	74 65       	ori	r23, 0x54	; 84
    2d06:	20 20       	and	r2, r0
    2d08:	48 65       	ori	r20, 0x58	; 88
    2d0a:	69 67       	ori	r22, 0x79	; 121
    2d0c:	68 74       	andi	r22, 0x48	; 72
    2d0e:	20 20       	and	r2, r0
    2d10:	20 57       	subi	r18, 0x70	; 112
    2d12:	69 64       	ori	r22, 0x49	; 73
    2d14:	74 68       	ori	r23, 0x84	; 132
    2d16:	20 20       	and	r2, r0
    2d18:	20 20       	and	r2, r0
    2d1a:	20 43       	sbci	r18, 0x30	; 48
    2d1c:	52 43       	sbci	r21, 0x32	; 50

00002d1e <ExecOpInd>:
    2d1e:	dc d8       	rcall	.-3656   	; 0x1ed8 <ExecMemNum>
    2d20:	98 f0       	brcs	.+38     	; 0x2d48 <GetTB9>
    2d22:	2e de       	rcall	.-932    	; 0x2980 <__CalcGetMem>
    2d24:	0e 94 59 2a 	call	0x54b2	; 0x54b2 <CalcUnstackB>
    2d28:	78 f0       	brcs	.+30     	; 0x2d48 <GetTB9>
    2d2a:	71 f4       	brne	.+28     	; 0x2d48 <GetTB9>
    2d2c:	a6 c0       	rjmp	.+332    	; 0x2e7a <ExecOp2>

00002d2e <GetXB>:
    2d2e:	0e 94 a3 1e 	call	0x3d46	; 0x3d46 <__EditStop>
    2d32:	87 e0       	ldi	r24, 0x07	; 7
    2d34:	25 de       	rcall	.-950    	; 0x2980 <__CalcGetMem>
    2d36:	0c 94 59 2a 	jmp	0x54b2	; 0x54b2 <CalcUnstackB>

00002d3a <GetTB>:
    2d3a:	8f 93       	push	r24
    2d3c:	86 e0       	ldi	r24, 0x06	; 6
    2d3e:	20 de       	rcall	.-960    	; 0x2980 <__CalcGetMem>
    2d40:	0e 94 59 2a 	call	0x54b2	; 0x54b2 <CalcUnstackB>
    2d44:	98 2f       	mov	r25, r24
    2d46:	8f 91       	pop	r24

00002d48 <GetTB9>:
    2d48:	08 95       	ret

00002d4a <AddPrintChar_1B>:
    2d4a:	e0 ef       	ldi	r30, 0xF0	; 240
    2d4c:	f6 e0       	ldi	r31, 0x06	; 6
    2d4e:	07 c0       	rjmp	.+14     	; 0x2d5e <AddPrintChar_11>

00002d50 <AddPrintChar_3>:
    2d50:	ef ed       	ldi	r30, 0xDF	; 223
    2d52:	f6 e0       	ldi	r31, 0x06	; 6
    2d54:	aa eb       	ldi	r26, 0xBA	; 186
    2d56:	b6 e0       	ldi	r27, 0x06	; 6
    2d58:	04 c0       	rjmp	.+8      	; 0x2d62 <AddPrintChar>

00002d5a <AddPrintChar_1>:
    2d5a:	ee ec       	ldi	r30, 0xCE	; 206
    2d5c:	f6 e0       	ldi	r31, 0x06	; 6

00002d5e <AddPrintChar_11>:
    2d5e:	a6 ea       	ldi	r26, 0xA6	; 166
    2d60:	b6 e0       	ldi	r27, 0x06	; 6

00002d62 <AddPrintChar>:
    2d62:	ef 93       	push	r30
    2d64:	ff 93       	push	r31
    2d66:	0e 94 5c 26 	call	0x4cb8	; 0x4cb8 <CalcNew>
    2d6a:	0e 94 55 26 	call	0x4caa	; 0x4caa <ExcXZ>
    2d6e:	0e 94 ff 29 	call	0x53fe	; 0x53fe <CalcCopyNum>
    2d72:	0e 94 08 24 	call	0x4810	; 0x4810 <CalcAbs>
    2d76:	0e 94 29 24 	call	0x4852	; 0x4852 <CalcRound>
    2d7a:	0e 94 de 29 	call	0x53bc	; 0x53bc <CalcPreCor>
    2d7e:	ea e1       	ldi	r30, 0x1A	; 26
    2d80:	f2 e0       	ldi	r31, 0x02	; 2
    2d82:	0e 94 49 25 	call	0x4a92	; 0x4a92 <CalcConstROM>
    2d86:	0e 94 9b 26 	call	0x4d36	; 0x4d36 <CalcMul>
    2d8a:	78 e0       	ldi	r23, 0x08	; 8
    2d8c:	7f 93       	push	r23
    2d8e:	88 e0       	ldi	r24, 0x08	; 8
    2d90:	0e 94 3c 25 	call	0x4a78	; 0x4a78 <CalcConst>
    2d94:	0e 94 9b 26 	call	0x4d36	; 0x4d36 <CalcMul>
    2d98:	0e 94 05 29 	call	0x520a	; 0x520a <CalcDup>
    2d9c:	0e 94 59 2a 	call	0x54b2	; 0x54b2 <CalcUnstackB>
    2da0:	8f 93       	push	r24
    2da2:	0e 94 13 2a 	call	0x5426	; 0x5426 <CalcStackB>
    2da6:	0e 94 03 24 	call	0x4806	; 0x4806 <CalcNeg>
    2daa:	0e 94 6e 27 	call	0x4edc	; 0x4edc <CalcAdd>
    2dae:	8f 91       	pop	r24
    2db0:	7f 91       	pop	r23
    2db2:	ff 91       	pop	r31
    2db4:	ef 91       	pop	r30
    2db6:	84 36       	cpi	r24, 0x64	; 100
    2db8:	08 f0       	brcs	.+2      	; 0x2dbc <AddPrintChar+0x5a>
    2dba:	80 e0       	ldi	r24, 0x00	; 0
    2dbc:	80 5e       	subi	r24, 0xE0	; 224
    2dbe:	81 93       	st	Z+, r24
    2dc0:	ef 93       	push	r30
    2dc2:	ff 93       	push	r31
    2dc4:	7a 95       	dec	r23
    2dc6:	11 f7       	brne	.-60     	; 0x2d8c <AddPrintChar+0x2a>
    2dc8:	0e 94 e5 28 	call	0x51ca	; 0x51ca <CalcDel>
    2dcc:	ff 91       	pop	r31
    2dce:	ef 91       	pop	r30
    2dd0:	08 95       	ret

00002dd2 <Regr>:
    2dd2:	d4 dd       	rcall	.-1112   	; 0x297c <__Calc>
    2dd4:	ce cc       	rjmp	.-1636   	; 0x2772 <ExecDsz+0x18>
    2dd6:	c9 22       	and	r12, r25
    2dd8:	cb 23       	and	r28, r27
    2dda:	28 cd       	rjmp	.-1456   	; 0x282c <ExecTab+0x2a>
    2ddc:	cc 64       	ori	r28, 0x4C	; 76
    2dde:	cb 23       	and	r28, r27
    2de0:	28 23       	and	r18, r24
    2de2:	a6 cc       	rjmp	.-1716   	; 0x2730 <StartProg>
    2de4:	22 c9       	rjmp	.-3516   	; 0x202a <ExecBat+0x22>
    2de6:	28 41       	sbci	r18, 0x18	; 24
    2de8:	cb 23       	and	r28, r27
    2dea:	e7 01       	movw	r28, r14
    2dec:	08 95       	ret

00002dee <ExecOpPrepX>:
    2dee:	88 8f       	std	Y+24, r24	; 0x18
    2df0:	aa d7       	rcall	.+3924   	; 0x3d46 <__EditStop>
    2df2:	87 e0       	ldi	r24, 0x07	; 7
    2df4:	c5 dd       	rcall	.-1142   	; 0x2980 <__CalcGetMem>
    2df6:	0c 94 10 20 	jmp	0x4020	; 0x4020 <DecNum>

00002dfa <CpxDel>:
    2dfa:	80 91 55 01 	lds	r24, 0x0155
    2dfe:	88 23       	and	r24, r24
    2e00:	11 f4       	brne	.+4      	; 0x2e06 <CpxDel2>

00002e02 <CpxDel9>:
    2e02:	0c 94 ac 02 	jmp	0x558	; 0x558 <Fatal>

00002e06 <CpxDel2>:
    2e06:	8a 95       	dec	r24

00002e08 <CpxDel3>:
    2e08:	80 93 55 01 	sts	0x0155, r24
    2e0c:	08 95       	ret

00002e0e <CpxNew>:
    2e0e:	80 91 55 01 	lds	r24, 0x0155
    2e12:	90 91 54 01 	lds	r25, 0x0154
    2e16:	89 17       	cp	r24, r25
    2e18:	a0 f7       	brcc	.-24     	; 0x2e02 <CpxDel9>
    2e1a:	83 95       	inc	r24
    2e1c:	f5 cf       	rjmp	.-22     	; 0x2e08 <CpxDel3>

00002e1e <CpxGetPreTop>:
    2e1e:	15 d0       	rcall	.+42     	; 0x2e4a <CpxPreTopInx>
    2e20:	01 c0       	rjmp	.+2      	; 0x2e24 <CpxGetTop2>

00002e22 <CpxGetTop>:
    2e22:	17 d0       	rcall	.+46     	; 0x2e52 <CpxTopInx>

00002e24 <CpxGetTop2>:
    2e24:	8f 93       	push	r24
    2e26:	ac dd       	rcall	.-1192   	; 0x2980 <__CalcGetMem>
    2e28:	8f 91       	pop	r24
    2e2a:	83 95       	inc	r24
    2e2c:	a9 cd       	rjmp	.-1198   	; 0x2980 <__CalcGetMem>

00002e2e <CpxSetPreTop>:
    2e2e:	0d d0       	rcall	.+26     	; 0x2e4a <CpxPreTopInx>
    2e30:	01 c0       	rjmp	.+2      	; 0x2e34 <CpxSetTop2>

00002e32 <CpxSetTop>:
    2e32:	0f d0       	rcall	.+30     	; 0x2e52 <CpxTopInx>

00002e34 <CpxSetTop2>:
    2e34:	8f 93       	push	r24
    2e36:	83 95       	inc	r24
    2e38:	0e 94 6f 26 	call	0x4cde	; 0x4cde <CalcSetMem>
    2e3c:	0e 94 09 29 	call	0x5212	; 0x5212 <CalcExc>
    2e40:	8f 91       	pop	r24
    2e42:	0e 94 6f 26 	call	0x4cde	; 0x4cde <CalcSetMem>
    2e46:	0c 94 09 29 	jmp	0x5212	; 0x5212 <CalcExc>

00002e4a <CpxPreTopInx>:
    2e4a:	80 91 55 01 	lds	r24, 0x0155
    2e4e:	82 50       	subi	r24, 0x02	; 2
    2e50:	03 c0       	rjmp	.+6      	; 0x2e58 <CpxToInx>

00002e52 <CpxTopInx>:
    2e52:	80 91 55 01 	lds	r24, 0x0155
    2e56:	8a 95       	dec	r24

00002e58 <CpxToInx>:
    2e58:	90 91 54 01 	lds	r25, 0x0154
    2e5c:	89 17       	cp	r24, r25
    2e5e:	88 f6       	brcc	.-94     	; 0x2e02 <CpxDel9>
    2e60:	90 91 53 01 	lds	r25, 0x0153
    2e64:	98 0f       	add	r25, r24
    2e66:	68 f2       	brcs	.-102    	; 0x2e02 <CpxDel9>
    2e68:	98 0f       	add	r25, r24
    2e6a:	58 f2       	brcs	.-106    	; 0x2e02 <CpxDel9>
    2e6c:	9d 36       	cpi	r25, 0x6D	; 109
    2e6e:	48 f6       	brcc	.-110    	; 0x2e02 <CpxDel9>
    2e70:	98 5f       	subi	r25, 0xF8	; 248
    2e72:	89 2f       	mov	r24, r25
    2e74:	08 95       	ret

00002e76 <ExecOp>:
    2e76:	0e 94 0e 08 	call	0x101c	; 0x101c <Load2Hex>

00002e7a <ExecOp2>:
    2e7a:	8c 38       	cpi	r24, 0x8C	; 140
    2e7c:	a0 f4       	brcc	.+40     	; 0x2ea6 <ExecOp_00_9>
    2e7e:	ea e2       	ldi	r30, 0x2A	; 42
    2e80:	f9 e3       	ldi	r31, 0x39	; 57
    2e82:	e8 0f       	add	r30, r24
    2e84:	f1 1d       	adc	r31, r1
    2e86:	e8 0f       	add	r30, r24
    2e88:	f1 1d       	adc	r31, r1
    2e8a:	05 90       	lpm	r0, Z+
    2e8c:	f4 91       	lpm	r31, Z+
    2e8e:	e0 2d       	mov	r30, r0
    2e90:	f6 95       	lsr	r31
    2e92:	e7 95       	ror	r30
    2e94:	09 94       	ijmp

00002e96 <ExecOp_00>:
    2e96:	e6 ea       	ldi	r30, 0xA6	; 166
    2e98:	f6 e0       	ldi	r31, 0x06	; 6
    2e9a:	84 e0       	ldi	r24, 0x04	; 4
    2e9c:	0e 94 d8 23 	call	0x47b0	; 0x47b0 <CalcZ0>
    2ea0:	3a 96       	adiw	r30, 0x0a	; 10
    2ea2:	8a 95       	dec	r24
    2ea4:	d9 f7       	brne	.-10     	; 0x2e9c <ExecOp_00+0x6>

00002ea6 <ExecOp_00_9>:
    2ea6:	08 95       	ret

00002ea8 <ExecOp_01>:
    2ea8:	8f 93       	push	r24
    2eaa:	4d d7       	rcall	.+3738   	; 0x3d46 <__EditStop>
    2eac:	8f 91       	pop	r24
    2eae:	9a e0       	ldi	r25, 0x0A	; 10
    2eb0:	98 9f       	mul	r25, r24
    2eb2:	d0 01       	movw	r26, r0
    2eb4:	11 24       	eor	r1, r1
    2eb6:	a4 56       	subi	r26, 0x64	; 100
    2eb8:	b9 4f       	sbci	r27, 0xF9	; 249
    2eba:	e0 eb       	ldi	r30, 0xB0	; 176
    2ebc:	f1 e0       	ldi	r31, 0x01	; 1
    2ebe:	0e 94 ff 29 	call	0x53fe	; 0x53fe <CalcCopyNum>
    2ec2:	3f c7       	rjmp	.+3710   	; 0x3d42 <_Disp>

00002ec4 <ExecOp_05>:
    2ec4:	40 d7       	rcall	.+3712   	; 0x3d46 <__EditStop>
    2ec6:	08 95       	ret

00002ec8 <ExecOp_06>:
    2ec8:	3e d7       	rcall	.+3708   	; 0x3d46 <__EditStop>
    2eca:	08 95       	ret

00002ecc <ExecOp_07>:
    2ecc:	3c d7       	rcall	.+3704   	; 0x3d46 <__EditStop>
    2ece:	08 95       	ret

00002ed0 <ExecOp_08>:
    2ed0:	3a d7       	rcall	.+3700   	; 0x3d46 <__EditStop>
    2ed2:	08 95       	ret

00002ed4 <ExecOp_09>:
    2ed4:	f2 99       	sbic	0x1e, 2	; 30
    2ed6:	08 95       	ret
    2ed8:	88 a1       	ldd	r24, Y+32	; 0x20
    2eda:	88 23       	and	r24, r24
    2edc:	e1 f3       	breq	.-8      	; 0x2ed6 <ExecOp_09+0x2>
    2ede:	33 d7       	rcall	.+3686   	; 0x3d46 <__EditStop>
    2ee0:	0e 94 c0 05 	call	0xb80	; 0xb80 <DispSetRow1>
    2ee4:	e4 e8       	ldi	r30, 0x84	; 132
    2ee6:	f9 e2       	ldi	r31, 0x29	; 41
    2ee8:	0e 94 c7 05 	call	0xb8e	; 0xb8e <DispTextRom>
    2eec:	8f ef       	ldi	r24, 0xFF	; 255
    2eee:	0e 94 5a 04 	call	0x8b4	; 0x8b4 <ReturnKey>
    2ef2:	0e 94 5c 04 	call	0x8b8	; 0x8b8 <WaitKey>
    2ef6:	81 30       	cpi	r24, 0x01	; 1
    2ef8:	d1 f4       	brne	.+52     	; 0x2f2e <ExecOp_09+0x5a>
    2efa:	3e dd       	rcall	.-1412   	; 0x2978 <_DispC>
    2efc:	ea a1       	ldd	r30, Y+34	; 0x22
    2efe:	fb a1       	ldd	r31, Y+35	; 0x23
    2f00:	aa 27       	eor	r26, r26
    2f02:	bb 27       	eor	r27, r27
    2f04:	0e 94 55 26 	call	0x4caa	; 0x4caa <ExcXZ>
    2f08:	0e 94 89 07 	call	0xf12	; 0xf12 <LoadByte>
    2f0c:	08 f4       	brcc	.+2      	; 0x2f10 <ExecOp_09+0x3c>
    2f0e:	8f ef       	ldi	r24, 0xFF	; 255
    2f10:	98 2f       	mov	r25, r24
    2f12:	0e 94 55 26 	call	0x4caa	; 0x4caa <ExcXZ>
    2f16:	0e 94 73 04 	call	0x8e6	; 0x8e6 <EEWrite>
    2f1a:	11 96       	adiw	r26, 0x01	; 1
    2f1c:	a8 3e       	cpi	r26, 0xE8	; 232
    2f1e:	91 f7       	brne	.-28     	; 0x2f04 <ExecOp_09+0x30>
    2f20:	b3 30       	cpi	r27, 0x03	; 3
    2f22:	81 f7       	brne	.-32     	; 0x2f04 <ExecOp_09+0x30>
    2f24:	88 27       	eor	r24, r24
    2f26:	0e 94 61 07 	call	0xec2	; 0xec2 <OpenProg>
    2f2a:	1c 8e       	std	Y+28, r1	; 0x1c
    2f2c:	1d 8e       	std	Y+29, r1	; 0x1d
    2f2e:	09 c7       	rjmp	.+3602   	; 0x3d42 <_Disp>

00002f30 <ExecOp_0A>:
    2f30:	14 df       	rcall	.-472    	; 0x2d5a <AddPrintChar_1>
    2f32:	a0 eb       	ldi	r26, 0xB0	; 176
    2f34:	b6 e0       	ldi	r27, 0x06	; 6
    2f36:	15 df       	rcall	.-470    	; 0x2d62 <AddPrintChar>
    2f38:	0a c0       	rjmp	.+20     	; 0x2f4e <ExecOp_0B_4>

00002f3a <ExecOp_0B>:
    2f3a:	88 e0       	ldi	r24, 0x08	; 8
    2f3c:	58 df       	rcall	.-336    	; 0x2dee <ExecOpPrepX>
    2f3e:	0d df       	rcall	.-486    	; 0x2d5a <AddPrintChar_1>

00002f40 <ExecOp_0B_2>:
    2f40:	98 e0       	ldi	r25, 0x08	; 8

00002f42 <ExecOp_0B_3>:
    2f42:	a9 e2       	ldi	r26, 0x29	; 41
    2f44:	b1 e0       	ldi	r27, 0x01	; 1
    2f46:	8d 91       	ld	r24, X+
    2f48:	81 93       	st	Z+, r24
    2f4a:	9a 95       	dec	r25
    2f4c:	e1 f7       	brne	.-8      	; 0x2f46 <ExecOp_0B_3+0x4>

00002f4e <ExecOp_0B_4>:
    2f4e:	f2 99       	sbic	0x1e, 2	; 30
    2f50:	13 dd       	rcall	.-1498   	; 0x2978 <_DispC>
    2f52:	f7 d6       	rcall	.+3566   	; 0x3d42 <_Disp>
    2f54:	08 95       	ret

00002f56 <ExecOp_0C>:
    2f56:	8c e0       	ldi	r24, 0x0C	; 12
    2f58:	4a df       	rcall	.-364    	; 0x2dee <ExecOpPrepX>
    2f5a:	ff de       	rcall	.-514    	; 0x2d5a <AddPrintChar_1>

00002f5c <ExecOp_0C_2>:
    2f5c:	34 97       	sbiw	r30, 0x04	; 4
    2f5e:	9c e0       	ldi	r25, 0x0C	; 12
    2f60:	f0 cf       	rjmp	.-32     	; 0x2f42 <ExecOp_0B_3>

00002f62 <ExecOp_0D>:
    2f62:	f6 de       	rcall	.-532    	; 0x2d50 <AddPrintChar_3>
    2f64:	a4 ec       	ldi	r26, 0xC4	; 196
    2f66:	b6 e0       	ldi	r27, 0x06	; 6
    2f68:	fc de       	rcall	.-520    	; 0x2d62 <AddPrintChar>
    2f6a:	f1 cf       	rjmp	.-30     	; 0x2f4e <ExecOp_0B_4>

00002f6c <ExecOp_0E>:
    2f6c:	88 e0       	ldi	r24, 0x08	; 8
    2f6e:	3f df       	rcall	.-386    	; 0x2dee <ExecOpPrepX>
    2f70:	ef de       	rcall	.-546    	; 0x2d50 <AddPrintChar_3>
    2f72:	e6 cf       	rjmp	.-52     	; 0x2f40 <ExecOp_0B_2>

00002f74 <ExecOp_0F>:
    2f74:	8c e0       	ldi	r24, 0x0C	; 12
    2f76:	3b df       	rcall	.-394    	; 0x2dee <ExecOpPrepX>
    2f78:	eb de       	rcall	.-554    	; 0x2d50 <AddPrintChar_3>
    2f7a:	f0 cf       	rjmp	.-32     	; 0x2f5c <ExecOp_0C_2>

00002f7c <ExecOp_10>:
    2f7c:	0c 94 0e 1f 	jmp	0x3e1c	; 0x3e1c <ExecSign>

00002f80 <ExecOp_11>:
    2f80:	e2 d6       	rcall	.+3524   	; 0x3d46 <__EditStop>
    2f82:	fc dc       	rcall	.-1544   	; 0x297c <__Calc>
    2f84:	cd cb       	rjmp	.-2150   	; 0x2720 <ExecOct+0xc>
    2f86:	23 cc       	rjmp	.-1978   	; 0x27ce <ExecNot+0x16>
    2f88:	cb 23       	and	r28, r27
    2f8a:	64 28       	or	r6, r4
    2f8c:	e6 ca       	rjmp	.-2612   	; 0x255a <ExecHir2+0x2a>
    2f8e:	cb 23       	and	r28, r27
    2f90:	c9 cb       	rjmp	.-2158   	; 0x2724 <ExecOct+0x10>
    2f92:	23 64       	ori	r18, 0x43	; 67
    2f94:	28 e7       	ldi	r18, 0x78	; 120
    2f96:	01 00       	.word	0x0001	; ????
    2f98:	d4 c6       	rjmp	.+3496   	; 0x3d42 <_Disp>

00002f9a <ExecOp_12>:
    2f9a:	d5 d6       	rcall	.+3498   	; 0x3d46 <__EditStop>
    2f9c:	1a df       	rcall	.-460    	; 0x2dd2 <Regr>
    2f9e:	d1 c6       	rjmp	.+3490   	; 0x3d42 <_Disp>

00002fa0 <ExecOp_13>:
    2fa0:	d2 d6       	rcall	.+3492   	; 0x3d46 <__EditStop>
    2fa2:	ec dc       	rcall	.-1576   	; 0x297c <__Calc>
    2fa4:	ce cc       	rjmp	.-1636   	; 0x2942 <Exec>
    2fa6:	c9 22       	and	r12, r25
    2fa8:	cb 23       	and	r28, r27
    2faa:	28 cd       	rjmp	.-1456   	; 0x29fc <NumTextTab+0x66>
    2fac:	cc 64       	ori	r28, 0x4C	; 76
    2fae:	cb 23       	and	r28, r27
    2fb0:	28 ca       	rjmp	.-2992   	; 0x2402 <ExecSbr2+0x36>
    2fb2:	c9 64       	ori	r28, 0x49	; 73
    2fb4:	cb 23       	and	r28, r27
    2fb6:	28 22       	and	r2, r24
    2fb8:	23 e7       	ldi	r18, 0x73	; 115
    2fba:	01 00       	.word	0x0001	; ????
    2fbc:	c2 c6       	rjmp	.+3460   	; 0x3d42 <_Disp>

00002fbe <ExecOp_14>:
    2fbe:	c3 d6       	rcall	.+3462   	; 0x3d46 <__EditStop>
    2fc0:	86 e0       	ldi	r24, 0x06	; 6
    2fc2:	de dc       	rcall	.-1604   	; 0x2980 <__CalcGetMem>
    2fc4:	87 e0       	ldi	r24, 0x07	; 7
    2fc6:	dc dc       	rcall	.-1608   	; 0x2980 <__CalcGetMem>
    2fc8:	04 df       	rcall	.-504    	; 0x2dd2 <Regr>
    2fca:	d8 dc       	rcall	.-1616   	; 0x297c <__Calc>
    2fcc:	c6 22       	and	r12, r22
    2fce:	c7 29       	or	r28, r7
    2fd0:	e7 e6       	ldi	r30, 0x67	; 103
    2fd2:	01 00       	.word	0x0001	; ????
    2fd4:	b6 c6       	rjmp	.+3436   	; 0x3d42 <_Disp>

00002fd6 <ExecOp_15>:
    2fd6:	0e 94 37 0d 	call	0x1a6e	; 0x1a6e <EditStop>
    2fda:	86 e0       	ldi	r24, 0x06	; 6
    2fdc:	d1 dc       	rcall	.-1630   	; 0x2980 <__CalcGetMem>
    2fde:	87 e0       	ldi	r24, 0x07	; 7
    2fe0:	cf dc       	rcall	.-1634   	; 0x2980 <__CalcGetMem>
    2fe2:	f7 de       	rcall	.-530    	; 0x2dd2 <Regr>
    2fe4:	cb dc       	rcall	.-1642   	; 0x297c <__Calc>
    2fe6:	c7 28       	or	r12, r7
    2fe8:	c6 23       	and	r28, r22
    2fea:	e7 e6       	ldi	r30, 0x67	; 103
    2fec:	01 00       	.word	0x0001	; ????
    2fee:	a9 c6       	rjmp	.+3410   	; 0x3d42 <_Disp>

00002ff0 <ExecOp_16>:
    2ff0:	0e 94 37 0d 	call	0x1a6e	; 0x1a6e <EditStop>
    2ff4:	8f e1       	ldi	r24, 0x1F	; 31
    2ff6:	0e 94 3c 25 	call	0x4a78	; 0x4a78 <CalcConst>
    2ffa:	0e 94 67 0e 	call	0x1cce	; 0x1cce <_CalcSetMemDelX>
    2ffe:	a1 c6       	rjmp	.+3394   	; 0x3d42 <_Disp>

00003000 <ExecOp_18>:
    3000:	87 e0       	ldi	r24, 0x07	; 7
    3002:	f4 9b       	sbis	0x1e, 4	; 30
    3004:	0c 94 5f 0c 	jmp	0x18be	; 0x18be <UserFlagSet>
    3008:	08 95       	ret

0000300a <ExecOp_19>:
    300a:	87 e0       	ldi	r24, 0x07	; 7
    300c:	f4 99       	sbic	0x1e, 4	; 30
    300e:	0c 94 5f 0c 	jmp	0x18be	; 0x18be <UserFlagSet>
    3012:	08 95       	ret

00003014 <ExecOp_1A>:
    3014:	9a de       	rcall	.-716    	; 0x2d4a <AddPrintChar_1B>
    3016:	a0 eb       	ldi	r26, 0xB0	; 176
    3018:	b6 e0       	ldi	r27, 0x06	; 6
    301a:	a3 de       	rcall	.-698    	; 0x2d62 <AddPrintChar>
    301c:	98 cf       	rjmp	.-208    	; 0x2f4e <ExecOp_0B_4>

0000301e <ExecOp_1B>:
    301e:	88 e0       	ldi	r24, 0x08	; 8
    3020:	e6 de       	rcall	.-564    	; 0x2dee <ExecOpPrepX>
    3022:	93 de       	rcall	.-730    	; 0x2d4a <AddPrintChar_1B>
    3024:	8d cf       	rjmp	.-230    	; 0x2f40 <ExecOp_0B_2>

00003026 <ExecOp_1C>:
    3026:	8c e0       	ldi	r24, 0x0C	; 12
    3028:	e2 de       	rcall	.-572    	; 0x2dee <ExecOpPrepX>
    302a:	8f de       	rcall	.-738    	; 0x2d4a <AddPrintChar_1B>
    302c:	97 cf       	rjmp	.-210    	; 0x2f5c <ExecOp_0C_2>

0000302e <ExecOp_1D>:
    302e:	0e 94 11 0c 	call	0x1822	; 0x1822 <FlagClrDispRegT>
    3032:	0e 94 14 0c 	call	0x1828	; 0x1828 <FlagClrDispText>
    3036:	85 c6       	rjmp	.+3338   	; 0x3d42 <_Disp>

00003038 <ExecOp_1E>:
    3038:	0e 94 de 0b 	call	0x17bc	; 0x17bc <FlagSetDispRegT>
    303c:	0e 94 14 0c 	call	0x1828	; 0x1828 <FlagClrDispText>
    3040:	80 c6       	rjmp	.+3328   	; 0x3d42 <_Disp>

00003042 <ExecOp_1F>:
    3042:	0e 94 e1 0b 	call	0x17c2	; 0x17c2 <FlagSetDispText>
    3046:	7d c6       	rjmp	.+3322   	; 0x3d42 <_Disp>

00003048 <ExecOp_20>:
    3048:	8f 70       	andi	r24, 0x0F	; 15
    304a:	88 5f       	subi	r24, 0xF8	; 248
    304c:	8f 93       	push	r24
    304e:	98 dc       	rcall	.-1744   	; 0x2980 <__CalcGetMem>
    3050:	0e 94 bb 23 	call	0x4776	; 0x4776 <CalcInc>
    3054:	8f 91       	pop	r24
    3056:	0c 94 73 26 	jmp	0x4ce6	; 0x4ce6 <CalcSetMemDel>

0000305a <ExecOp_30>:
    305a:	8f 70       	andi	r24, 0x0F	; 15
    305c:	88 5f       	subi	r24, 0xF8	; 248
    305e:	8f 93       	push	r24
    3060:	8f dc       	rcall	.-1762   	; 0x2980 <__CalcGetMem>
    3062:	0e 94 be 23 	call	0x477c	; 0x477c <CalcDec>
    3066:	f6 cf       	rjmp	.-20     	; 0x3054 <ExecOp_20+0xc>

00003068 <ExecOp_40>:
    3068:	0e 94 6e 0e 	call	0x1cdc	; 0x1cdc <_EditStop>
    306c:	0e 94 33 04 	call	0x866	; 0x866 <GetKey>

00003070 <ExecOp_40B>:
    3070:	0e 94 13 2a 	call	0x5426	; 0x5426 <CalcStackB>
    3074:	0e 94 67 0e 	call	0x1cce	; 0x1cce <_CalcSetMemDelX>
    3078:	64 c6       	rjmp	.+3272   	; 0x3d42 <_Disp>

0000307a <ExecOp_41>:
    307a:	59 de       	rcall	.-846    	; 0x2d2e <GetXB>
    307c:	9e 81       	ldd	r25, Y+6	; 0x06
    307e:	89 17       	cp	r24, r25
    3080:	80 e0       	ldi	r24, 0x00	; 0
    3082:	b1 f7       	brne	.-20     	; 0x3070 <ExecOp_40B>
    3084:	81 e0       	ldi	r24, 0x01	; 1
    3086:	f4 cf       	rjmp	.-24     	; 0x3070 <ExecOp_40B>

00003088 <ExecOp_42>:
    3088:	52 de       	rcall	.-860    	; 0x2d2e <GetXB>
    308a:	57 de       	rcall	.-850    	; 0x2d3a <GetTB>
    308c:	84 36       	cpi	r24, 0x64	; 100
    308e:	08 f0       	brcs	.+2      	; 0x3092 <ExecOp_42+0xa>
    3090:	88 27       	eor	r24, r24
    3092:	80 5e       	subi	r24, 0xE0	; 224
    3094:	ee ec       	ldi	r30, 0xCE	; 206
    3096:	f6 e0       	ldi	r31, 0x06	; 6
    3098:	90 31       	cpi	r25, 0x10	; 16
    309a:	50 f0       	brcs	.+20     	; 0x30b0 <ExecOp_42+0x28>
    309c:	90 51       	subi	r25, 0x10	; 16
    309e:	ef ed       	ldi	r30, 0xDF	; 223
    30a0:	f6 e0       	ldi	r31, 0x06	; 6
    30a2:	90 31       	cpi	r25, 0x10	; 16
    30a4:	28 f0       	brcs	.+10     	; 0x30b0 <ExecOp_42+0x28>
    30a6:	90 51       	subi	r25, 0x10	; 16
    30a8:	90 31       	cpi	r25, 0x10	; 16
    30aa:	40 f4       	brcc	.+16     	; 0x30bc <ExecOp_42+0x34>
    30ac:	e0 ef       	ldi	r30, 0xF0	; 240
    30ae:	f6 e0       	ldi	r31, 0x06	; 6
    30b0:	e9 0f       	add	r30, r25
    30b2:	f1 1d       	adc	r31, r1
    30b4:	80 83       	st	Z, r24
    30b6:	f2 99       	sbic	0x1e, 2	; 30
    30b8:	5f cc       	rjmp	.-1858   	; 0x2978 <_DispC>
    30ba:	43 c6       	rjmp	.+3206   	; 0x3d42 <_Disp>
    30bc:	08 95       	ret

000030be <ExecOp_43>:
    30be:	37 de       	rcall	.-914    	; 0x2d2e <GetXB>
    30c0:	85 30       	cpi	r24, 0x05	; 5
    30c2:	10 f4       	brcc	.+4      	; 0x30c8 <ExecOp_43+0xa>
    30c4:	0e 94 7f 05 	call	0xafe	; 0xafe <SetFont>
    30c8:	08 95       	ret

000030ca <ExecOp_44>:
    30ca:	31 de       	rcall	.-926    	; 0x2d2e <GetXB>
    30cc:	88 23       	and	r24, r24
    30ce:	39 f0       	breq	.+14     	; 0x30de <ExecOp_44+0x14>
    30d0:	8f 93       	push	r24
    30d2:	8a e0       	ldi	r24, 0x0A	; 10
    30d4:	0e 94 8c 03 	call	0x718	; 0x718 <Waitms>
    30d8:	8f 91       	pop	r24
    30da:	8a 95       	dec	r24
    30dc:	c9 f7       	brne	.-14     	; 0x30d0 <ExecOp_44+0x6>
    30de:	08 95       	ret

000030e0 <ExecOp_45>:
    30e0:	26 de       	rcall	.-948    	; 0x2d2e <GetXB>
    30e2:	ee ec       	ldi	r30, 0xCE	; 206
    30e4:	f6 e0       	ldi	r31, 0x06	; 6

000030e6 <ExecOp_45B>:
    30e6:	20 f0       	brcs	.+8      	; 0x30f0 <ExecOp_45B+0xa>
    30e8:	09 f0       	breq	.+2      	; 0x30ec <ExecOp_45B+0x6>
    30ea:	88 27       	eor	r24, r24
    30ec:	80 35       	cpi	r24, 0x50	; 80
    30ee:	08 f0       	brcs	.+2      	; 0x30f2 <ExecOp_45B+0xc>
    30f0:	80 e5       	ldi	r24, 0x50	; 80
    30f2:	90 e1       	ldi	r25, 0x10	; 16

000030f4 <ExecOp_45C>:
    30f4:	a0 e2       	ldi	r26, 0x20	; 32
    30f6:	88 23       	and	r24, r24
    30f8:	2a f0       	brmi	.+10     	; 0x3104 <ExecOp_45C+0x10>
    30fa:	a0 e8       	ldi	r26, 0x80	; 128
    30fc:	85 30       	cpi	r24, 0x05	; 5
    30fe:	10 f4       	brcc	.+4      	; 0x3104 <ExecOp_45C+0x10>
    3100:	a8 2f       	mov	r26, r24
    3102:	a5 58       	subi	r26, 0x85	; 133
    3104:	85 50       	subi	r24, 0x05	; 5
    3106:	a1 93       	st	Z+, r26
    3108:	9a 95       	dec	r25
    310a:	a1 f7       	brne	.-24     	; 0x30f4 <ExecOp_45C>
    310c:	81 e0       	ldi	r24, 0x01	; 1
    310e:	0e 94 7f 05 	call	0xafe	; 0xafe <SetFont>
    3112:	f2 99       	sbic	0x1e, 2	; 30
    3114:	31 cc       	rjmp	.-1950   	; 0x2978 <_DispC>
    3116:	15 c6       	rjmp	.+3114   	; 0x3d42 <_Disp>

00003118 <ExecOp_46>:
    3118:	0a de       	rcall	.-1004   	; 0x2d2e <GetXB>
    311a:	ef ed       	ldi	r30, 0xDF	; 223
    311c:	f6 e0       	ldi	r31, 0x06	; 6
    311e:	e3 cf       	rjmp	.-58     	; 0x30e6 <ExecOp_45B>

00003120 <ExecOp_47>:
    3120:	14 de       	rcall	.-984    	; 0x2d4a <AddPrintChar_1B>
    3122:	0e 94 e1 0b 	call	0x17c2	; 0x17c2 <FlagSetDispText>
    3126:	03 de       	rcall	.-1018   	; 0x2d2e <GetXB>
    3128:	e8 ef       	ldi	r30, 0xF8	; 248
    312a:	f6 e0       	ldi	r31, 0x06	; 6
    312c:	20 f0       	brcs	.+8      	; 0x3136 <ExecOp_47+0x16>
    312e:	09 f0       	breq	.+2      	; 0x3132 <ExecOp_47+0x12>
    3130:	88 27       	eor	r24, r24
    3132:	88 32       	cpi	r24, 0x28	; 40
    3134:	08 f0       	brcs	.+2      	; 0x3138 <ExecOp_47+0x18>
    3136:	88 e2       	ldi	r24, 0x28	; 40
    3138:	98 e0       	ldi	r25, 0x08	; 8
    313a:	dc cf       	rjmp	.-72     	; 0x30f4 <ExecOp_45C>

0000313c <ExecOp_48>:
    313c:	f8 dd       	rcall	.-1040   	; 0x2d2e <GetXB>
    313e:	ee ed       	ldi	r30, 0xDE	; 222
    3140:	f6 e0       	ldi	r31, 0x06	; 6

00003142 <ExecOp_48B>:
    3142:	20 f0       	brcs	.+8      	; 0x314c <ExecOp_48B+0xa>
    3144:	09 f0       	breq	.+2      	; 0x3148 <ExecOp_48B+0x6>
    3146:	88 27       	eor	r24, r24
    3148:	80 35       	cpi	r24, 0x50	; 80
    314a:	08 f0       	brcs	.+2      	; 0x314e <ExecOp_48B+0xc>
    314c:	80 e5       	ldi	r24, 0x50	; 80
    314e:	90 e1       	ldi	r25, 0x10	; 16

00003150 <ExecOp_48C>:
    3150:	a0 e2       	ldi	r26, 0x20	; 32
    3152:	88 23       	and	r24, r24
    3154:	2a f0       	brmi	.+10     	; 0x3160 <ExecOp_48C+0x10>
    3156:	a0 e8       	ldi	r26, 0x80	; 128
    3158:	85 30       	cpi	r24, 0x05	; 5
    315a:	10 f4       	brcc	.+4      	; 0x3160 <ExecOp_48C+0x10>
    315c:	a8 2f       	mov	r26, r24
    315e:	a5 58       	subi	r26, 0x85	; 133
    3160:	85 50       	subi	r24, 0x05	; 5
    3162:	a2 93       	st	-Z, r26
    3164:	9a 95       	dec	r25
    3166:	a1 f7       	brne	.-24     	; 0x3150 <ExecOp_48C>
    3168:	82 e0       	ldi	r24, 0x02	; 2
    316a:	0e 94 7f 05 	call	0xafe	; 0xafe <SetFont>
    316e:	f2 99       	sbic	0x1e, 2	; 30
    3170:	03 cc       	rjmp	.-2042   	; 0x2978 <_DispC>
    3172:	e7 c5       	rjmp	.+3022   	; 0x3d42 <_Disp>

00003174 <ExecOp_49>:
    3174:	dc dd       	rcall	.-1096   	; 0x2d2e <GetXB>
    3176:	ef ee       	ldi	r30, 0xEF	; 239
    3178:	f6 e0       	ldi	r31, 0x06	; 6
    317a:	e3 cf       	rjmp	.-58     	; 0x3142 <ExecOp_48B>

0000317c <ExecOp_4A>:
    317c:	e6 dd       	rcall	.-1076   	; 0x2d4a <AddPrintChar_1B>
    317e:	0e 94 e1 0b 	call	0x17c2	; 0x17c2 <FlagSetDispText>
    3182:	d5 dd       	rcall	.-1110   	; 0x2d2e <GetXB>
    3184:	e0 e0       	ldi	r30, 0x00	; 0
    3186:	f7 e0       	ldi	r31, 0x07	; 7
    3188:	20 f0       	brcs	.+8      	; 0x3192 <ExecOp_4A+0x16>
    318a:	09 f0       	breq	.+2      	; 0x318e <ExecOp_4A+0x12>
    318c:	88 27       	eor	r24, r24
    318e:	88 32       	cpi	r24, 0x28	; 40
    3190:	08 f0       	brcs	.+2      	; 0x3194 <ExecOp_4A+0x18>
    3192:	88 e2       	ldi	r24, 0x28	; 40
    3194:	98 e0       	ldi	r25, 0x08	; 8
    3196:	dc cf       	rjmp	.-72     	; 0x3150 <ExecOp_48C>

00003198 <ExecOp_4B>:
    3198:	ca dd       	rcall	.-1132   	; 0x2d2e <GetXB>
    319a:	20 f0       	brcs	.+8      	; 0x31a4 <ExecOp_4B+0xc>
    319c:	09 f0       	breq	.+2      	; 0x31a0 <ExecOp_4B+0x8>
    319e:	88 27       	eor	r24, r24
    31a0:	80 31       	cpi	r24, 0x10	; 16
    31a2:	08 f0       	brcs	.+2      	; 0x31a6 <ExecOp_4B+0xe>
    31a4:	80 e1       	ldi	r24, 0x10	; 16
    31a6:	c9 dd       	rcall	.-1134   	; 0x2d3a <GetTB>
    31a8:	00 f1       	brcs	.+64     	; 0x31ea <ExecOp_4B+0x52>
    31aa:	f9 f4       	brne	.+62     	; 0x31ea <ExecOp_4B+0x52>
    31ac:	90 31       	cpi	r25, 0x10	; 16
    31ae:	e8 f4       	brcc	.+58     	; 0x31ea <ExecOp_4B+0x52>
    31b0:	ef ed       	ldi	r30, 0xDF	; 223
    31b2:	f6 e0       	ldi	r31, 0x06	; 6
    31b4:	e9 0f       	add	r30, r25
    31b6:	f1 1d       	adc	r31, r1
    31b8:	a3 e8       	ldi	r26, 0x83	; 131
    31ba:	88 30       	cpi	r24, 0x08	; 8
    31bc:	10 f4       	brcc	.+4      	; 0x31c2 <ExecOp_4B+0x2a>
    31be:	a8 2f       	mov	r26, r24
    31c0:	a5 58       	subi	r26, 0x85	; 133
    31c2:	88 50       	subi	r24, 0x08	; 8
    31c4:	a0 83       	st	Z, r26
    31c6:	ee ec       	ldi	r30, 0xCE	; 206
    31c8:	f6 e0       	ldi	r31, 0x06	; 6
    31ca:	e9 0f       	add	r30, r25
    31cc:	f1 1d       	adc	r31, r1
    31ce:	a0 e2       	ldi	r26, 0x20	; 32
    31d0:	88 23       	and	r24, r24
    31d2:	2a f0       	brmi	.+10     	; 0x31de <ExecOp_4B+0x46>
    31d4:	a3 e8       	ldi	r26, 0x83	; 131
    31d6:	88 30       	cpi	r24, 0x08	; 8
    31d8:	10 f4       	brcc	.+4      	; 0x31de <ExecOp_4B+0x46>
    31da:	a8 2f       	mov	r26, r24
    31dc:	a5 58       	subi	r26, 0x85	; 133
    31de:	a0 83       	st	Z, r26
    31e0:	83 e0       	ldi	r24, 0x03	; 3
    31e2:	0e 94 7f 05 	call	0xafe	; 0xafe <SetFont>
    31e6:	f2 99       	sbic	0x1e, 2	; 30
    31e8:	c7 cb       	rjmp	.-2162   	; 0x2978 <_DispC>
    31ea:	08 95       	ret

000031ec <ExecOp_4C>:
    31ec:	ae dd       	rcall	.-1188   	; 0x2d4a <AddPrintChar_1B>
    31ee:	0e 94 e1 0b 	call	0x17c2	; 0x17c2 <FlagSetDispText>
    31f2:	9d dd       	rcall	.-1222   	; 0x2d2e <GetXB>
    31f4:	20 f0       	brcs	.+8      	; 0x31fe <ExecOp_4C+0x12>
    31f6:	09 f0       	breq	.+2      	; 0x31fa <ExecOp_4C+0xe>
    31f8:	88 27       	eor	r24, r24
    31fa:	88 30       	cpi	r24, 0x08	; 8
    31fc:	08 f0       	brcs	.+2      	; 0x3200 <ExecOp_4C+0x14>
    31fe:	88 e0       	ldi	r24, 0x08	; 8
    3200:	9c dd       	rcall	.-1224   	; 0x2d3a <GetTB>
    3202:	88 f0       	brcs	.+34     	; 0x3226 <ExecOp_4C+0x3a>
    3204:	81 f4       	brne	.+32     	; 0x3226 <ExecOp_4C+0x3a>
    3206:	98 30       	cpi	r25, 0x08	; 8
    3208:	70 f4       	brcc	.+28     	; 0x3226 <ExecOp_4C+0x3a>
    320a:	e8 ef       	ldi	r30, 0xF8	; 248
    320c:	f6 e0       	ldi	r31, 0x06	; 6
    320e:	e9 0f       	add	r30, r25
    3210:	f1 1d       	adc	r31, r1
    3212:	a3 e8       	ldi	r26, 0x83	; 131
    3214:	88 30       	cpi	r24, 0x08	; 8
    3216:	10 f4       	brcc	.+4      	; 0x321c <ExecOp_4C+0x30>
    3218:	a8 2f       	mov	r26, r24
    321a:	a5 58       	subi	r26, 0x85	; 133
    321c:	a0 83       	st	Z, r26
    321e:	83 e0       	ldi	r24, 0x03	; 3
    3220:	0e 94 7f 05 	call	0xafe	; 0xafe <SetFont>
    3224:	8e c5       	rjmp	.+2844   	; 0x3d42 <_Disp>
    3226:	08 95       	ret

00003228 <ExecOp_4D>:
    3228:	82 dd       	rcall	.-1276   	; 0x2d2e <GetXB>
    322a:	40 f1       	brcs	.+80     	; 0x327c <ExecOp_4D+0x54>
    322c:	39 f5       	brne	.+78     	; 0x327c <ExecOp_4D+0x54>
    322e:	80 31       	cpi	r24, 0x10	; 16
    3230:	28 f5       	brcc	.+74     	; 0x327c <ExecOp_4D+0x54>
    3232:	83 dd       	rcall	.-1274   	; 0x2d3a <GetTB>
    3234:	18 f1       	brcs	.+70     	; 0x327c <ExecOp_4D+0x54>
    3236:	11 f5       	brne	.+68     	; 0x327c <ExecOp_4D+0x54>
    3238:	96 30       	cpi	r25, 0x06	; 6
    323a:	00 f5       	brcc	.+64     	; 0x327c <ExecOp_4D+0x54>
    323c:	ef ed       	ldi	r30, 0xDF	; 223
    323e:	f6 e0       	ldi	r31, 0x06	; 6
    3240:	93 30       	cpi	r25, 0x03	; 3
    3242:	18 f0       	brcs	.+6      	; 0x324a <ExecOp_4D+0x22>
    3244:	ee ec       	ldi	r30, 0xCE	; 206
    3246:	f6 e0       	ldi	r31, 0x06	; 6
    3248:	93 50       	subi	r25, 0x03	; 3
    324a:	e8 0f       	add	r30, r24
    324c:	f1 1d       	adc	r31, r1
    324e:	80 81       	ld	r24, Z
    3250:	8b 37       	cpi	r24, 0x7B	; 123
    3252:	10 f0       	brcs	.+4      	; 0x3258 <ExecOp_4D+0x30>
    3254:	83 38       	cpi	r24, 0x83	; 131
    3256:	08 f0       	brcs	.+2      	; 0x325a <ExecOp_4D+0x32>
    3258:	8b e7       	ldi	r24, 0x7B	; 123
    325a:	8b 57       	subi	r24, 0x7B	; 123
    325c:	90 30       	cpi	r25, 0x00	; 0
    325e:	09 f4       	brne	.+2      	; 0x3262 <ExecOp_4D+0x3a>
    3260:	81 60       	ori	r24, 0x01	; 1
    3262:	91 30       	cpi	r25, 0x01	; 1
    3264:	09 f4       	brne	.+2      	; 0x3268 <ExecOp_4D+0x40>
    3266:	82 60       	ori	r24, 0x02	; 2
    3268:	92 30       	cpi	r25, 0x02	; 2
    326a:	09 f4       	brne	.+2      	; 0x326e <ExecOp_4D+0x46>
    326c:	84 60       	ori	r24, 0x04	; 4
    326e:	85 58       	subi	r24, 0x85	; 133
    3270:	80 83       	st	Z, r24
    3272:	84 e0       	ldi	r24, 0x04	; 4
    3274:	0e 94 7f 05 	call	0xafe	; 0xafe <SetFont>
    3278:	f2 99       	sbic	0x1e, 2	; 30
    327a:	7e cb       	rjmp	.-2308   	; 0x2978 <_DispC>
    327c:	08 95       	ret

0000327e <ExecOp_4E>:
    327e:	57 dd       	rcall	.-1362   	; 0x2d2e <GetXB>
    3280:	40 f1       	brcs	.+80     	; 0x32d2 <ExecOp_4E+0x54>
    3282:	39 f5       	brne	.+78     	; 0x32d2 <ExecOp_4E+0x54>
    3284:	80 31       	cpi	r24, 0x10	; 16
    3286:	28 f5       	brcc	.+74     	; 0x32d2 <ExecOp_4E+0x54>
    3288:	58 dd       	rcall	.-1360   	; 0x2d3a <GetTB>
    328a:	18 f1       	brcs	.+70     	; 0x32d2 <ExecOp_4E+0x54>
    328c:	11 f5       	brne	.+68     	; 0x32d2 <ExecOp_4E+0x54>
    328e:	96 30       	cpi	r25, 0x06	; 6
    3290:	00 f5       	brcc	.+64     	; 0x32d2 <ExecOp_4E+0x54>
    3292:	ef ed       	ldi	r30, 0xDF	; 223
    3294:	f6 e0       	ldi	r31, 0x06	; 6
    3296:	93 30       	cpi	r25, 0x03	; 3
    3298:	18 f0       	brcs	.+6      	; 0x32a0 <ExecOp_4E+0x22>
    329a:	ee ec       	ldi	r30, 0xCE	; 206
    329c:	f6 e0       	ldi	r31, 0x06	; 6
    329e:	93 50       	subi	r25, 0x03	; 3
    32a0:	e8 0f       	add	r30, r24
    32a2:	f1 1d       	adc	r31, r1
    32a4:	80 81       	ld	r24, Z
    32a6:	8b 37       	cpi	r24, 0x7B	; 123
    32a8:	10 f0       	brcs	.+4      	; 0x32ae <ExecOp_4E+0x30>
    32aa:	83 38       	cpi	r24, 0x83	; 131
    32ac:	08 f0       	brcs	.+2      	; 0x32b0 <ExecOp_4E+0x32>
    32ae:	8b e7       	ldi	r24, 0x7B	; 123
    32b0:	8b 57       	subi	r24, 0x7B	; 123
    32b2:	90 30       	cpi	r25, 0x00	; 0
    32b4:	09 f4       	brne	.+2      	; 0x32b8 <ExecOp_4E+0x3a>
    32b6:	8e 7f       	andi	r24, 0xFE	; 254
    32b8:	91 30       	cpi	r25, 0x01	; 1
    32ba:	09 f4       	brne	.+2      	; 0x32be <ExecOp_4E+0x40>
    32bc:	8d 7f       	andi	r24, 0xFD	; 253
    32be:	92 30       	cpi	r25, 0x02	; 2
    32c0:	09 f4       	brne	.+2      	; 0x32c4 <ExecOp_4E+0x46>
    32c2:	8b 7f       	andi	r24, 0xFB	; 251
    32c4:	85 58       	subi	r24, 0x85	; 133
    32c6:	80 83       	st	Z, r24
    32c8:	84 e0       	ldi	r24, 0x04	; 4
    32ca:	0e 94 7f 05 	call	0xafe	; 0xafe <SetFont>
    32ce:	f2 99       	sbic	0x1e, 2	; 30
    32d0:	53 cb       	rjmp	.-2394   	; 0x2978 <_DispC>
    32d2:	08 95       	ret

000032d4 <ExecOp_4F>:
    32d4:	2c dd       	rcall	.-1448   	; 0x2d2e <GetXB>
    32d6:	48 f1       	brcs	.+82     	; 0x332a <ExecOp_4F+0x56>
    32d8:	41 f5       	brne	.+80     	; 0x332a <ExecOp_4F+0x56>
    32da:	80 31       	cpi	r24, 0x10	; 16
    32dc:	30 f5       	brcc	.+76     	; 0x332a <ExecOp_4F+0x56>
    32de:	2d dd       	rcall	.-1446   	; 0x2d3a <GetTB>
    32e0:	20 f1       	brcs	.+72     	; 0x332a <ExecOp_4F+0x56>
    32e2:	19 f5       	brne	.+70     	; 0x332a <ExecOp_4F+0x56>
    32e4:	96 30       	cpi	r25, 0x06	; 6
    32e6:	08 f5       	brcc	.+66     	; 0x332a <ExecOp_4F+0x56>
    32e8:	ef ed       	ldi	r30, 0xDF	; 223
    32ea:	f6 e0       	ldi	r31, 0x06	; 6
    32ec:	93 30       	cpi	r25, 0x03	; 3
    32ee:	18 f0       	brcs	.+6      	; 0x32f6 <ExecOp_4F+0x22>
    32f0:	ee ec       	ldi	r30, 0xCE	; 206
    32f2:	f6 e0       	ldi	r31, 0x06	; 6
    32f4:	93 50       	subi	r25, 0x03	; 3
    32f6:	e8 0f       	add	r30, r24
    32f8:	f1 1d       	adc	r31, r1
    32fa:	80 81       	ld	r24, Z
    32fc:	8b 37       	cpi	r24, 0x7B	; 123
    32fe:	10 f0       	brcs	.+4      	; 0x3304 <ExecOp_4F+0x30>
    3300:	83 38       	cpi	r24, 0x83	; 131
    3302:	08 f0       	brcs	.+2      	; 0x3306 <ExecOp_4F+0x32>
    3304:	8b e7       	ldi	r24, 0x7B	; 123
    3306:	90 30       	cpi	r25, 0x00	; 0
    3308:	09 f4       	brne	.+2      	; 0x330c <ExecOp_4F+0x38>
    330a:	a1 e0       	ldi	r26, 0x01	; 1
    330c:	91 30       	cpi	r25, 0x01	; 1
    330e:	09 f4       	brne	.+2      	; 0x3312 <ExecOp_4F+0x3e>
    3310:	a2 e0       	ldi	r26, 0x02	; 2
    3312:	92 30       	cpi	r25, 0x02	; 2
    3314:	09 f4       	brne	.+2      	; 0x3318 <ExecOp_4F+0x44>
    3316:	a4 e0       	ldi	r26, 0x04	; 4
    3318:	8b 57       	subi	r24, 0x7B	; 123
    331a:	8a 27       	eor	r24, r26
    331c:	85 58       	subi	r24, 0x85	; 133
    331e:	80 83       	st	Z, r24
    3320:	84 e0       	ldi	r24, 0x04	; 4
    3322:	0e 94 7f 05 	call	0xafe	; 0xafe <SetFont>
    3326:	f2 99       	sbic	0x1e, 2	; 30
    3328:	27 cb       	rjmp	.-2482   	; 0x2978 <_DispC>
    332a:	08 95       	ret

0000332c <ExecOp_50>:
    332c:	0c d5       	rcall	.+2584   	; 0x3d46 <__EditStop>
    332e:	26 db       	rcall	.-2484   	; 0x297c <__Calc>
    3330:	c6 c7       	rjmp	.+3980   	; 0x42be <DecNum36+0x12>
    3332:	30 e7       	ldi	r19, 0x70	; 112
    3334:	01 00       	.word	0x0001	; ????
    3336:	05 c5       	rjmp	.+2570   	; 0x3d42 <_Disp>

00003338 <ExecOp_51>:
    3338:	06 d5       	rcall	.+2572   	; 0x3d46 <__EditStop>
    333a:	b8 89       	ldd	r27, Y+16	; 0x10
    333c:	af 85       	ldd	r26, Y+15	; 0x0f
    333e:	9e 85       	ldd	r25, Y+14	; 0x0e
    3340:	8d 85       	ldd	r24, Y+13	; 0x0d
    3342:	0e 94 29 2a 	call	0x5452	; 0x5452 <CalcStackD>
    3346:	0e 94 67 0e 	call	0x1cce	; 0x1cce <_CalcSetMemDelX>
    334a:	fb c4       	rjmp	.+2550   	; 0x3d42 <_Disp>

0000334c <ExecOp_52>:
    334c:	fc d4       	rcall	.+2552   	; 0x3d46 <__EditStop>
    334e:	87 e0       	ldi	r24, 0x07	; 7
    3350:	17 db       	rcall	.-2514   	; 0x2980 <__CalcGetMem>
    3352:	0e 94 6e 2a 	call	0x54dc	; 0x54dc <CalcUnstackD>
    3356:	8d 87       	std	Y+13, r24	; 0x0d
    3358:	9e 87       	std	Y+14, r25	; 0x0e
    335a:	af 87       	std	Y+15, r26	; 0x0f
    335c:	b8 8b       	std	Y+16, r27	; 0x10
    335e:	f1 c4       	rjmp	.+2530   	; 0x3d42 <_Disp>

00003360 <ExecOp_53>:
    3360:	f2 d4       	rcall	.+2532   	; 0x3d46 <__EditStop>
    3362:	0c db       	rcall	.-2536   	; 0x297c <__Calc>
    3364:	c7 03       	fmuls	r20, r23
    3366:	03 45       	sbci	r16, 0x53	; 83
    3368:	28 86       	std	Y+8, r2	; 0x08
    336a:	22 09       	sbc	r18, r2
    336c:	01 00       	.word	0x0001	; ????
    336e:	0e 94 33 0d 	call	0x1a66	; 0x1a66 <EditStart>
    3372:	0e 94 59 2a 	call	0x54b2	; 0x54b2 <CalcUnstackB>
    3376:	81 37       	cpi	r24, 0x71	; 113
    3378:	e0 f4       	brcc	.+56     	; 0x33b2 <ExecOp_53+0x52>
    337a:	98 e0       	ldi	r25, 0x08	; 8
    337c:	98 9f       	mul	r25, r24
    337e:	e6 e9       	ldi	r30, 0x96	; 150
    3380:	f9 e2       	ldi	r31, 0x29	; 41
    3382:	e0 0d       	add	r30, r0
    3384:	f1 1d       	adc	r31, r1
    3386:	11 24       	eor	r1, r1
    3388:	85 91       	lpm	r24, Z+
    338a:	ef 93       	push	r30
    338c:	ff 93       	push	r31
    338e:	80 52       	subi	r24, 0x20	; 32
    3390:	0e 94 bc 07 	call	0xf78	; 0xf78 <Bin2Bcd>
    3394:	9f 93       	push	r25
    3396:	8f 93       	push	r24
    3398:	82 95       	swap	r24
    339a:	8f 70       	andi	r24, 0x0F	; 15
    339c:	0e 94 46 0d 	call	0x1a8c	; 0x1a8c <ExecDig>
    33a0:	8f 91       	pop	r24
    33a2:	8f 70       	andi	r24, 0x0F	; 15
    33a4:	0e 94 46 0d 	call	0x1a8c	; 0x1a8c <ExecDig>
    33a8:	9f 91       	pop	r25
    33aa:	ff 91       	pop	r31
    33ac:	ef 91       	pop	r30
    33ae:	9a 95       	dec	r25
    33b0:	59 f7       	brne	.-42     	; 0x3388 <ExecOp_53+0x28>
    33b2:	0e 94 59 2a 	call	0x54b2	; 0x54b2 <CalcUnstackB>
    33b6:	88 0f       	add	r24, r24
    33b8:	39 f0       	breq	.+14     	; 0x33c8 <ExecOp_53+0x68>
    33ba:	8f 93       	push	r24
    33bc:	88 27       	eor	r24, r24
    33be:	0e 94 46 0d 	call	0x1a8c	; 0x1a8c <ExecDig>
    33c2:	8f 91       	pop	r24
    33c4:	8a 95       	dec	r24
    33c6:	c9 f7       	brne	.-14     	; 0x33ba <ExecOp_53+0x5a>
    33c8:	bc c4       	rjmp	.+2424   	; 0x3d42 <_Disp>
    33ca:	08 95       	ret

000033cc <ExecOp_54>:
    33cc:	0e 94 f0 0b 	call	0x17e0	; 0x17e0 <FlagClrEng>
    33d0:	0e 94 ed 0b 	call	0x17da	; 0x17da <FlagClrEE>
    33d4:	f0 9b       	sbis	0x1e, 0	; 30
    33d6:	0e 94 99 0d 	call	0x1b32	; 0x1b32 <EditRestart>
    33da:	0e 94 1d 0e 	call	0x1c3a	; 0x1c3a <DelDot>
    33de:	86 e0       	ldi	r24, 0x06	; 6
    33e0:	cf da       	rcall	.-2658   	; 0x2980 <__CalcGetMem>
    33e2:	0e 94 45 26 	call	0x4c8a	; 0x4c8a <CalcTop>
    33e6:	82 81       	ldd	r24, Z+2	; 0x02
    33e8:	80 78       	andi	r24, 0x80	; 128
    33ea:	31 f0       	breq	.+12     	; 0x33f8 <ExecOp_54+0x2c>
    33ec:	81 e0       	ldi	r24, 0x01	; 1
    33ee:	0e 94 46 0d 	call	0x1a8c	; 0x1a8c <ExecDig>
    33f2:	83 e0       	ldi	r24, 0x03	; 3
    33f4:	0e 94 46 0d 	call	0x1a8c	; 0x1a8c <ExecDig>
    33f8:	0e 94 08 24 	call	0x4810	; 0x4810 <CalcAbs>
    33fc:	0e 94 29 24 	call	0x4852	; 0x4852 <CalcRound>
    3400:	0e 94 6e 2a 	call	0x54dc	; 0x54dc <CalcUnstackD>
    3404:	bc 01       	movw	r22, r24
    3406:	cd 01       	movw	r24, r26
    3408:	33 27       	eor	r19, r19
    340a:	26 2f       	mov	r18, r22
    340c:	0e 94 66 23 	call	0x46cc	; 0x46cc <DivD10>
    3410:	7b 01       	movw	r14, r22
    3412:	8c 01       	movw	r16, r24
    3414:	0e 94 7e 23 	call	0x46fc	; 0x46fc <MulD10>
    3418:	26 1b       	sub	r18, r22
    341a:	2f 93       	push	r18
    341c:	33 95       	inc	r19
    341e:	b7 01       	movw	r22, r14
    3420:	c8 01       	movw	r24, r16
    3422:	ef 28       	or	r14, r15
    3424:	e0 2a       	or	r14, r16
    3426:	e1 2a       	or	r14, r17
    3428:	81 f7       	brne	.-32     	; 0x340a <ExecOp_54+0x3e>
    342a:	8f 91       	pop	r24
    342c:	3f 93       	push	r19
    342e:	80 5f       	subi	r24, 0xF0	; 240
    3430:	0e 94 bc 07 	call	0xf78	; 0xf78 <Bin2Bcd>
    3434:	8f 93       	push	r24
    3436:	82 95       	swap	r24
    3438:	8f 70       	andi	r24, 0x0F	; 15
    343a:	0e 94 46 0d 	call	0x1a8c	; 0x1a8c <ExecDig>
    343e:	8f 91       	pop	r24
    3440:	8f 70       	andi	r24, 0x0F	; 15
    3442:	0e 94 46 0d 	call	0x1a8c	; 0x1a8c <ExecDig>
    3446:	3f 91       	pop	r19
    3448:	3a 95       	dec	r19
    344a:	79 f7       	brne	.-34     	; 0x342a <ExecOp_54+0x5e>
    344c:	7a c4       	rjmp	.+2292   	; 0x3d42 <_Disp>

0000344e <ExecOp_55>:
    344e:	6f dc       	rcall	.-1826   	; 0x2d2e <GetXB>
    3450:	74 dc       	rcall	.-1816   	; 0x2d3a <GetTB>
    3452:	90 93 53 01 	sts	0x0153, r25
    3456:	80 93 54 01 	sts	0x0154, r24
    345a:	10 92 55 01 	sts	0x0155, r1
    345e:	08 95       	ret

00003460 <ExecOp_56>:
    3460:	72 d4       	rcall	.+2276   	; 0x3d46 <__EditStop>
    3462:	80 91 55 01 	lds	r24, 0x0155
    3466:	0e 94 13 2a 	call	0x5426	; 0x5426 <CalcStackB>
    346a:	0e 94 67 0e 	call	0x1cce	; 0x1cce <_CalcSetMemDelX>
    346e:	69 c4       	rjmp	.+2258   	; 0x3d42 <_Disp>

00003470 <ExecOp_57>:
    3470:	6a d4       	rcall	.+2260   	; 0x3d46 <__EditStop>
    3472:	cd dc       	rcall	.-1638   	; 0x2e0e <CpxNew>
    3474:	83 da       	rcall	.-2810   	; 0x297c <__Calc>
    3476:	c6 c7       	rjmp	.+3980   	; 0x4404 <EncNum+0x66>
    3478:	1b 02       	muls	r17, r27
    347a:	02 01       	movw	r0, r4
    347c:	08 95       	ret

0000347e <ExecOp_58>:
    347e:	63 d4       	rcall	.+2246   	; 0x3d46 <__EditStop>
    3480:	7d da       	rcall	.-2822   	; 0x297c <__Calc>
    3482:	19 e7       	ldi	r17, 0x79	; 121
    3484:	e6 01       	movw	r28, r12
    3486:	5d c4       	rjmp	.+2234   	; 0x3d42 <_Disp>

00003488 <ExecOp_59>:
    3488:	b8 cc       	rjmp	.-1680   	; 0x2dfa <CpxDel>

0000348a <ExecOp_5A>:
    348a:	78 da       	rcall	.-2832   	; 0x297c <__Calc>
    348c:	1a 19       	sub	r17, r10
    348e:	1c 02       	muls	r17, r28
    3490:	02 1b       	sub	r16, r18
    3492:	02 02       	muls	r16, r18
    3494:	01 00       	.word	0x0001	; ????
    3496:	08 95       	ret

00003498 <ExecOp_5B>:
    3498:	c4 dc       	rcall	.-1656   	; 0x2e22 <CpxGetTop>
    349a:	b9 dc       	rcall	.-1678   	; 0x2e0e <CpxNew>
    349c:	ca dc       	rcall	.-1644   	; 0x2e32 <CpxSetTop>
    349e:	0e 94 e5 28 	call	0x51ca	; 0x51ca <CalcDel>
    34a2:	0c 94 e5 28 	jmp	0x51ca	; 0x51ca <CalcDel>

000034a6 <ExecOp_5C>:
    34a6:	6a da       	rcall	.-2860   	; 0x297c <__Calc>
    34a8:	1a 09       	sbc	r17, r10
    34aa:	19 0a       	sbc	r1, r25
    34ac:	29 0a       	sbc	r2, r25
    34ae:	29 1d       	adc	r18, r9
    34b0:	1b 02       	muls	r17, r27
    34b2:	02 01       	movw	r0, r4
    34b4:	08 95       	ret

000034b6 <ExecOp_5D>:
    34b6:	62 da       	rcall	.-2876   	; 0x297c <__Calc>
    34b8:	1a 09       	sbc	r17, r10
    34ba:	19 0a       	sbc	r1, r25
    34bc:	28 41       	sbci	r18, 0x18	; 24
    34be:	0a 28       	or	r0, r10
    34c0:	41 1d       	adc	r20, r1
    34c2:	1b 02       	muls	r17, r27
    34c4:	02 01       	movw	r0, r4
    34c6:	08 95       	ret

000034c8 <ExecOp_5E>:
    34c8:	59 da       	rcall	.-2894   	; 0x297c <__Calc>
    34ca:	1a 19       	sub	r17, r10
    34cc:	02 09       	sbc	r16, r2
    34ce:	04 22       	and	r0, r20
    34d0:	0a 22       	and	r0, r26
    34d2:	1a 19       	sub	r17, r10
    34d4:	09 02       	muls	r16, r25
    34d6:	09 04       	cpc	r0, r9
    34d8:	22 0a       	sbc	r2, r18
    34da:	22 0a       	sbc	r2, r18
    34dc:	28 41       	sbci	r18, 0x18	; 24
    34de:	0a 29       	or	r16, r10
    34e0:	1d 1b       	sub	r17, r29
    34e2:	02 02       	muls	r16, r18
    34e4:	01 00       	.word	0x0001	; ????
    34e6:	08 95       	ret

000034e8 <ExecOp_5F>:
    34e8:	49 da       	rcall	.-2926   	; 0x297c <__Calc>
    34ea:	19 41       	sbci	r17, 0x19	; 25
    34ec:	1b 64       	ori	r17, 0x4B	; 75
    34ee:	09 64       	ori	r16, 0x49	; 73
    34f0:	29 01       	movw	r4, r18
    34f2:	ea df       	rcall	.-44     	; 0x34c8 <ExecOp_5E>
    34f4:	43 da       	rcall	.-2938   	; 0x297c <__Calc>
    34f6:	19 0a       	sbc	r1, r25
    34f8:	09 04       	cpc	r0, r9
    34fa:	23 0a       	sbc	r2, r19
    34fc:	09 23       	and	r16, r25
    34fe:	1b 02       	muls	r17, r27
    3500:	02 01       	movw	r0, r4
    3502:	08 95       	ret

00003504 <ExecOp_60>:
    3504:	3b da       	rcall	.-2954   	; 0x297c <__Calc>
    3506:	1a 5c       	subi	r17, 0xCA	; 202
    3508:	02 10       	cpse	r0, r2
    350a:	09 80       	ldd	r0, Y+1	; 0x01
    350c:	80 1d       	adc	r24, r0
    350e:	1b 02       	muls	r17, r27
    3510:	02 01       	movw	r0, r4
    3512:	08 95       	ret
    3514:	01 00       	.word	0x0001	; ????
    3516:	b9 df       	rcall	.-142    	; 0x348a <ExecOp_5A>
    3518:	27 d0       	rcall	.+78     	; 0x3568 <ExecOp_67>
    351a:	d6 df       	rcall	.-84     	; 0x34c8 <ExecOp_5E>
    351c:	1e c0       	rjmp	.+60     	; 0x355a <ExecOp_66>

0000351e <ExecOp_61>:
    351e:	16 d0       	rcall	.+44     	; 0x354c <ExecOp_65>
    3520:	f1 cf       	rjmp	.-30     	; 0x3504 <ExecOp_60>

00003522 <ExecOp_62>:
    3522:	22 d0       	rcall	.+68     	; 0x3568 <ExecOp_67>
    3524:	b2 df       	rcall	.-156    	; 0x348a <ExecOp_5A>
    3526:	20 d0       	rcall	.+64     	; 0x3568 <ExecOp_67>
    3528:	b0 df       	rcall	.-160    	; 0x348a <ExecOp_5A>
    352a:	de cf       	rjmp	.-68     	; 0x34e8 <ExecOp_5F>

0000352c <ExecOp_63>:
    352c:	27 da       	rcall	.-2994   	; 0x297c <__Calc>
    352e:	19 5c       	subi	r17, 0xC9	; 201
    3530:	09 64       	ori	r16, 0x49	; 73
    3532:	09 24       	eor	r0, r9
    3534:	5b 1b       	sub	r21, r27
    3536:	02 02       	muls	r16, r18
    3538:	01 00       	.word	0x0001	; ????
    353a:	08 95       	ret

0000353c <ExecOp_64>:
    353c:	1f da       	rcall	.-3010   	; 0x297c <__Calc>
    353e:	19 5c       	subi	r17, 0xC9	; 201
    3540:	09 63       	ori	r16, 0x39	; 57
    3542:	09 25       	eor	r16, r9
    3544:	5b 1b       	sub	r21, r27
    3546:	02 02       	muls	r16, r18
    3548:	01 00       	.word	0x0001	; ????
    354a:	08 95       	ret

0000354c <ExecOp_65>:
    354c:	60 dc       	rcall	.-1856   	; 0x2e0e <CpxNew>
    354e:	16 da       	rcall	.-3028   	; 0x297c <__Calc>
    3550:	81 80       	ldd	r8, Z+1	; 0x01
    3552:	1b 02       	muls	r17, r27
    3554:	02 01       	movw	r0, r4
    3556:	99 df       	rcall	.-206    	; 0x348a <ExecOp_5A>
    3558:	c7 cf       	rjmp	.-114    	; 0x34e8 <ExecOp_5F>

0000355a <ExecOp_66>:
    355a:	10 da       	rcall	.-3040   	; 0x297c <__Calc>
    355c:	19 09       	sbc	r17, r9
    355e:	5e 09       	sbc	r21, r14
    3560:	5b 1b       	sub	r21, r27
    3562:	02 02       	muls	r16, r18
    3564:	01 00       	.word	0x0001	; ????
    3566:	08 95       	ret

00003568 <ExecOp_67>:
    3568:	09 da       	rcall	.-3054   	; 0x297c <__Calc>
    356a:	19 5c       	subi	r17, 0xC9	; 201
    356c:	09 5d       	subi	r16, 0xD9	; 217
    356e:	09 1b       	sub	r16, r25
    3570:	02 02       	muls	r16, r18
    3572:	01 00       	.word	0x0001	; ????
    3574:	08 95       	ret

00003576 <ExecOp_68_Prep>:
    3576:	02 da       	rcall	.-3068   	; 0x297c <__Calc>
    3578:	19 5e       	subi	r17, 0xE9	; 233
    357a:	03 3e       	cpi	r16, 0xE3	; 227
    357c:	04 04       	cpc	r0, r4
    357e:	28 25       	eor	r18, r8
    3580:	0a 29       	or	r16, r10
    3582:	25 0a       	sbc	r2, r21
    3584:	03 01       	movw	r0, r6
    3586:	08 95       	ret

00003588 <ExecOp_68>:
    3588:	f6 df       	rcall	.-20     	; 0x3576 <ExecOp_68_Prep>
    358a:	f8 d9       	rcall	.-3088   	; 0x297c <__Calc>
    358c:	52 0a       	sbc	r5, r18
    358e:	09 53       	subi	r16, 0x39	; 57
    3590:	22 0a       	sbc	r2, r18
    3592:	22 09       	sbc	r18, r2
    3594:	1b 02       	muls	r17, r27
    3596:	02 01       	movw	r0, r4
    3598:	08 95       	ret

0000359a <ExecOp_69>:
    359a:	ed df       	rcall	.-38     	; 0x3576 <ExecOp_68_Prep>
    359c:	ef d9       	rcall	.-3106   	; 0x297c <__Calc>
    359e:	53 0a       	sbc	r5, r19
    35a0:	09 52       	subi	r16, 0x29	; 41
    35a2:	22 41       	sbci	r18, 0x12	; 18
    35a4:	0a 22       	and	r0, r26
    35a6:	09 1b       	sub	r16, r25
    35a8:	02 02       	muls	r16, r18
    35aa:	01 00       	.word	0x0001	; ????
    35ac:	08 95       	ret

000035ae <ExecOp_6A>:
    35ae:	74 df       	rcall	.-280    	; 0x3498 <ExecOp_5B>
    35b0:	eb df       	rcall	.-42     	; 0x3588 <ExecOp_68>
    35b2:	6b df       	rcall	.-298    	; 0x348a <ExecOp_5A>
    35b4:	f2 df       	rcall	.-28     	; 0x359a <ExecOp_69>
    35b6:	98 cf       	rjmp	.-208    	; 0x34e8 <ExecOp_5F>

000035b8 <ExecOp_6B_Prep>:
    35b8:	e1 d9       	rcall	.-3134   	; 0x297c <__Calc>
    35ba:	19 64       	ori	r17, 0x49	; 73
    35bc:	04 3f       	cpi	r16, 0xF4	; 244
    35be:	64 04       	cpc	r6, r4
    35c0:	29 63       	ori	r18, 0x39	; 57
    35c2:	0a 40       	sbci	r16, 0x0A	; 10
    35c4:	64 29       	or	r22, r4
    35c6:	63 04       	cpc	r6, r3
    35c8:	04 28       	or	r0, r4
    35ca:	25 01       	movw	r4, r10
    35cc:	08 95       	ret

000035ce <ExecOp_6B>:
    35ce:	f4 df       	rcall	.-24     	; 0x35b8 <ExecOp_6B_Prep>
    35d0:	d5 d9       	rcall	.-3158   	; 0x297c <__Calc>
    35d2:	56 0a       	sbc	r5, r22
    35d4:	29 25       	eor	r18, r9
    35d6:	03 64       	ori	r16, 0x43	; 67
    35d8:	40 63       	ori	r20, 0x30	; 48
    35da:	29 5d       	subi	r18, 0xD9	; 217
    35dc:	1b 02       	muls	r17, r27
    35de:	02 01       	movw	r0, r4
    35e0:	08 95       	ret

000035e2 <ExecOp_6C>:
    35e2:	ea df       	rcall	.-44     	; 0x35b8 <ExecOp_6B_Prep>
    35e4:	cb d9       	rcall	.-3178   	; 0x297c <__Calc>
    35e6:	57 0a       	sbc	r5, r23
    35e8:	29 25       	eor	r18, r9
    35ea:	03 64       	ori	r16, 0x43	; 67
    35ec:	40 63       	ori	r20, 0x30	; 48
    35ee:	29 5d       	subi	r18, 0xD9	; 217
    35f0:	41 1b       	sub	r20, r17
    35f2:	02 02       	muls	r16, r18
    35f4:	01 00       	.word	0x0001	; ????
    35f6:	08 95       	ret

000035f8 <ExecOp_6D>:
    35f8:	c1 d9       	rcall	.-3198   	; 0x297c <__Calc>
    35fa:	19 04       	cpc	r1, r9
    35fc:	64 09       	sbc	r22, r4
    35fe:	64 29       	or	r22, r4
    3600:	40 41       	sbci	r20, 0x10	; 16
    3602:	09 24       	eor	r0, r9
    3604:	5c 25       	eor	r21, r12
    3606:	09 02       	muls	r16, r25
    3608:	19 09       	sbc	r17, r9
    360a:	64 09       	sbc	r22, r4
    360c:	04 04       	cpc	r0, r4
    360e:	3f 64       	ori	r19, 0x4F	; 79
    3610:	29 0a       	sbc	r2, r25
    3612:	09 40       	sbci	r16, 0x09	; 9
    3614:	64 29       	or	r22, r4
    3616:	23 5d       	subi	r18, 0xD3	; 211
    3618:	25 25       	eor	r18, r5
    361a:	1b 02       	muls	r17, r27
    361c:	02 01       	movw	r0, r4
    361e:	08 95       	ret

00003620 <ExecOp_6E>:
    3620:	ad d9       	rcall	.-3238   	; 0x297c <__Calc>
    3622:	19 5c       	subi	r17, 0xC9	; 201
    3624:	1b 02       	muls	r17, r27
    3626:	02 01       	movw	r0, r4
    3628:	08 95       	ret

0000362a <ExecOp_6F>:
    362a:	a8 d9       	rcall	.-3248   	; 0x297c <__Calc>
    362c:	19 5b       	subi	r17, 0xB9	; 185
    362e:	1b 02       	muls	r17, r27
    3630:	02 01       	movw	r0, r4
    3632:	08 95       	ret

00003634 <ExecOp_70>:
    3634:	88 d3       	rcall	.+1808   	; 0x3d46 <__EditStop>
    3636:	88 27       	eor	r24, r24
    3638:	f2 99       	sbic	0x1e, 2	; 30
    363a:	81 e0       	ldi	r24, 0x01	; 1
    363c:	f2 9a       	sbi	0x1e, 2	; 30
    363e:	8f 93       	push	r24
    3640:	9d d9       	rcall	.-3270   	; 0x297c <__Calc>
    3642:	c6 c7       	rjmp	.+3980   	; 0x45d0 <MulMant+0x16>
    3644:	04 04       	cpc	r0, r4
    3646:	28 89       	ldd	r18, Y+16	; 0x10
    3648:	22 13       	cpse	r18, r18
    364a:	0b 09       	sbc	r16, r11
    364c:	04 89       	ldd	r16, Z+20	; 0x14
    364e:	22 29       	or	r18, r2
    3650:	05 04       	cpc	r0, r5
    3652:	09 36       	cpi	r16, 0x69	; 105
    3654:	10 06       	cpc	r1, r16
    3656:	02 02       	muls	r16, r18
    3658:	80 3e       	cpi	r24, 0xE0	; 224
    365a:	0f 4b       	sbci	r16, 0xBF	; 191
    365c:	04 04       	cpc	r0, r4
    365e:	29 04       	cpc	r2, r9
    3660:	4d 15       	cp	r20, r13
    3662:	40 13       	cpse	r20, r16
    3664:	3e 04       	cpc	r3, r14
    3666:	4d 15       	cp	r20, r13
    3668:	3a 12       	cpse	r3, r26
    366a:	06 02       	muls	r16, r22
    366c:	02 0a       	sbc	r0, r18
    366e:	02 0f       	add	r16, r18
    3670:	35 22       	and	r3, r21
    3672:	34 10       	cpse	r3, r4
    3674:	22 02       	muls	r18, r18
    3676:	04 29       	or	r16, r4
    3678:	0f d6       	rcall	.+3102   	; 0x4298 <DecNum34+0x8>
    367a:	05 4d       	sbci	r16, 0xD5	; 213
    367c:	15 25       	eor	r17, r5
    367e:	12 03       	mulsu	r17, r18
    3680:	02 0f       	add	r16, r18
    3682:	20 04       	cpc	r2, r0
    3684:	4d 15       	cp	r20, r13
    3686:	1c 12       	cpse	r1, r28
    3688:	05 02       	muls	r16, r21
    368a:	02 0a       	sbc	r0, r18
    368c:	0f 15       	cp	r16, r15
    368e:	22 34       	cpi	r18, 0x42	; 66
    3690:	11 03       	mulsu	r17, r17
    3692:	09 0f       	add	r16, r25
    3694:	01 0a       	sbc	r0, r17
    3696:	02 0a       	sbc	r0, r18
    3698:	25 06       	cpc	r2, r21
    369a:	29 06       	cpc	r2, r25
    369c:	28 0a       	sbc	r2, r24
    369e:	05 05       	cpc	r16, r5
    36a0:	09 17       	cp	r16, r25
    36a2:	d7 02       	muls	r29, r23
    36a4:	02 09       	sbc	r16, r2
    36a6:	02 04       	cpc	r0, r2
    36a8:	88 22       	and	r8, r24
    36aa:	09 04       	cpc	r0, r9
    36ac:	28 29       	or	r18, r8
    36ae:	e7 e6       	ldi	r30, 0x67	; 103
    36b0:	01 00       	.word	0x0001	; ????
    36b2:	8f 91       	pop	r24
    36b4:	88 23       	and	r24, r24
    36b6:	09 f4       	brne	.+2      	; 0x36ba <ExecOp_70+0x86>
    36b8:	f2 98       	cbi	0x1e, 2	; 30
    36ba:	43 c3       	rjmp	.+1670   	; 0x3d42 <_Disp>

000036bc <ExecOp_71>:
    36bc:	44 d3       	rcall	.+1672   	; 0x3d46 <__EditStop>
    36be:	88 27       	eor	r24, r24
    36c0:	f2 99       	sbic	0x1e, 2	; 30
    36c2:	81 e0       	ldi	r24, 0x01	; 1
    36c4:	f2 9a       	sbi	0x1e, 2	; 30
    36c6:	8f 93       	push	r24
    36c8:	59 d9       	rcall	.-3406   	; 0x297c <__Calc>
    36ca:	21 11       	cpse	r18, r1
    36cc:	21 12       	cpse	r2, r17
    36ce:	21 13       	cpse	r18, r17
    36d0:	43 3f       	cpi	r20, 0xF3	; 243
    36d2:	25 45       	sbci	r18, 0x55	; 85
    36d4:	0a 04       	cpc	r0, r10
    36d6:	28 41       	sbci	r18, 0x18	; 24
    36d8:	25 05       	cpc	r18, r5
    36da:	23 0a       	sbc	r2, r19
    36dc:	04 4d       	sbci	r16, 0xD4	; 212
    36de:	15 28       	or	r1, r5
    36e0:	0b 09       	sbc	r16, r11
    36e2:	06 28       	or	r0, r6
    36e4:	03 4d       	sbci	r16, 0xD3	; 211
    36e6:	24 24       	eor	r2, r4
    36e8:	0b 29       	or	r16, r11
    36ea:	15 1c       	adc	r1, r5
    36ec:	09 06       	cpc	r0, r25
    36ee:	28 0a       	sbc	r2, r24
    36f0:	40 48       	sbci	r20, 0x80	; 128
    36f2:	13 0a       	sbc	r1, r19
    36f4:	0a 03       	fmul	r16, r18
    36f6:	4d 24       	eor	r4, r13
    36f8:	0b 29       	or	r16, r11
    36fa:	15 0c       	add	r1, r5
    36fc:	0f e3       	ldi	r16, 0x3F	; 63
    36fe:	0a 03       	fmul	r16, r18
    3700:	4d 0b       	sbc	r20, r29
    3702:	29 06       	cpc	r2, r25
    3704:	1f 03       	fmul	r17, r23
    3706:	23 22       	and	r2, r19
    3708:	0c 02       	muls	r16, r28
    370a:	02 02       	muls	r16, r18
    370c:	e7 01       	movw	r28, r14
    370e:	8f 91       	pop	r24
    3710:	88 23       	and	r24, r24
    3712:	09 f4       	brne	.+2      	; 0x3716 <ExecOp_71+0x5a>
    3714:	f2 98       	cbi	0x1e, 2	; 30
    3716:	15 c3       	rjmp	.+1578   	; 0x3d42 <_Disp>

00003718 <ExecOp_72>:
    3718:	16 d3       	rcall	.+1580   	; 0x3d46 <__EditStop>
    371a:	30 d9       	rcall	.-3488   	; 0x297c <__Calc>
    371c:	c7 59       	subi	r28, 0x97	; 151
    371e:	e7 01       	movw	r28, r14
    3720:	10 c3       	rjmp	.+1568   	; 0x3d42 <_Disp>

00003722 <ExecOp_73>:
    3722:	11 d3       	rcall	.+1570   	; 0x3d46 <__EditStop>
    3724:	2b d9       	rcall	.-3498   	; 0x297c <__Calc>
    3726:	c7 5a       	subi	r28, 0xA7	; 167
    3728:	e7 01       	movw	r28, r14
    372a:	0b c3       	rjmp	.+1558   	; 0x3d42 <_Disp>

0000372c <ExecOp_74>:
    372c:	0c d3       	rcall	.+1560   	; 0x3d46 <__EditStop>
    372e:	26 d9       	rcall	.-3508   	; 0x297c <__Calc>
    3730:	c7 4e       	sbci	r28, 0xE7	; 231
    3732:	e7 01       	movw	r28, r14
    3734:	06 c3       	rjmp	.+1548   	; 0x3d42 <_Disp>

00003736 <ExecOp_75>:
    3736:	07 d3       	rcall	.+1550   	; 0x3d46 <__EditStop>
    3738:	21 d9       	rcall	.-3518   	; 0x297c <__Calc>
    373a:	c7 4f       	sbci	r28, 0xF7	; 247
    373c:	e7 01       	movw	r28, r14
    373e:	01 c3       	rjmp	.+1538   	; 0x3d42 <_Disp>

00003740 <ExecOp_76>:
    3740:	02 d3       	rcall	.+1540   	; 0x3d46 <__EditStop>
    3742:	1c d9       	rcall	.-3528   	; 0x297c <__Calc>
    3744:	c7 50       	subi	r28, 0x07	; 7
    3746:	e7 01       	movw	r28, r14
    3748:	fc c2       	rjmp	.+1528   	; 0x3d42 <_Disp>

0000374a <ExecOp_77>:
    374a:	fd d2       	rcall	.+1530   	; 0x3d46 <__EditStop>
    374c:	17 d9       	rcall	.-3538   	; 0x297c <__Calc>
    374e:	c6 c7       	rjmp	.+3980   	; 0x46dc <DivDB2+0x2>
    3750:	04 32       	cpi	r16, 0x24	; 36
    3752:	0f 0a       	sbc	r0, r31
    3754:	f6 c2       	rjmp	.+1516   	; 0x3d42 <_Disp>

00003756 <ExecOp_78>:
    3756:	f7 d2       	rcall	.+1518   	; 0x3d46 <__EditStop>
    3758:	11 d9       	rcall	.-3550   	; 0x297c <__Calc>
    375a:	c6 c7       	rjmp	.+3980   	; 0x46e8 <DivDB4+0x2>
    375c:	04 31       	cpi	r16, 0x14	; 20
    375e:	10 01       	movw	r2, r0
    3760:	a7 02       	muls	r26, r23
    3762:	01 00       	.word	0x0001	; ????
    3764:	ee c2       	rjmp	.+1500   	; 0x3d42 <_Disp>

00003766 <ExecOp_79>:
    3766:	e6 e0       	ldi	r30, 0x06	; 6
    3768:	f6 e0       	ldi	r31, 0x06	; 6
    376a:	96 e0       	ldi	r25, 0x06	; 6
    376c:	11 92       	st	Z+, r1
    376e:	e6 3a       	cpi	r30, 0xA6	; 166
    3770:	f9 07       	cpc	r31, r25
    3772:	e1 f7       	brne	.-8      	; 0x376c <ExecOp_79+0x6>
    3774:	08 95       	ret

00003776 <ExecOp_7A>:
    3776:	e7 d2       	rcall	.+1486   	; 0x3d46 <__EditStop>
    3778:	01 d9       	rcall	.-3582   	; 0x297c <__Calc>
    377a:	1f f0       	brie	.+6      	; 0x3782 <ExecOp_7A+0xc>
    377c:	1f c0       	rjmp	.+62     	; 0x37bc <ExecOp_7C+0x14>
    377e:	22 1f       	adc	r18, r18
    3780:	fa 22       	and	r15, r26
    3782:	1f e7       	ldi	r17, 0x7F	; 127
    3784:	22 1f       	adc	r18, r18
    3786:	c3 22       	and	r12, r19
    3788:	48 03       	fmul	r20, r16
    378a:	c7 22       	and	r12, r23
    378c:	1e e6       	ldi	r17, 0x6E	; 110
    378e:	e7 01       	movw	r28, r14
    3790:	d8 c2       	rjmp	.+1456   	; 0x3d42 <_Disp>

00003792 <ExecOp_7B>:
    3792:	d9 d2       	rcall	.+1458   	; 0x3d46 <__EditStop>
    3794:	f3 d8       	rcall	.-3610   	; 0x297c <__Calc>
    3796:	c6 c7       	rjmp	.+3980   	; 0x4724 <RandShift+0x8>
    3798:	23 e7       	ldi	r18, 0x73	; 115
    379a:	01 00       	.word	0x0001	; ????
    379c:	d2 c2       	rjmp	.+1444   	; 0x3d42 <_Disp>

0000379e <ExecOp_7D>:
    379e:	ee d8       	rcall	.-3620   	; 0x297c <__Calc>
    37a0:	19 09       	sbc	r17, r9
    37a2:	41 09       	sbc	r20, r1
    37a4:	1b 02       	muls	r17, r27
    37a6:	02 01       	movw	r0, r4

000037a8 <ExecOp_7C>:
    37a8:	e9 d8       	rcall	.-3630   	; 0x297c <__Calc>
    37aa:	1a 19       	sub	r17, r10
    37ac:	09 05       	cpc	r16, r9
    37ae:	22 0c       	add	r2, r2
    37b0:	04 22       	and	r0, r20
    37b2:	0a 22       	and	r0, r26
    37b4:	0a 29       	or	r16, r10
    37b6:	09 1e       	adc	r0, r25
    37b8:	1d 1b       	sub	r17, r29
    37ba:	02 02       	muls	r16, r18
    37bc:	01 00       	.word	0x0001	; ????
    37be:	08 95       	ret

000037c0 <ExecOp_7F>:
    37c0:	dd d8       	rcall	.-3654   	; 0x297c <__Calc>
    37c2:	19 09       	sbc	r17, r9
    37c4:	1b 02       	muls	r17, r27
    37c6:	02 01       	movw	r0, r4

000037c8 <ExecOp_7E>:
    37c8:	d9 d8       	rcall	.-3662   	; 0x297c <__Calc>
    37ca:	1a 19       	sub	r17, r10
    37cc:	0c 22       	and	r0, r28
    37ce:	0a 22       	and	r0, r26
    37d0:	1e 1d       	adc	r17, r14
    37d2:	1b 02       	muls	r17, r27
    37d4:	02 01       	movw	r0, r4
    37d6:	08 95       	ret

000037d8 <ExecOp_80>:
    37d8:	f2 99       	sbic	0x1e, 2	; 30
    37da:	0e 94 84 03 	call	0x708	; 0x708 <Wait10ms>
    37de:	f2 99       	sbic	0x1e, 2	; 30
    37e0:	08 95       	ret
    37e2:	f2 9a       	sbi	0x1e, 2	; 30
    37e4:	c9 d8       	rcall	.-3694   	; 0x2978 <_DispC>
    37e6:	0e 94 84 03 	call	0x708	; 0x708 <Wait10ms>
    37ea:	f2 98       	cbi	0x1e, 2	; 30
    37ec:	aa c2       	rjmp	.+1364   	; 0x3d42 <_Disp>

000037ee <ExecOp_81>:
    37ee:	f2 99       	sbic	0x1e, 2	; 30
    37f0:	0e 94 86 03 	call	0x70c	; 0x70c <Wait100ms>
    37f4:	f2 99       	sbic	0x1e, 2	; 30
    37f6:	08 95       	ret
    37f8:	f2 9a       	sbi	0x1e, 2	; 30
    37fa:	be d8       	rcall	.-3716   	; 0x2978 <_DispC>
    37fc:	0e 94 86 03 	call	0x70c	; 0x70c <Wait100ms>
    3800:	f2 98       	cbi	0x1e, 2	; 30
    3802:	9f c2       	rjmp	.+1342   	; 0x3d42 <_Disp>

00003804 <ExecOp_82>:
    3804:	a0 d2       	rcall	.+1344   	; 0x3d46 <__EditStop>
    3806:	87 e0       	ldi	r24, 0x07	; 7
    3808:	bb d8       	rcall	.-3722   	; 0x2980 <__CalcGetMem>
    380a:	0e 94 0e 20 	call	0x401c	; 0x401c <DecNumDef>
    380e:	0e 94 cf 21 	call	0x439e	; 0x439e <EncNum>
    3812:	0e 94 67 0e 	call	0x1cce	; 0x1cce <_CalcSetMemDelX>
    3816:	95 c2       	rjmp	.+1322   	; 0x3d42 <_Disp>

00003818 <ExecOp_83>:
    3818:	80 91 04 01 	lds	r24, 0x0104
    381c:	90 91 05 01 	lds	r25, 0x0105
    3820:	80 93 4f 08 	sts	0x084F, r24
    3824:	90 93 50 08 	sts	0x0850, r25
    3828:	08 95       	ret

0000382a <ExecOp_84>:
    382a:	8d d2       	rcall	.+1306   	; 0x3d46 <__EditStop>
    382c:	80 91 04 01 	lds	r24, 0x0104
    3830:	90 91 05 01 	lds	r25, 0x0105
    3834:	a0 91 4f 08 	lds	r26, 0x084F
    3838:	b0 91 50 08 	lds	r27, 0x0850
    383c:	8a 1b       	sub	r24, r26
    383e:	9b 0b       	sbc	r25, r27
    3840:	0e 94 14 2a 	call	0x5428	; 0x5428 <CalcStackW>
    3844:	89 e0       	ldi	r24, 0x09	; 9
    3846:	0e 94 3c 25 	call	0x4a78	; 0x4a78 <CalcConst>
    384a:	0e 94 9b 26 	call	0x4d36	; 0x4d36 <CalcMul>
    384e:	0e 94 67 0e 	call	0x1cce	; 0x1cce <_CalcSetMemDelX>
    3852:	77 c2       	rjmp	.+1262   	; 0x3d42 <_Disp>

00003854 <ExecOp_85>:
    3854:	78 d2       	rcall	.+1264   	; 0x3d46 <__EditStop>
    3856:	8e e6       	ldi	r24, 0x6E	; 110
    3858:	0e 94 13 2a 	call	0x5426	; 0x5426 <CalcStackB>
    385c:	0e 94 67 0e 	call	0x1cce	; 0x1cce <_CalcSetMemDelX>
    3860:	70 c2       	rjmp	.+1248   	; 0x3d42 <_Disp>

00003862 <ExecOp_86>:
    3862:	71 d2       	rcall	.+1250   	; 0x3d46 <__EditStop>
    3864:	8a 8d       	ldd	r24, Y+26	; 0x1a
    3866:	9b 8d       	ldd	r25, Y+27	; 0x1b
    3868:	9f 77       	andi	r25, 0x7F	; 127
    386a:	f4 99       	sbic	0x1e, 4	; 30
    386c:	90 68       	ori	r25, 0x80	; 128
    386e:	0e 94 14 2a 	call	0x5428	; 0x5428 <CalcStackW>
    3872:	0e 94 67 0e 	call	0x1cce	; 0x1cce <_CalcSetMemDelX>
    3876:	65 c2       	rjmp	.+1226   	; 0x3d42 <_Disp>

00003878 <ExecOp_87>:
    3878:	66 d2       	rcall	.+1228   	; 0x3d46 <__EditStop>
    387a:	0e 94 89 02 	call	0x512	; 0x512 <GetCrc>
    387e:	0e 94 14 2a 	call	0x5428	; 0x5428 <CalcStackW>
    3882:	0e 94 67 0e 	call	0x1cce	; 0x1cce <_CalcSetMemDelX>
    3886:	e2 e0       	ldi	r30, 0x02	; 2
    3888:	fc e7       	ldi	r31, 0x7C	; 124
    388a:	85 91       	lpm	r24, Z+
    388c:	94 91       	lpm	r25, Z+
    388e:	0e 94 14 2a 	call	0x5428	; 0x5428 <CalcStackW>
    3892:	86 e0       	ldi	r24, 0x06	; 6
    3894:	0e 94 73 26 	call	0x4ce6	; 0x4ce6 <CalcSetMemDel>
    3898:	54 c2       	rjmp	.+1192   	; 0x3d42 <_Disp>

0000389a <ExecOp_88>:
    389a:	55 d2       	rcall	.+1194   	; 0x3d46 <__EditStop>
    389c:	87 e0       	ldi	r24, 0x07	; 7
    389e:	70 d8       	rcall	.-3872   	; 0x2980 <__CalcGetMem>
    38a0:	88 e0       	ldi	r24, 0x08	; 8
    38a2:	0e 94 3c 25 	call	0x4a78	; 0x4a78 <CalcConst>
    38a6:	0e 94 9b 26 	call	0x4d36	; 0x4d36 <CalcMul>
    38aa:	0e 94 40 2a 	call	0x5480	; 0x5480 <CalcUnstackW>
    38ae:	99 23       	and	r25, r25
    38b0:	51 f0       	breq	.+20     	; 0x38c6 <ExecOp_88+0x2c>
    38b2:	71 e0       	ldi	r23, 0x01	; 1
    38b4:	84 3f       	cpi	r24, 0xF4	; 244
    38b6:	97 07       	cpc	r25, r23
    38b8:	10 f4       	brcc	.+4      	; 0x38be <ExecOp_88+0x24>
    38ba:	84 ef       	ldi	r24, 0xF4	; 244
    38bc:	91 e0       	ldi	r25, 0x01	; 1
    38be:	9f 3f       	cpi	r25, 0xFF	; 255
    38c0:	11 f4       	brne	.+4      	; 0x38c6 <ExecOp_88+0x2c>
    38c2:	8f ef       	ldi	r24, 0xFF	; 255
    38c4:	9e ef       	ldi	r25, 0xFE	; 254
    38c6:	80 93 3d 01 	sts	0x013D, r24
    38ca:	90 93 3e 01 	sts	0x013E, r25
    38ce:	a9 ef       	ldi	r26, 0xF9	; 249
    38d0:	b3 e0       	ldi	r27, 0x03	; 3
    38d2:	8f 93       	push	r24
    38d4:	0e 94 f3 05 	call	0xbe6	; 0xbe6 <_EEWrite>
    38d8:	9f 91       	pop	r25
    38da:	11 97       	sbiw	r26, 0x01	; 1
    38dc:	0e 94 f3 05 	call	0xbe6	; 0xbe6 <_EEWrite>
    38e0:	30 c2       	rjmp	.+1120   	; 0x3d42 <_Disp>

000038e2 <ExecOp_89>:
    38e2:	31 d2       	rcall	.+1122   	; 0x3d46 <__EditStop>
    38e4:	80 91 3d 01 	lds	r24, 0x013D
    38e8:	90 91 3e 01 	lds	r25, 0x013E
    38ec:	0e 94 14 2a 	call	0x5428	; 0x5428 <CalcStackW>
    38f0:	89 e0       	ldi	r24, 0x09	; 9
    38f2:	0e 94 3c 25 	call	0x4a78	; 0x4a78 <CalcConst>
    38f6:	0e 94 9b 26 	call	0x4d36	; 0x4d36 <CalcMul>
    38fa:	0e 94 67 0e 	call	0x1cce	; 0x1cce <_CalcSetMemDelX>
    38fe:	21 c2       	rjmp	.+1090   	; 0x3d42 <_Disp>

00003900 <ExecOp_8A>:
    3900:	0c 94 5e 02 	jmp	0x4bc	; 0x4bc <DispBuild>

00003904 <ExecOp_8B>:
    3904:	f2 99       	sbic	0x1e, 2	; 30
    3906:	0e 94 c1 11 	call	0x2382	; 0x2382 <StopProg>
    390a:	8e 81       	ldd	r24, Y+6	; 0x06
    390c:	8f 3f       	cpi	r24, 0xFF	; 255
    390e:	e9 f7       	brne	.-6      	; 0x390a <ExecOp_8B+0x6>
    3910:	0e 94 1a 04 	call	0x834	; 0x834 <KEY_Term>
    3914:	14 bc       	out	0x24, r1	; 36
    3916:	15 bc       	out	0x25, r1	; 37
    3918:	15 b8       	out	0x05, r1	; 5
    391a:	14 b8       	out	0x04, r1	; 4
    391c:	18 b8       	out	0x08, r1	; 8
    391e:	17 b8       	out	0x07, r1	; 7
    3920:	1b b8       	out	0x0b, r1	; 11
    3922:	1a b8       	out	0x0a, r1	; 10
    3924:	f8 94       	cli
    3926:	0c 94 b7 02 	jmp	0x56e	; 0x56e <main>

0000392a <ExecOpTab>:
    392a:	96 2e       	mov	r9, r22
    392c:	a8 2e       	mov	r10, r24
    392e:	a8 2e       	mov	r10, r24
    3930:	a8 2e       	mov	r10, r24
    3932:	a8 2e       	mov	r10, r24
    3934:	c4 2e       	mov	r12, r20
    3936:	c8 2e       	mov	r12, r24
    3938:	cc 2e       	mov	r12, r28
    393a:	d0 2e       	mov	r13, r16
    393c:	d4 2e       	mov	r13, r20
    393e:	30 2f       	mov	r19, r16
    3940:	3a 2f       	mov	r19, r26
    3942:	56 2f       	mov	r21, r22
    3944:	62 2f       	mov	r22, r18
    3946:	6c 2f       	mov	r22, r28
    3948:	74 2f       	mov	r23, r20
    394a:	7c 2f       	mov	r23, r28
    394c:	80 2f       	mov	r24, r16
    394e:	9a 2f       	mov	r25, r26
    3950:	a0 2f       	mov	r26, r16
    3952:	be 2f       	mov	r27, r30
    3954:	d6 2f       	mov	r29, r22
    3956:	f0 2f       	mov	r31, r16
    3958:	f0 2f       	mov	r31, r16
    395a:	00 30       	cpi	r16, 0x00	; 0
    395c:	0a 30       	cpi	r16, 0x0A	; 10
    395e:	14 30       	cpi	r17, 0x04	; 4
    3960:	1e 30       	cpi	r17, 0x0E	; 14
    3962:	26 30       	cpi	r18, 0x06	; 6
    3964:	2e 30       	cpi	r18, 0x0E	; 14
    3966:	38 30       	cpi	r19, 0x08	; 8
    3968:	42 30       	cpi	r20, 0x02	; 2
    396a:	48 30       	cpi	r20, 0x08	; 8
    396c:	48 30       	cpi	r20, 0x08	; 8
    396e:	48 30       	cpi	r20, 0x08	; 8
    3970:	48 30       	cpi	r20, 0x08	; 8
    3972:	48 30       	cpi	r20, 0x08	; 8
    3974:	48 30       	cpi	r20, 0x08	; 8
    3976:	48 30       	cpi	r20, 0x08	; 8
    3978:	48 30       	cpi	r20, 0x08	; 8
    397a:	48 30       	cpi	r20, 0x08	; 8
    397c:	48 30       	cpi	r20, 0x08	; 8
    397e:	48 30       	cpi	r20, 0x08	; 8
    3980:	48 30       	cpi	r20, 0x08	; 8
    3982:	48 30       	cpi	r20, 0x08	; 8
    3984:	48 30       	cpi	r20, 0x08	; 8
    3986:	48 30       	cpi	r20, 0x08	; 8
    3988:	48 30       	cpi	r20, 0x08	; 8
    398a:	5a 30       	cpi	r21, 0x0A	; 10
    398c:	5a 30       	cpi	r21, 0x0A	; 10
    398e:	5a 30       	cpi	r21, 0x0A	; 10
    3990:	5a 30       	cpi	r21, 0x0A	; 10
    3992:	5a 30       	cpi	r21, 0x0A	; 10
    3994:	5a 30       	cpi	r21, 0x0A	; 10
    3996:	5a 30       	cpi	r21, 0x0A	; 10
    3998:	5a 30       	cpi	r21, 0x0A	; 10
    399a:	5a 30       	cpi	r21, 0x0A	; 10
    399c:	5a 30       	cpi	r21, 0x0A	; 10
    399e:	5a 30       	cpi	r21, 0x0A	; 10
    39a0:	5a 30       	cpi	r21, 0x0A	; 10
    39a2:	5a 30       	cpi	r21, 0x0A	; 10
    39a4:	5a 30       	cpi	r21, 0x0A	; 10
    39a6:	5a 30       	cpi	r21, 0x0A	; 10
    39a8:	5a 30       	cpi	r21, 0x0A	; 10
    39aa:	68 30       	cpi	r22, 0x08	; 8
    39ac:	7a 30       	cpi	r23, 0x0A	; 10
    39ae:	88 30       	cpi	r24, 0x08	; 8
    39b0:	be 30       	cpi	r27, 0x0E	; 14
    39b2:	ca 30       	cpi	r28, 0x0A	; 10
    39b4:	e0 30       	cpi	r30, 0x00	; 0
    39b6:	18 31       	cpi	r17, 0x18	; 24
    39b8:	20 31       	cpi	r18, 0x10	; 16
    39ba:	3c 31       	cpi	r19, 0x1C	; 28
    39bc:	74 31       	cpi	r23, 0x14	; 20
    39be:	7c 31       	cpi	r23, 0x1C	; 28
    39c0:	98 31       	cpi	r25, 0x18	; 24
    39c2:	ec 31       	cpi	r30, 0x1C	; 28
    39c4:	28 32       	cpi	r18, 0x28	; 40
    39c6:	7e 32       	cpi	r23, 0x2E	; 46
    39c8:	d4 32       	cpi	r29, 0x24	; 36
    39ca:	2c 33       	cpi	r18, 0x3C	; 60
    39cc:	38 33       	cpi	r19, 0x38	; 56
    39ce:	4c 33       	cpi	r20, 0x3C	; 60
    39d0:	60 33       	cpi	r22, 0x30	; 48
    39d2:	cc 33       	cpi	r28, 0x3C	; 60
    39d4:	4e 34       	cpi	r20, 0x4E	; 78
    39d6:	60 34       	cpi	r22, 0x40	; 64
    39d8:	70 34       	cpi	r23, 0x40	; 64
    39da:	7e 34       	cpi	r23, 0x4E	; 78
    39dc:	88 34       	cpi	r24, 0x48	; 72
    39de:	8a 34       	cpi	r24, 0x4A	; 74
    39e0:	98 34       	cpi	r25, 0x48	; 72
    39e2:	a6 34       	cpi	r26, 0x46	; 70
    39e4:	b6 34       	cpi	r27, 0x46	; 70
    39e6:	c8 34       	cpi	r28, 0x48	; 72
    39e8:	e8 34       	cpi	r30, 0x48	; 72
    39ea:	04 35       	cpi	r16, 0x54	; 84
    39ec:	1e 35       	cpi	r17, 0x5E	; 94
    39ee:	22 35       	cpi	r18, 0x52	; 82
    39f0:	2c 35       	cpi	r18, 0x5C	; 92
    39f2:	3c 35       	cpi	r19, 0x5C	; 92
    39f4:	4c 35       	cpi	r20, 0x5C	; 92
    39f6:	5a 35       	cpi	r21, 0x5A	; 90
    39f8:	68 35       	cpi	r22, 0x58	; 88
    39fa:	88 35       	cpi	r24, 0x58	; 88
    39fc:	9a 35       	cpi	r25, 0x5A	; 90
    39fe:	ae 35       	cpi	r26, 0x5E	; 94
    3a00:	ce 35       	cpi	r28, 0x5E	; 94
    3a02:	e2 35       	cpi	r30, 0x52	; 82
    3a04:	f8 35       	cpi	r31, 0x58	; 88
    3a06:	20 36       	cpi	r18, 0x60	; 96
    3a08:	2a 36       	cpi	r18, 0x6A	; 106
    3a0a:	34 36       	cpi	r19, 0x64	; 100
    3a0c:	bc 36       	cpi	r27, 0x6C	; 108
    3a0e:	18 37       	cpi	r17, 0x78	; 120
    3a10:	22 37       	cpi	r18, 0x72	; 114
    3a12:	2c 37       	cpi	r18, 0x7C	; 124
    3a14:	36 37       	cpi	r19, 0x76	; 118
    3a16:	40 37       	cpi	r20, 0x70	; 112
    3a18:	4a 37       	cpi	r20, 0x7A	; 122
    3a1a:	56 37       	cpi	r21, 0x76	; 118
    3a1c:	66 37       	cpi	r22, 0x76	; 118
    3a1e:	76 37       	cpi	r23, 0x76	; 118
    3a20:	92 37       	cpi	r25, 0x72	; 114
    3a22:	a8 37       	cpi	r26, 0x78	; 120
    3a24:	9e 37       	cpi	r25, 0x7E	; 126
    3a26:	c8 37       	cpi	r28, 0x78	; 120
    3a28:	c0 37       	cpi	r28, 0x70	; 112
    3a2a:	d8 37       	cpi	r29, 0x78	; 120
    3a2c:	ee 37       	cpi	r30, 0x7E	; 126
    3a2e:	04 38       	cpi	r16, 0x84	; 132
    3a30:	18 38       	cpi	r17, 0x88	; 136
    3a32:	2a 38       	cpi	r18, 0x8A	; 138
    3a34:	54 38       	cpi	r21, 0x84	; 132
    3a36:	62 38       	cpi	r22, 0x82	; 130
    3a38:	78 38       	cpi	r23, 0x88	; 136
    3a3a:	9a 38       	cpi	r25, 0x8A	; 138
    3a3c:	e2 38       	cpi	r30, 0x82	; 130
    3a3e:	00 39       	cpi	r16, 0x90	; 144
    3a40:	04 39       	cpi	r16, 0x94	; 148

00003a42 <_DispFlags>:
    3a42:	0c 94 89 0a 	jmp	0x1512	; 0x1512 <DispFlags>

00003a46 <_EditStopNoX>:
    3a46:	0c 94 38 0d 	jmp	0x1a70	; 0x1a70 <EditStopNoX>

00003a4a <ExecLevel>:
    3a4a:	8b 89       	ldd	r24, Y+19	; 0x13
    3a4c:	e5 e0       	ldi	r30, 0x05	; 5
    3a4e:	f8 e0       	ldi	r31, 0x08	; 8
    3a50:	e8 0f       	add	r30, r24
    3a52:	f1 1d       	adc	r31, r1
    3a54:	80 81       	ld	r24, Z
    3a56:	08 95       	ret

00003a58 <ExecCalc>:
    3a58:	f6 df       	rcall	.-20     	; 0x3a46 <_EditStopNoX>
    3a5a:	87 e0       	ldi	r24, 0x07	; 7
    3a5c:	0e 94 75 26 	call	0x4cea	; 0x4cea <CalcGetMem>
    3a60:	f4 df       	rcall	.-24     	; 0x3a4a <ExecLevel>
    3a62:	8f 73       	andi	r24, 0x3F	; 63
    3a64:	29 f0       	breq	.+10     	; 0x3a70 <ExecCalcOn>
    3a66:	8c 8b       	std	Y+20, r24	; 0x14
    3a68:	85 e0       	ldi	r24, 0x05	; 5
    3a6a:	0e 94 6f 26 	call	0x4cde	; 0x4cde <CalcSetMem>
    3a6e:	ed df       	rcall	.-38     	; 0x3a4a <ExecLevel>

00003a70 <ExecCalcOn>:
    3a70:	8f 70       	andi	r24, 0x0F	; 15
    3a72:	81 30       	cpi	r24, 0x01	; 1
    3a74:	19 f4       	brne	.+6      	; 0x3a7c <ExecCalcOn+0xc>
    3a76:	0e 94 6e 27 	call	0x4edc	; 0x4edc <CalcAdd>
    3a7a:	43 c0       	rjmp	.+134    	; 0x3b02 <ExecCalcOn+0x92>
    3a7c:	82 30       	cpi	r24, 0x02	; 2
    3a7e:	19 f4       	brne	.+6      	; 0x3a86 <ExecCalcOn+0x16>
    3a80:	0e 94 6d 27 	call	0x4eda	; 0x4eda <CalcSub>
    3a84:	3e c0       	rjmp	.+124    	; 0x3b02 <ExecCalcOn+0x92>
    3a86:	86 30       	cpi	r24, 0x06	; 6
    3a88:	19 f4       	brne	.+6      	; 0x3a90 <ExecCalcOn+0x20>
    3a8a:	0e 94 9b 26 	call	0x4d36	; 0x4d36 <CalcMul>
    3a8e:	39 c0       	rjmp	.+114    	; 0x3b02 <ExecCalcOn+0x92>
    3a90:	87 30       	cpi	r24, 0x07	; 7
    3a92:	19 f4       	brne	.+6      	; 0x3a9a <ExecCalcOn+0x2a>
    3a94:	0e 94 05 27 	call	0x4e0a	; 0x4e0a <CalcDiv>
    3a98:	34 c0       	rjmp	.+104    	; 0x3b02 <ExecCalcOn+0x92>
    3a9a:	8d 30       	cpi	r24, 0x0D	; 13
    3a9c:	19 f4       	brne	.+6      	; 0x3aa4 <ExecCalcOn+0x34>
    3a9e:	0e 94 9c 27 	call	0x4f38	; 0x4f38 <CalcPow>
    3aa2:	2f c0       	rjmp	.+94     	; 0x3b02 <ExecCalcOn+0x92>
    3aa4:	8e 30       	cpi	r24, 0x0E	; 14
    3aa6:	29 f4       	brne	.+10     	; 0x3ab2 <ExecCalcOn+0x42>
    3aa8:	0e 94 b7 23 	call	0x476e	; 0x476e <CalcRec>
    3aac:	0e 94 9c 27 	call	0x4f38	; 0x4f38 <CalcPow>
    3ab0:	28 c0       	rjmp	.+80     	; 0x3b02 <ExecCalcOn+0x92>
    3ab2:	83 30       	cpi	r24, 0x03	; 3
    3ab4:	21 f0       	breq	.+8      	; 0x3abe <ExecCalcOn+0x4e>
    3ab6:	84 30       	cpi	r24, 0x04	; 4
    3ab8:	11 f0       	breq	.+4      	; 0x3abe <ExecCalcOn+0x4e>
    3aba:	85 30       	cpi	r24, 0x05	; 5
    3abc:	19 f4       	brne	.+6      	; 0x3ac4 <ExecCalcOn+0x54>
    3abe:	0e 94 b9 27 	call	0x4f72	; 0x4f72 <CalcBit>
    3ac2:	1f c0       	rjmp	.+62     	; 0x3b02 <ExecCalcOn+0x92>
    3ac4:	88 30       	cpi	r24, 0x08	; 8
    3ac6:	19 f4       	brne	.+6      	; 0x3ace <ExecCalcOn+0x5e>
    3ac8:	0e 94 45 27 	call	0x4e8a	; 0x4e8a <CalcMod>
    3acc:	1a c0       	rjmp	.+52     	; 0x3b02 <ExecCalcOn+0x92>
    3ace:	89 30       	cpi	r24, 0x09	; 9
    3ad0:	19 f4       	brne	.+6      	; 0x3ad8 <ExecCalcOn+0x68>
    3ad2:	0e 94 4b 27 	call	0x4e96	; 0x4e96 <CalcMod2>
    3ad6:	15 c0       	rjmp	.+42     	; 0x3b02 <ExecCalcOn+0x92>
    3ad8:	8a 30       	cpi	r24, 0x0A	; 10
    3ada:	39 f4       	brne	.+14     	; 0x3aea <ExecCalcOn+0x7a>
    3adc:	0e 94 9b 26 	call	0x4d36	; 0x4d36 <CalcMul>
    3ae0:	89 e0       	ldi	r24, 0x09	; 9
    3ae2:	ca d7       	rcall	.+3988   	; 0x4a78 <CalcConst>
    3ae4:	0e 94 9b 26 	call	0x4d36	; 0x4d36 <CalcMul>
    3ae8:	0c c0       	rjmp	.+24     	; 0x3b02 <ExecCalcOn+0x92>
    3aea:	8b 30       	cpi	r24, 0x0B	; 11
    3aec:	19 f4       	brne	.+6      	; 0x3af4 <ExecCalcOn+0x84>
    3aee:	0e 94 e6 26 	call	0x4dcc	; 0x4dcc <CalcLeft>
    3af2:	07 c0       	rjmp	.+14     	; 0x3b02 <ExecCalcOn+0x92>
    3af4:	8c 30       	cpi	r24, 0x0C	; 12
    3af6:	19 f4       	brne	.+6      	; 0x3afe <ExecCalcOn+0x8e>
    3af8:	0e 94 f0 26 	call	0x4de0	; 0x4de0 <CalcRight>
    3afc:	02 c0       	rjmp	.+4      	; 0x3b02 <ExecCalcOn+0x92>
    3afe:	0e 94 e5 28 	call	0x51ca	; 0x51ca <CalcDel>
    3b02:	87 e0       	ldi	r24, 0x07	; 7
    3b04:	0e 94 6f 26 	call	0x4cde	; 0x4cde <CalcSetMem>
    3b08:	f1 9a       	sbi	0x1e, 1	; 30
    3b0a:	9f df       	rcall	.-194    	; 0x3a4a <ExecLevel>
    3b0c:	80 7c       	andi	r24, 0xC0	; 192
    3b0e:	80 83       	st	Z, r24
    3b10:	18 c1       	rjmp	.+560    	; 0x3d42 <_Disp>

00003b12 <ExecLevelInc>:
    3b12:	8b 89       	ldd	r24, Y+19	; 0x13
    3b14:	8f 30       	cpi	r24, 0x0F	; 15
    3b16:	58 f4       	brcc	.+22     	; 0x3b2e <ExecLevelDec2>
    3b18:	83 95       	inc	r24
    3b1a:	8b 8b       	std	Y+19, r24	; 0x13

00003b1c <ExecLevelInit>:
    3b1c:	87 e0       	ldi	r24, 0x07	; 7
    3b1e:	0e 94 75 26 	call	0x4cea	; 0x4cea <CalcGetMem>
    3b22:	93 df       	rcall	.-218    	; 0x3a4a <ExecLevel>
    3b24:	10 82       	st	Z, r1
    3b26:	08 95       	ret

00003b28 <ExecLevelDec>:
    3b28:	8b 89       	ldd	r24, Y+19	; 0x13
    3b2a:	88 23       	and	r24, r24
    3b2c:	11 f4       	brne	.+4      	; 0x3b32 <ExecLevelDec2+0x4>

00003b2e <ExecLevelDec2>:
    3b2e:	0c 94 ac 02 	jmp	0x558	; 0x558 <Fatal>
    3b32:	0e 94 e5 28 	call	0x51ca	; 0x51ca <CalcDel>
    3b36:	8a 95       	dec	r24
    3b38:	8b 8b       	std	Y+19, r24	; 0x13

00003b3a <ExecLevelDec9>:
    3b3a:	08 95       	ret

00003b3c <ExecLpar>:
    3b3c:	84 df       	rcall	.-248    	; 0x3a46 <_EditStopNoX>
    3b3e:	f1 98       	cbi	0x1e, 1	; 30
    3b40:	e8 df       	rcall	.-48     	; 0x3b12 <ExecLevelInc>
    3b42:	7f cf       	rjmp	.-258    	; 0x3a42 <_DispFlags>

00003b44 <ExecRpar>:
    3b44:	80 df       	rcall	.-256    	; 0x3a46 <_EditStopNoX>
    3b46:	88 df       	rcall	.-240    	; 0x3a58 <ExecCalc>
    3b48:	80 df       	rcall	.-256    	; 0x3a4a <ExecLevel>
    3b4a:	8f 93       	push	r24
    3b4c:	8b 89       	ldd	r24, Y+19	; 0x13
    3b4e:	88 23       	and	r24, r24
    3b50:	09 f0       	breq	.+2      	; 0x3b54 <ExecRpar+0x10>
    3b52:	ea df       	rcall	.-44     	; 0x3b28 <ExecLevelDec>
    3b54:	8f 91       	pop	r24
    3b56:	80 7c       	andi	r24, 0xC0	; 192
    3b58:	80 30       	cpi	r24, 0x00	; 0
    3b5a:	a9 f7       	brne	.-22     	; 0x3b46 <ExecRpar+0x2>
    3b5c:	72 cf       	rjmp	.-284    	; 0x3a42 <_DispFlags>

00003b5e <ExecAdd>:
    3b5e:	73 df       	rcall	.-282    	; 0x3a46 <_EditStopNoX>
    3b60:	f1 9b       	sbis	0x1e, 1	; 30
    3b62:	21 c0       	rjmp	.+66     	; 0x3ba6 <ExecAdd+0x48>
    3b64:	72 df       	rcall	.-284    	; 0x3a4a <ExecLevel>
    3b66:	80 73       	andi	r24, 0x30	; 48
    3b68:	80 33       	cpi	r24, 0x30	; 48
    3b6a:	41 f4       	brne	.+16     	; 0x3b7c <ExecAdd+0x1e>
    3b6c:	75 df       	rcall	.-278    	; 0x3a58 <ExecCalc>
    3b6e:	6d df       	rcall	.-294    	; 0x3a4a <ExecLevel>
    3b70:	80 7c       	andi	r24, 0xC0	; 192
    3b72:	80 38       	cpi	r24, 0x80	; 128
    3b74:	11 f0       	breq	.+4      	; 0x3b7a <ExecAdd+0x1c>
    3b76:	80 34       	cpi	r24, 0x40	; 64
    3b78:	09 f4       	brne	.+2      	; 0x3b7c <ExecAdd+0x1e>
    3b7a:	d6 df       	rcall	.-84     	; 0x3b28 <ExecLevelDec>
    3b7c:	66 df       	rcall	.-308    	; 0x3a4a <ExecLevel>
    3b7e:	80 73       	andi	r24, 0x30	; 48
    3b80:	80 32       	cpi	r24, 0x20	; 32
    3b82:	31 f4       	brne	.+12     	; 0x3b90 <ExecAdd+0x32>
    3b84:	69 df       	rcall	.-302    	; 0x3a58 <ExecCalc>
    3b86:	61 df       	rcall	.-318    	; 0x3a4a <ExecLevel>
    3b88:	80 7c       	andi	r24, 0xC0	; 192
    3b8a:	80 34       	cpi	r24, 0x40	; 64
    3b8c:	09 f4       	brne	.+2      	; 0x3b90 <ExecAdd+0x32>
    3b8e:	cc df       	rcall	.-104    	; 0x3b28 <ExecLevelDec>
    3b90:	5c df       	rcall	.-328    	; 0x3a4a <ExecLevel>
    3b92:	80 73       	andi	r24, 0x30	; 48
    3b94:	80 31       	cpi	r24, 0x10	; 16
    3b96:	09 f4       	brne	.+2      	; 0x3b9a <ExecAdd+0x3c>
    3b98:	5f df       	rcall	.-322    	; 0x3a58 <ExecCalc>
    3b9a:	0e 94 e5 28 	call	0x51ca	; 0x51ca <CalcDel>
    3b9e:	87 e0       	ldi	r24, 0x07	; 7
    3ba0:	0e 94 75 26 	call	0x4cea	; 0x4cea <CalcGetMem>
    3ba4:	f1 98       	cbi	0x1e, 1	; 30
    3ba6:	51 df       	rcall	.-350    	; 0x3a4a <ExecLevel>
    3ba8:	80 7c       	andi	r24, 0xC0	; 192
    3baa:	81 61       	ori	r24, 0x11	; 17
    3bac:	80 83       	st	Z, r24
    3bae:	49 cf       	rjmp	.-366    	; 0x3a42 <_DispFlags>

00003bb0 <ExecSub>:
    3bb0:	d6 df       	rcall	.-84     	; 0x3b5e <ExecAdd>
    3bb2:	80 7c       	andi	r24, 0xC0	; 192
    3bb4:	82 61       	ori	r24, 0x12	; 18

00003bb6 <ExecSub2>:
    3bb6:	80 83       	st	Z, r24
    3bb8:	44 cf       	rjmp	.-376    	; 0x3a42 <_DispFlags>

00003bba <ExecAnd>:
    3bba:	d1 df       	rcall	.-94     	; 0x3b5e <ExecAdd>
    3bbc:	80 7c       	andi	r24, 0xC0	; 192
    3bbe:	83 61       	ori	r24, 0x13	; 19
    3bc0:	fa cf       	rjmp	.-12     	; 0x3bb6 <ExecSub2>

00003bc2 <ExecXor>:
    3bc2:	cd df       	rcall	.-102    	; 0x3b5e <ExecAdd>
    3bc4:	80 7c       	andi	r24, 0xC0	; 192
    3bc6:	85 61       	ori	r24, 0x15	; 21
    3bc8:	f6 cf       	rjmp	.-20     	; 0x3bb6 <ExecSub2>

00003bca <ExecOr>:
    3bca:	c9 df       	rcall	.-110    	; 0x3b5e <ExecAdd>
    3bcc:	80 7c       	andi	r24, 0xC0	; 192
    3bce:	84 61       	ori	r24, 0x14	; 20
    3bd0:	f2 cf       	rjmp	.-28     	; 0x3bb6 <ExecSub2>

00003bd2 <ExecMul>:
    3bd2:	39 df       	rcall	.-398    	; 0x3a46 <_EditStopNoX>
    3bd4:	f1 9b       	sbis	0x1e, 1	; 30
    3bd6:	1d c0       	rjmp	.+58     	; 0x3c12 <ExecMul+0x40>
    3bd8:	38 df       	rcall	.-400    	; 0x3a4a <ExecLevel>
    3bda:	80 73       	andi	r24, 0x30	; 48
    3bdc:	80 33       	cpi	r24, 0x30	; 48
    3bde:	31 f4       	brne	.+12     	; 0x3bec <ExecMul+0x1a>
    3be0:	3b df       	rcall	.-394    	; 0x3a58 <ExecCalc>
    3be2:	33 df       	rcall	.-410    	; 0x3a4a <ExecLevel>
    3be4:	80 7c       	andi	r24, 0xC0	; 192
    3be6:	80 38       	cpi	r24, 0x80	; 128
    3be8:	09 f4       	brne	.+2      	; 0x3bec <ExecMul+0x1a>
    3bea:	9e df       	rcall	.-196    	; 0x3b28 <ExecLevelDec>
    3bec:	2e df       	rcall	.-420    	; 0x3a4a <ExecLevel>
    3bee:	80 73       	andi	r24, 0x30	; 48
    3bf0:	80 32       	cpi	r24, 0x20	; 32
    3bf2:	09 f4       	brne	.+2      	; 0x3bf6 <ExecMul+0x24>
    3bf4:	31 df       	rcall	.-414    	; 0x3a58 <ExecCalc>
    3bf6:	29 df       	rcall	.-430    	; 0x3a4a <ExecLevel>
    3bf8:	80 73       	andi	r24, 0x30	; 48
    3bfa:	80 31       	cpi	r24, 0x10	; 16
    3bfc:	21 f4       	brne	.+8      	; 0x3c06 <ExecMul+0x34>
    3bfe:	89 df       	rcall	.-238    	; 0x3b12 <ExecLevelInc>
    3c00:	24 df       	rcall	.-440    	; 0x3a4a <ExecLevel>
    3c02:	80 e4       	ldi	r24, 0x40	; 64
    3c04:	80 83       	st	Z, r24
    3c06:	0e 94 e5 28 	call	0x51ca	; 0x51ca <CalcDel>
    3c0a:	87 e0       	ldi	r24, 0x07	; 7
    3c0c:	0e 94 75 26 	call	0x4cea	; 0x4cea <CalcGetMem>
    3c10:	f1 98       	cbi	0x1e, 1	; 30
    3c12:	1b df       	rcall	.-458    	; 0x3a4a <ExecLevel>
    3c14:	80 7c       	andi	r24, 0xC0	; 192
    3c16:	86 62       	ori	r24, 0x26	; 38
    3c18:	80 83       	st	Z, r24
    3c1a:	13 cf       	rjmp	.-474    	; 0x3a42 <_DispFlags>

00003c1c <ExecDiv>:
    3c1c:	da df       	rcall	.-76     	; 0x3bd2 <ExecMul>
    3c1e:	80 7c       	andi	r24, 0xC0	; 192
    3c20:	87 62       	ori	r24, 0x27	; 39

00003c22 <ExecDiv2>:
    3c22:	80 83       	st	Z, r24
    3c24:	0e cf       	rjmp	.-484    	; 0x3a42 <_DispFlags>

00003c26 <ExecMod>:
    3c26:	d5 df       	rcall	.-86     	; 0x3bd2 <ExecMul>
    3c28:	80 7c       	andi	r24, 0xC0	; 192
    3c2a:	88 62       	ori	r24, 0x28	; 40
    3c2c:	fa cf       	rjmp	.-12     	; 0x3c22 <ExecDiv2>

00003c2e <ExecMod2>:
    3c2e:	d1 df       	rcall	.-94     	; 0x3bd2 <ExecMul>
    3c30:	80 7c       	andi	r24, 0xC0	; 192
    3c32:	89 62       	ori	r24, 0x29	; 41
    3c34:	f6 cf       	rjmp	.-20     	; 0x3c22 <ExecDiv2>

00003c36 <ExecPerc>:
    3c36:	07 df       	rcall	.-498    	; 0x3a46 <_EditStopNoX>
    3c38:	87 e0       	ldi	r24, 0x07	; 7
    3c3a:	0e 94 75 26 	call	0x4cea	; 0x4cea <CalcGetMem>
    3c3e:	05 df       	rcall	.-502    	; 0x3a4a <ExecLevel>
    3c40:	8f 73       	andi	r24, 0x3F	; 63
    3c42:	29 f0       	breq	.+10     	; 0x3c4e <ExecPerc+0x18>
    3c44:	8c 8b       	std	Y+20, r24	; 0x14
    3c46:	85 e0       	ldi	r24, 0x05	; 5
    3c48:	0e 94 6f 26 	call	0x4cde	; 0x4cde <CalcSetMem>
    3c4c:	06 c0       	rjmp	.+12     	; 0x3c5a <ExecPerc+0x24>
    3c4e:	0e 94 e5 28 	call	0x51ca	; 0x51ca <CalcDel>
    3c52:	bf df       	rcall	.-130    	; 0x3bd2 <ExecMul>
    3c54:	80 7c       	andi	r24, 0xC0	; 192
    3c56:	8a 62       	ori	r24, 0x2A	; 42
    3c58:	e4 cf       	rjmp	.-56     	; 0x3c22 <ExecDiv2>
    3c5a:	f7 de       	rcall	.-530    	; 0x3a4a <ExecLevel>
    3c5c:	8f 70       	andi	r24, 0x0F	; 15
    3c5e:	81 30       	cpi	r24, 0x01	; 1
    3c60:	31 f4       	brne	.+12     	; 0x3c6e <ExecPerc+0x38>
    3c62:	e4 d7       	rcall	.+4040   	; 0x4c2c <Calc>
    3c64:	04 22       	and	r0, r20
    3c66:	89 22       	and	r8, r25
    3c68:	a5 29       	or	r26, r5
    3c6a:	01 00       	.word	0x0001	; ????
    3c6c:	18 c0       	rjmp	.+48     	; 0x3c9e <ExecPerc+0x68>
    3c6e:	82 30       	cpi	r24, 0x02	; 2
    3c70:	31 f4       	brne	.+12     	; 0x3c7e <ExecPerc+0x48>
    3c72:	dc d7       	rcall	.+4024   	; 0x4c2c <Calc>
    3c74:	04 22       	and	r0, r20
    3c76:	89 22       	and	r8, r25
    3c78:	a5 28       	or	r10, r5
    3c7a:	01 00       	.word	0x0001	; ????
    3c7c:	10 c0       	rjmp	.+32     	; 0x3c9e <ExecPerc+0x68>
    3c7e:	86 30       	cpi	r24, 0x06	; 6
    3c80:	29 f4       	brne	.+10     	; 0x3c8c <ExecPerc+0x56>
    3c82:	d4 d7       	rcall	.+4008   	; 0x4c2c <Calc>
    3c84:	89 22       	and	r8, r25
    3c86:	a5 22       	and	r10, r21
    3c88:	01 00       	.word	0x0001	; ????
    3c8a:	09 c0       	rjmp	.+18     	; 0x3c9e <ExecPerc+0x68>
    3c8c:	87 30       	cpi	r24, 0x07	; 7
    3c8e:	29 f4       	brne	.+10     	; 0x3c9a <ExecPerc+0x64>
    3c90:	cd d7       	rcall	.+3994   	; 0x4c2c <Calc>
    3c92:	89 22       	and	r8, r25
    3c94:	a5 23       	and	r26, r21
    3c96:	01 00       	.word	0x0001	; ????
    3c98:	02 c0       	rjmp	.+4      	; 0x3c9e <ExecPerc+0x68>
    3c9a:	0e 94 e5 28 	call	0x51ca	; 0x51ca <CalcDel>
    3c9e:	87 e0       	ldi	r24, 0x07	; 7
    3ca0:	0e 94 6f 26 	call	0x4cde	; 0x4cde <CalcSetMem>
    3ca4:	f1 9a       	sbi	0x1e, 1	; 30
    3ca6:	d1 de       	rcall	.-606    	; 0x3a4a <ExecLevel>
    3ca8:	80 7c       	andi	r24, 0xC0	; 192
    3caa:	80 83       	st	Z, r24
    3cac:	4a c0       	rjmp	.+148    	; 0x3d42 <_Disp>

00003cae <ExecLeft>:
    3cae:	91 df       	rcall	.-222    	; 0x3bd2 <ExecMul>
    3cb0:	80 7c       	andi	r24, 0xC0	; 192
    3cb2:	8b 62       	ori	r24, 0x2B	; 43
    3cb4:	b6 cf       	rjmp	.-148    	; 0x3c22 <ExecDiv2>

00003cb6 <ExecRight>:
    3cb6:	8d df       	rcall	.-230    	; 0x3bd2 <ExecMul>
    3cb8:	80 7c       	andi	r24, 0xC0	; 192
    3cba:	8c 62       	ori	r24, 0x2C	; 44
    3cbc:	b2 cf       	rjmp	.-156    	; 0x3c22 <ExecDiv2>

00003cbe <ExecYx>:
    3cbe:	7f 93       	push	r23
    3cc0:	c2 de       	rcall	.-636    	; 0x3a46 <_EditStopNoX>
    3cc2:	f1 9b       	sbis	0x1e, 1	; 30
    3cc4:	1a c0       	rjmp	.+52     	; 0x3cfa <ExecYx+0x3c>
    3cc6:	c1 de       	rcall	.-638    	; 0x3a4a <ExecLevel>
    3cc8:	80 73       	andi	r24, 0x30	; 48
    3cca:	80 33       	cpi	r24, 0x30	; 48
    3ccc:	09 f4       	brne	.+2      	; 0x3cd0 <ExecYx+0x12>
    3cce:	c4 de       	rcall	.-632    	; 0x3a58 <ExecCalc>
    3cd0:	bc de       	rcall	.-648    	; 0x3a4a <ExecLevel>
    3cd2:	80 73       	andi	r24, 0x30	; 48
    3cd4:	80 32       	cpi	r24, 0x20	; 32
    3cd6:	21 f4       	brne	.+8      	; 0x3ce0 <ExecYx+0x22>
    3cd8:	1c df       	rcall	.-456    	; 0x3b12 <ExecLevelInc>
    3cda:	b7 de       	rcall	.-658    	; 0x3a4a <ExecLevel>
    3cdc:	80 e8       	ldi	r24, 0x80	; 128
    3cde:	80 83       	st	Z, r24
    3ce0:	b4 de       	rcall	.-664    	; 0x3a4a <ExecLevel>
    3ce2:	80 73       	andi	r24, 0x30	; 48
    3ce4:	80 31       	cpi	r24, 0x10	; 16
    3ce6:	21 f4       	brne	.+8      	; 0x3cf0 <ExecYx+0x32>
    3ce8:	14 df       	rcall	.-472    	; 0x3b12 <ExecLevelInc>
    3cea:	af de       	rcall	.-674    	; 0x3a4a <ExecLevel>
    3cec:	80 e4       	ldi	r24, 0x40	; 64
    3cee:	80 83       	st	Z, r24
    3cf0:	0e 94 e5 28 	call	0x51ca	; 0x51ca <CalcDel>
    3cf4:	87 e0       	ldi	r24, 0x07	; 7
    3cf6:	f9 d7       	rcall	.+4082   	; 0x4cea <CalcGetMem>
    3cf8:	f1 98       	cbi	0x1e, 1	; 30
    3cfa:	a7 de       	rcall	.-690    	; 0x3a4a <ExecLevel>
    3cfc:	80 7c       	andi	r24, 0xC0	; 192
    3cfe:	7f 91       	pop	r23
    3d00:	77 23       	and	r23, r23
    3d02:	7d e3       	ldi	r23, 0x3D	; 61
    3d04:	09 f0       	breq	.+2      	; 0x3d08 <ExecYx+0x4a>
    3d06:	7e e3       	ldi	r23, 0x3E	; 62
    3d08:	87 2b       	or	r24, r23
    3d0a:	80 83       	st	Z, r24
    3d0c:	9a ce       	rjmp	.-716    	; 0x3a42 <_DispFlags>

00003d0e <ExecRes>:
    3d0e:	9b de       	rcall	.-714    	; 0x3a46 <_EditStopNoX>
    3d10:	8b 89       	ldd	r24, Y+19	; 0x13
    3d12:	88 23       	and	r24, r24
    3d14:	19 f4       	brne	.+6      	; 0x3d1c <ExecRes+0xe>
    3d16:	99 de       	rcall	.-718    	; 0x3a4a <ExecLevel>
    3d18:	8f 70       	andi	r24, 0x0F	; 15
    3d1a:	29 f0       	breq	.+10     	; 0x3d26 <ExecRes+0x18>
    3d1c:	13 df       	rcall	.-474    	; 0x3b44 <ExecRpar>
    3d1e:	8b 89       	ldd	r24, Y+19	; 0x13
    3d20:	88 23       	and	r24, r24
    3d22:	e1 f7       	brne	.-8      	; 0x3d1c <ExecRes+0xe>
    3d24:	0f cf       	rjmp	.-482    	; 0x3b44 <ExecRpar>
    3d26:	8c 89       	ldd	r24, Y+20	; 0x14
    3d28:	88 23       	and	r24, r24
    3d2a:	51 f0       	breq	.+20     	; 0x3d40 <ExecRes+0x32>
    3d2c:	0e 94 e5 28 	call	0x51ca	; 0x51ca <CalcDel>
    3d30:	87 e0       	ldi	r24, 0x07	; 7
    3d32:	db d7       	rcall	.+4022   	; 0x4cea <CalcGetMem>
    3d34:	85 e0       	ldi	r24, 0x05	; 5
    3d36:	d9 d7       	rcall	.+4018   	; 0x4cea <CalcGetMem>
    3d38:	88 de       	rcall	.-752    	; 0x3a4a <ExecLevel>
    3d3a:	8c 89       	ldd	r24, Y+20	; 0x14
    3d3c:	80 83       	st	Z, r24
    3d3e:	98 ce       	rjmp	.-720    	; 0x3a70 <ExecCalcOn>
    3d40:	08 95       	ret

00003d42 <_Disp>:
    3d42:	0c 94 25 0b 	jmp	0x164a	; 0x164a <Disp>

00003d46 <__EditStop>:
    3d46:	0c 94 37 0d 	jmp	0x1a6e	; 0x1a6e <EditStop>

00003d4a <ExecLnx>:
    3d4a:	29 f0       	breq	.+10     	; 0x3d56 <ExecLnx+0xc>
    3d4c:	fc df       	rcall	.-8      	; 0x3d46 <__EditStop>
    3d4e:	6e d7       	rcall	.+3804   	; 0x4c2c <Calc>
    3d50:	c7 5e       	subi	r28, 0xE7	; 231
    3d52:	e7 01       	movw	r28, r14
    3d54:	f6 cf       	rjmp	.-20     	; 0x3d42 <_Disp>
    3d56:	f7 df       	rcall	.-18     	; 0x3d46 <__EditStop>
    3d58:	69 d7       	rcall	.+3794   	; 0x4c2c <Calc>
    3d5a:	c7 5d       	subi	r28, 0xD7	; 215
    3d5c:	e7 01       	movw	r28, r14
    3d5e:	f1 cf       	rjmp	.-30     	; 0x3d42 <_Disp>

00003d60 <ExecLog>:
    3d60:	29 f0       	breq	.+10     	; 0x3d6c <ExecLog+0xc>
    3d62:	f1 df       	rcall	.-30     	; 0x3d46 <__EditStop>
    3d64:	63 d7       	rcall	.+3782   	; 0x4c2c <Calc>
    3d66:	c7 60       	ori	r28, 0x07	; 7
    3d68:	e7 01       	movw	r28, r14
    3d6a:	eb cf       	rjmp	.-42     	; 0x3d42 <_Disp>
    3d6c:	ec df       	rcall	.-40     	; 0x3d46 <__EditStop>
    3d6e:	5e d7       	rcall	.+3772   	; 0x4c2c <Calc>
    3d70:	c7 5f       	subi	r28, 0xF7	; 247
    3d72:	e7 01       	movw	r28, r14
    3d74:	e6 cf       	rjmp	.-52     	; 0x3d42 <_Disp>

00003d76 <ExecLg2>:
    3d76:	29 f0       	breq	.+10     	; 0x3d82 <ExecLg2+0xc>
    3d78:	e6 df       	rcall	.-52     	; 0x3d46 <__EditStop>
    3d7a:	58 d7       	rcall	.+3760   	; 0x4c2c <Calc>
    3d7c:	c7 62       	ori	r28, 0x27	; 39
    3d7e:	e7 01       	movw	r28, r14
    3d80:	e0 cf       	rjmp	.-64     	; 0x3d42 <_Disp>
    3d82:	e1 df       	rcall	.-62     	; 0x3d46 <__EditStop>
    3d84:	53 d7       	rcall	.+3750   	; 0x4c2c <Calc>
    3d86:	c7 61       	ori	r28, 0x17	; 23
    3d88:	e7 01       	movw	r28, r14
    3d8a:	db cf       	rjmp	.-74     	; 0x3d42 <_Disp>

00003d8c <ExecRnd>:
    3d8c:	31 f0       	breq	.+12     	; 0x3d9a <ExecRnd+0xe>
    3d8e:	db df       	rcall	.-74     	; 0x3d46 <__EditStop>
    3d90:	4d d7       	rcall	.+3738   	; 0x4c2c <Calc>
    3d92:	4c c7       	rjmp	.+3736   	; 0x4c2c <Calc>
    3d94:	22 e7       	ldi	r18, 0x72	; 114
    3d96:	01 00       	.word	0x0001	; ????
    3d98:	d4 cf       	rjmp	.-88     	; 0x3d42 <_Disp>
    3d9a:	d5 df       	rcall	.-86     	; 0x3d46 <__EditStop>
    3d9c:	47 d7       	rcall	.+3726   	; 0x4c2c <Calc>
    3d9e:	4c e7       	ldi	r20, 0x7C	; 124
    3da0:	01 00       	.word	0x0001	; ????
    3da2:	cf cf       	rjmp	.-98     	; 0x3d42 <_Disp>

00003da4 <ExecTan>:
    3da4:	31 f0       	breq	.+12     	; 0x3db2 <ExecTan+0xe>
    3da6:	cf df       	rcall	.-98     	; 0x3d46 <__EditStop>
    3da8:	41 d7       	rcall	.+3714   	; 0x4c2c <Calc>
    3daa:	c7 58       	subi	r28, 0x87	; 135
    3dac:	5a e7       	ldi	r21, 0x7A	; 122
    3dae:	01 00       	.word	0x0001	; ????
    3db0:	c8 cf       	rjmp	.-112    	; 0x3d42 <_Disp>
    3db2:	c9 df       	rcall	.-110    	; 0x3d46 <__EditStop>
    3db4:	3b d7       	rcall	.+3702   	; 0x4c2c <Calc>
    3db6:	c7 59       	subi	r28, 0x97	; 151
    3db8:	54 e7       	ldi	r21, 0x74	; 116
    3dba:	01 00       	.word	0x0001	; ????
    3dbc:	c2 cf       	rjmp	.-124    	; 0x3d42 <_Disp>

00003dbe <ExecX2>:
    3dbe:	c3 df       	rcall	.-122    	; 0x3d46 <__EditStop>
    3dc0:	35 d7       	rcall	.+3690   	; 0x4c2c <Calc>
    3dc2:	c7 64       	ori	r28, 0x47	; 71
    3dc4:	e7 01       	movw	r28, r14
    3dc6:	bd cf       	rjmp	.-134    	; 0x3d42 <_Disp>

00003dc8 <ExecVx>:
    3dc8:	be df       	rcall	.-132    	; 0x3d46 <__EditStop>
    3dca:	30 d7       	rcall	.+3680   	; 0x4c2c <Calc>
    3dcc:	c7 63       	ori	r28, 0x37	; 55
    3dce:	e7 01       	movw	r28, r14
    3dd0:	b8 cf       	rjmp	.-144    	; 0x3d42 <_Disp>

00003dd2 <Exec1x>:
    3dd2:	b9 df       	rcall	.-142    	; 0x3d46 <__EditStop>
    3dd4:	2b d7       	rcall	.+3670   	; 0x4c2c <Calc>
    3dd6:	c7 3e       	cpi	r28, 0xE7	; 231
    3dd8:	e7 01       	movw	r28, r14
    3dda:	b3 cf       	rjmp	.-154    	; 0x3d42 <_Disp>

00003ddc <ExecSin>:
    3ddc:	31 f0       	breq	.+12     	; 0x3dea <ExecSin+0xe>
    3dde:	b3 df       	rcall	.-154    	; 0x3d46 <__EditStop>
    3de0:	25 d7       	rcall	.+3658   	; 0x4c2c <Calc>
    3de2:	c7 56       	subi	r28, 0x67	; 103
    3de4:	5a e7       	ldi	r21, 0x7A	; 122
    3de6:	01 00       	.word	0x0001	; ????
    3de8:	ac cf       	rjmp	.-168    	; 0x3d42 <_Disp>
    3dea:	ad df       	rcall	.-166    	; 0x3d46 <__EditStop>
    3dec:	1f d7       	rcall	.+3646   	; 0x4c2c <Calc>
    3dee:	c7 59       	subi	r28, 0x97	; 151
    3df0:	52 e7       	ldi	r21, 0x72	; 114
    3df2:	01 00       	.word	0x0001	; ????
    3df4:	a6 cf       	rjmp	.-180    	; 0x3d42 <_Disp>

00003df6 <ExecCos>:
    3df6:	31 f0       	breq	.+12     	; 0x3e04 <ExecCos+0xe>
    3df8:	a6 df       	rcall	.-180    	; 0x3d46 <__EditStop>
    3dfa:	18 d7       	rcall	.+3632   	; 0x4c2c <Calc>
    3dfc:	c7 57       	subi	r28, 0x77	; 119
    3dfe:	5a e7       	ldi	r21, 0x7A	; 122
    3e00:	01 00       	.word	0x0001	; ????
    3e02:	9f cf       	rjmp	.-194    	; 0x3d42 <_Disp>
    3e04:	a0 df       	rcall	.-192    	; 0x3d46 <__EditStop>
    3e06:	12 d7       	rcall	.+3620   	; 0x4c2c <Calc>
    3e08:	c7 59       	subi	r28, 0x97	; 151
    3e0a:	53 e7       	ldi	r21, 0x73	; 115
    3e0c:	01 00       	.word	0x0001	; ????
    3e0e:	99 cf       	rjmp	.-206    	; 0x3d42 <_Disp>

00003e10 <ExecAbs>:
    3e10:	29 f4       	brne	.+10     	; 0x3e1c <ExecSign>
    3e12:	99 df       	rcall	.-206    	; 0x3d46 <__EditStop>
    3e14:	0b d7       	rcall	.+3606   	; 0x4c2c <Calc>
    3e16:	c7 43       	sbci	r28, 0x37	; 55
    3e18:	e7 01       	movw	r28, r14
    3e1a:	93 cf       	rjmp	.-218    	; 0x3d42 <_Disp>

00003e1c <ExecSign>:
    3e1c:	94 df       	rcall	.-216    	; 0x3d46 <__EditStop>
    3e1e:	f1 9a       	sbi	0x1e, 1	; 30
    3e20:	05 d7       	rcall	.+3594   	; 0x4c2c <Calc>
    3e22:	c7 42       	sbci	r28, 0x27	; 39
    3e24:	e7 01       	movw	r28, r14
    3e26:	8d cf       	rjmp	.-230    	; 0x3d42 <_Disp>

00003e28 <ExecInt>:
    3e28:	29 f0       	breq	.+10     	; 0x3e34 <ExecInt+0xc>
    3e2a:	8d df       	rcall	.-230    	; 0x3d46 <__EditStop>
    3e2c:	ff d6       	rcall	.+3582   	; 0x4c2c <Calc>
    3e2e:	c7 03       	fmuls	r20, r23
    3e30:	45 28       	or	r4, r5
    3e32:	0f 06       	cpc	r0, r31
    3e34:	88 df       	rcall	.-240    	; 0x3d46 <__EditStop>
    3e36:	fa d6       	rcall	.+3572   	; 0x4c2c <Calc>
    3e38:	c7 45       	sbci	r28, 0x57	; 87
    3e3a:	e7 01       	movw	r28, r14
    3e3c:	82 cf       	rjmp	.-252    	; 0x3d42 <_Disp>

00003e3e <ExecRound>:
    3e3e:	21 f4       	brne	.+8      	; 0x3e48 <ExecRound+0xa>
    3e40:	82 df       	rcall	.-252    	; 0x3d46 <__EditStop>
    3e42:	f4 d6       	rcall	.+3560   	; 0x4c2c <Calc>
    3e44:	c7 48       	sbci	r28, 0x87	; 135
    3e46:	0f 08       	sbc	r0, r15
    3e48:	7e df       	rcall	.-260    	; 0x3d46 <__EditStop>
    3e4a:	f0 d6       	rcall	.+3552   	; 0x4c2c <Calc>
    3e4c:	c7 03       	fmuls	r20, r23
    3e4e:	46 28       	or	r4, r6
    3e50:	e7 01       	movw	r28, r14
    3e52:	77 cf       	rjmp	.-274    	; 0x3d42 <_Disp>

00003e54 <ExecSinH>:
    3e54:	39 f0       	breq	.+14     	; 0x3e64 <ExecSinH+0x10>
    3e56:	77 df       	rcall	.-274    	; 0x3d46 <__EditStop>
    3e58:	e9 d6       	rcall	.+3538   	; 0x4c2c <Calc>
    3e5a:	c7 03       	fmuls	r20, r23
    3e5c:	64 3f       	cpi	r22, 0xF4	; 244
    3e5e:	63 29       	or	r22, r3
    3e60:	5d 0f       	add	r21, r29
    3e62:	0b 00       	.word	0x000b	; ????
    3e64:	70 df       	rcall	.-288    	; 0x3d46 <__EditStop>
    3e66:	e2 d6       	rcall	.+3524   	; 0x4c2c <Calc>
    3e68:	c7 5e       	subi	r28, 0xE7	; 231
    3e6a:	03 3e       	cpi	r16, 0xE3	; 227
    3e6c:	28 25       	eor	r18, r8
    3e6e:	e7 01       	movw	r28, r14
    3e70:	68 cf       	rjmp	.-304    	; 0x3d42 <_Disp>

00003e72 <ExecCosH>:
    3e72:	39 f0       	breq	.+14     	; 0x3e82 <ExecCosH+0x10>
    3e74:	68 df       	rcall	.-304    	; 0x3d46 <__EditStop>
    3e76:	da d6       	rcall	.+3508   	; 0x4c2c <Calc>
    3e78:	c7 03       	fmuls	r20, r23
    3e7a:	64 40       	sbci	r22, 0x04	; 4
    3e7c:	63 29       	or	r22, r3
    3e7e:	5d 0f       	add	r21, r29
    3e80:	0b 00       	.word	0x000b	; ????
    3e82:	61 df       	rcall	.-318    	; 0x3d46 <__EditStop>
    3e84:	d3 d6       	rcall	.+3494   	; 0x4c2c <Calc>
    3e86:	c7 5e       	subi	r28, 0xE7	; 231
    3e88:	03 3e       	cpi	r16, 0xE3	; 227
    3e8a:	29 25       	eor	r18, r9
    3e8c:	e7 01       	movw	r28, r14
    3e8e:	59 cf       	rjmp	.-334    	; 0x3d42 <_Disp>

00003e90 <ExecTanH>:
    3e90:	41 f0       	breq	.+16     	; 0x3ea2 <ExecTanH+0x12>
    3e92:	59 df       	rcall	.-334    	; 0x3d46 <__EditStop>
    3e94:	cb d6       	rcall	.+3478   	; 0x4c2c <Calc>
    3e96:	c7 03       	fmuls	r20, r23
    3e98:	3f 09       	sbc	r19, r15
    3e9a:	40 41       	sbci	r20, 0x10	; 16
    3e9c:	23 5d       	subi	r18, 0xD3	; 211
    3e9e:	25 0f       	add	r18, r21
    3ea0:	0d 00       	.word	0x000d	; ????
    3ea2:	51 df       	rcall	.-350    	; 0x3d46 <__EditStop>
    3ea4:	c3 d6       	rcall	.+3462   	; 0x4c2c <Calc>
    3ea6:	c7 24       	eor	r12, r7
    3ea8:	5e 03       	fmul	r21, r22
    3eaa:	40 09       	sbc	r20, r0
    3eac:	3f 23       	and	r19, r31
    3eae:	e7 01       	movw	r28, r14
    3eb0:	48 cf       	rjmp	.-368    	; 0x3d42 <_Disp>

00003eb2 <Split1000>:
    3eb2:	6f e2       	ldi	r22, 0x2F	; 47
    3eb4:	63 95       	inc	r22
    3eb6:	88 5e       	subi	r24, 0xE8	; 232
    3eb8:	93 40       	sbci	r25, 0x03	; 3
    3eba:	e0 f7       	brcc	.-8      	; 0x3eb4 <Split1000+0x2>
    3ebc:	88 51       	subi	r24, 0x18	; 24
    3ebe:	9c 4f       	sbci	r25, 0xFC	; 252

00003ec0 <Split1000Hex>:
    3ec0:	6a 33       	cpi	r22, 0x3A	; 58
    3ec2:	08 f0       	brcs	.+2      	; 0x3ec6 <Split1000Hex+0x6>
    3ec4:	69 5f       	subi	r22, 0xF9	; 249
    3ec6:	08 95       	ret

00003ec8 <Split100>:
    3ec8:	6f e2       	ldi	r22, 0x2F	; 47
    3eca:	63 95       	inc	r22
    3ecc:	84 56       	subi	r24, 0x64	; 100
    3ece:	90 40       	sbci	r25, 0x00	; 0
    3ed0:	e0 f7       	brcc	.-8      	; 0x3eca <Split100+0x2>
    3ed2:	8c 59       	subi	r24, 0x9C	; 156
    3ed4:	9f 4f       	sbci	r25, 0xFF	; 255
    3ed6:	f4 cf       	rjmp	.-24     	; 0x3ec0 <Split1000Hex>

00003ed8 <Split10>:
    3ed8:	6f e2       	ldi	r22, 0x2F	; 47
    3eda:	63 95       	inc	r22
    3edc:	8a 50       	subi	r24, 0x0A	; 10
    3ede:	e8 f7       	brcc	.-6      	; 0x3eda <Split10+0x2>
    3ee0:	86 5c       	subi	r24, 0xC6	; 198
    3ee2:	ee cf       	rjmp	.-36     	; 0x3ec0 <Split1000Hex>

00003ee4 <Split_DecExp>:
    3ee4:	8b 85       	ldd	r24, Y+11	; 0x0b
    3ee6:	9c 85       	ldd	r25, Y+12	; 0x0c
    3ee8:	01 97       	sbiw	r24, 0x01	; 1
    3eea:	8b 87       	std	Y+11, r24	; 0x0b
    3eec:	9c 87       	std	Y+12, r25	; 0x0c
    3eee:	08 95       	ret

00003ef0 <Split_IncExp>:
    3ef0:	8b 85       	ldd	r24, Y+11	; 0x0b
    3ef2:	9c 85       	ldd	r25, Y+12	; 0x0c
    3ef4:	01 96       	adiw	r24, 0x01	; 1
    3ef6:	8b 87       	std	Y+11, r24	; 0x0b
    3ef8:	9c 87       	std	Y+12, r25	; 0x0c
    3efa:	08 95       	ret

00003efc <SplitNum>:
    3efc:	c9 d6       	rcall	.+3474   	; 0x4c90 <CalcTopCheck>
    3efe:	80 50       	subi	r24, 0x00	; 0
    3f00:	90 48       	sbci	r25, 0x80	; 128
    3f02:	9f 93       	push	r25
    3f04:	0e 94 24 2a 	call	0x5448	; 0x5448 <CalcStackS16>
    3f08:	9f 91       	pop	r25
    3f0a:	99 23       	and	r25, r25
    3f0c:	1a f0       	brmi	.+6      	; 0x3f14 <SplitNum+0x18>
    3f0e:	33 d4       	rcall	.+2150   	; 0x4776 <CalcInc>
    3f10:	32 d4       	rcall	.+2148   	; 0x4776 <CalcInc>
    3f12:	01 c0       	rjmp	.+2      	; 0x3f16 <SplitNum+0x1a>
    3f14:	33 d4       	rcall	.+2150   	; 0x477c <CalcDec>
    3f16:	8e 8d       	ldd	r24, Y+30	; 0x1e
    3f18:	80 30       	cpi	r24, 0x00	; 0
    3f1a:	21 f4       	brne	.+8      	; 0x3f24 <SplitNum+0x28>
    3f1c:	80 e1       	ldi	r24, 0x10	; 16
    3f1e:	ac d5       	rcall	.+2904   	; 0x4a78 <CalcConst>
    3f20:	0a d7       	rcall	.+3604   	; 0x4d36 <CalcMul>
    3f22:	0a c0       	rjmp	.+20     	; 0x3f38 <SplitNum2>
    3f24:	83 30       	cpi	r24, 0x03	; 3
    3f26:	11 f4       	brne	.+4      	; 0x3f2c <SplitNum+0x30>
    3f28:	41 d7       	rcall	.+3714   	; 0x4dac <CalcDiv4>
    3f2a:	06 c0       	rjmp	.+12     	; 0x3f38 <SplitNum2>
    3f2c:	82 30       	cpi	r24, 0x02	; 2
    3f2e:	21 f4       	brne	.+8      	; 0x3f38 <SplitNum2>
    3f30:	83 e0       	ldi	r24, 0x03	; 3
    3f32:	0e 94 13 2a 	call	0x5426	; 0x5426 <CalcStackB>
    3f36:	69 d7       	rcall	.+3794   	; 0x4e0a <CalcDiv>

00003f38 <SplitNum2>:
    3f38:	0e 94 5e 2a 	call	0x54bc	; 0x54bc <CalcUnstackS16>
    3f3c:	8b 87       	std	Y+11, r24	; 0x0b
    3f3e:	9c 87       	std	Y+12, r25	; 0x0c
    3f40:	bc 01       	movw	r22, r24
    3f42:	ae 8d       	ldd	r26, Y+30	; 0x1e
    3f44:	a3 30       	cpi	r26, 0x03	; 3
    3f46:	b9 f4       	brne	.+46     	; 0x3f76 <SplitNum3>
    3f48:	a3 d6       	rcall	.+3398   	; 0x4c90 <CalcTopCheck>
    3f4a:	ab 01       	movw	r20, r22
    3f4c:	44 0f       	add	r20, r20
    3f4e:	55 1f       	adc	r21, r21
    3f50:	44 0f       	add	r20, r20
    3f52:	55 1f       	adc	r21, r21
    3f54:	84 1b       	sub	r24, r20
    3f56:	95 0b       	sbc	r25, r21
    3f58:	90 83       	st	Z, r25
    3f5a:	81 83       	std	Z+1, r24	; 0x01
    3f5c:	99 d6       	rcall	.+3378   	; 0x4c90 <CalcTopCheck>
    3f5e:	90 38       	cpi	r25, 0x80	; 128
    3f60:	18 f4       	brcc	.+6      	; 0x3f68 <SplitNum2+0x30>
    3f62:	2c d7       	rcall	.+3672   	; 0x4dbc <CalcMul16>
    3f64:	bf df       	rcall	.-130    	; 0x3ee4 <Split_DecExp>
    3f66:	fa cf       	rjmp	.-12     	; 0x3f5c <SplitNum2+0x24>
    3f68:	93 d6       	rcall	.+3366   	; 0x4c90 <CalcTopCheck>
    3f6a:	84 30       	cpi	r24, 0x04	; 4
    3f6c:	18 f0       	brcs	.+6      	; 0x3f74 <SplitNum2+0x3c>
    3f6e:	1c d7       	rcall	.+3640   	; 0x4da8 <CalcDiv16>
    3f70:	bf df       	rcall	.-130    	; 0x3ef0 <Split_IncExp>
    3f72:	fa cf       	rjmp	.-12     	; 0x3f68 <SplitNum2+0x30>
    3f74:	08 95       	ret

00003f76 <SplitNum3>:
    3f76:	a2 30       	cpi	r26, 0x02	; 2
    3f78:	b1 f4       	brne	.+44     	; 0x3fa6 <SplitNum4>
    3f7a:	8a d6       	rcall	.+3348   	; 0x4c90 <CalcTopCheck>
    3f7c:	86 1b       	sub	r24, r22
    3f7e:	97 0b       	sbc	r25, r23
    3f80:	86 1b       	sub	r24, r22
    3f82:	97 0b       	sbc	r25, r23
    3f84:	86 1b       	sub	r24, r22
    3f86:	97 0b       	sbc	r25, r23
    3f88:	90 83       	st	Z, r25
    3f8a:	81 83       	std	Z+1, r24	; 0x01
    3f8c:	81 d6       	rcall	.+3330   	; 0x4c90 <CalcTopCheck>
    3f8e:	90 38       	cpi	r25, 0x80	; 128
    3f90:	18 f4       	brcc	.+6      	; 0x3f98 <SplitNum3+0x22>
    3f92:	15 d7       	rcall	.+3626   	; 0x4dbe <CalcMul8>
    3f94:	a7 df       	rcall	.-178    	; 0x3ee4 <Split_DecExp>
    3f96:	fa cf       	rjmp	.-12     	; 0x3f8c <SplitNum3+0x16>
    3f98:	7b d6       	rcall	.+3318   	; 0x4c90 <CalcTopCheck>
    3f9a:	83 30       	cpi	r24, 0x03	; 3
    3f9c:	18 f0       	brcs	.+6      	; 0x3fa4 <SplitNum3+0x2e>
    3f9e:	05 d7       	rcall	.+3594   	; 0x4daa <CalcDiv8>
    3fa0:	a7 df       	rcall	.-178    	; 0x3ef0 <Split_IncExp>
    3fa2:	fa cf       	rjmp	.-12     	; 0x3f98 <SplitNum3+0x22>
    3fa4:	08 95       	ret

00003fa6 <SplitNum4>:
    3fa6:	a1 30       	cpi	r26, 0x01	; 1
    3fa8:	91 f4       	brne	.+36     	; 0x3fce <SplitNum5>
    3faa:	72 d6       	rcall	.+3300   	; 0x4c90 <CalcTopCheck>
    3fac:	86 1b       	sub	r24, r22
    3fae:	97 0b       	sbc	r25, r23
    3fb0:	90 83       	st	Z, r25
    3fb2:	81 83       	std	Z+1, r24	; 0x01
    3fb4:	6d d6       	rcall	.+3290   	; 0x4c90 <CalcTopCheck>
    3fb6:	90 38       	cpi	r25, 0x80	; 128
    3fb8:	18 f4       	brcc	.+6      	; 0x3fc0 <SplitNum4+0x1a>
    3fba:	03 d7       	rcall	.+3590   	; 0x4dc2 <CalcMul2>
    3fbc:	93 df       	rcall	.-218    	; 0x3ee4 <Split_DecExp>
    3fbe:	fa cf       	rjmp	.-12     	; 0x3fb4 <SplitNum4+0xe>
    3fc0:	67 d6       	rcall	.+3278   	; 0x4c90 <CalcTopCheck>
    3fc2:	81 30       	cpi	r24, 0x01	; 1
    3fc4:	18 f0       	brcs	.+6      	; 0x3fcc <SplitNum4+0x26>
    3fc6:	f3 d6       	rcall	.+3558   	; 0x4dae <CalcDiv2>
    3fc8:	93 df       	rcall	.-218    	; 0x3ef0 <Split_IncExp>
    3fca:	fa cf       	rjmp	.-12     	; 0x3fc0 <SplitNum4+0x1a>
    3fcc:	08 95       	ret

00003fce <SplitNum5>:
    3fce:	ec e4       	ldi	r30, 0x4C	; 76
    3fd0:	f2 e0       	ldi	r31, 0x02	; 2
    3fd2:	66 ef       	ldi	r22, 0xF6	; 246
    3fd4:	7f ef       	ldi	r23, 0xFF	; 255
    3fd6:	99 23       	and	r25, r25
    3fd8:	1a f4       	brpl	.+6      	; 0x3fe0 <SplitNum5+0x12>
    3fda:	a0 d2       	rcall	.+1344   	; 0x451c <NegW>
    3fdc:	6a e0       	ldi	r22, 0x0A	; 10
    3fde:	70 e0       	ldi	r23, 0x00	; 0
    3fe0:	e6 0f       	add	r30, r22
    3fe2:	f7 1f       	adc	r31, r23
    3fe4:	96 95       	lsr	r25
    3fe6:	87 95       	ror	r24
    3fe8:	70 f4       	brcc	.+28     	; 0x4006 <SplitNum5+0x38>
    3fea:	6f 93       	push	r22
    3fec:	7f 93       	push	r23
    3fee:	8f 93       	push	r24
    3ff0:	9f 93       	push	r25
    3ff2:	ef 93       	push	r30
    3ff4:	ff 93       	push	r31
    3ff6:	4d d5       	rcall	.+2714   	; 0x4a92 <CalcConstROM>
    3ff8:	9e d6       	rcall	.+3388   	; 0x4d36 <CalcMul>
    3ffa:	ff 91       	pop	r31
    3ffc:	ef 91       	pop	r30
    3ffe:	9f 91       	pop	r25
    4000:	8f 91       	pop	r24
    4002:	7f 91       	pop	r23
    4004:	6f 91       	pop	r22
    4006:	a8 2f       	mov	r26, r24
    4008:	a9 2b       	or	r26, r25
    400a:	51 f7       	brne	.-44     	; 0x3fe0 <SplitNum5+0x12>
    400c:	41 d6       	rcall	.+3202   	; 0x4c90 <CalcTopCheck>
    400e:	90 38       	cpi	r25, 0x80	; 128
    4010:	20 f4       	brcc	.+8      	; 0x401a <SplitNum5+0x4c>
    4012:	86 e0       	ldi	r24, 0x06	; 6
    4014:	31 d5       	rcall	.+2658   	; 0x4a78 <CalcConst>
    4016:	8f d6       	rcall	.+3358   	; 0x4d36 <CalcMul>
    4018:	65 df       	rcall	.-310    	; 0x3ee4 <Split_DecExp>
    401a:	08 95       	ret

0000401c <DecNumDef>:
    401c:	80 e1       	ldi	r24, 0x10	; 16
    401e:	88 8f       	std	Y+24, r24	; 0x18

00004020 <DecNum>:
    4020:	1b 86       	std	Y+11, r1	; 0x0b
    4022:	1c 86       	std	Y+12, r1	; 0x0c
    4024:	0e 94 e2 0c 	call	0x19c4	; 0x19c4 <EditBufClear>
    4028:	0e 94 08 0c 	call	0x1810	; 0x1810 <FlagClrOldErr>
    402c:	f4 99       	sbic	0x1e, 4	; 30
    402e:	0e 94 d5 0b 	call	0x17aa	; 0x17aa <FlagSetOldErr>
    4032:	0e 94 0e 0c 	call	0x181c	; 0x181c <FlagClrOldRun>
    4036:	f2 99       	sbic	0x1e, 2	; 30
    4038:	0e 94 db 0b 	call	0x17b6	; 0x17b6 <FlagSetOldRun>
    403c:	0e 94 ff 0b 	call	0x17fe	; 0x17fe <FlagClrErrDec>
    4040:	0e 94 48 26 	call	0x4c90	; 0x4c90 <CalcTopCheck>
    4044:	10 f4       	brcc	.+4      	; 0x404a <DecNum+0x2a>
    4046:	0e 94 cc 0b 	call	0x1798	; 0x1798 <FlagSetErrDec>
    404a:	92 81       	ldd	r25, Z+2	; 0x02
    404c:	8d e2       	ldi	r24, 0x2D	; 45
    404e:	97 ff       	sbrs	r25, 7
    4050:	80 e2       	ldi	r24, 0x20	; 32
    4052:	9f 77       	andi	r25, 0x7F	; 127
    4054:	92 83       	std	Z+2, r25	; 0x02
    4056:	89 a7       	std	Y+41, r24	; 0x29
    4058:	1b d6       	rcall	.+3126   	; 0x4c90 <CalcTopCheck>
    405a:	09 f0       	breq	.+2      	; 0x405e <DecNum+0x3e>
    405c:	4f df       	rcall	.-354    	; 0x3efc <SplitNum>
    405e:	0e 94 f3 0b 	call	0x17e6	; 0x17e6 <FlagClrResDec>
    4062:	31 e0       	ldi	r19, 0x01	; 1
    4064:	0e 94 22 0c 	call	0x1844	; 0x1844 <FlagTestEng>
    4068:	c1 f0       	breq	.+48     	; 0x409a <DecNumRestart>
    406a:	8b 85       	ldd	r24, Y+11	; 0x0b
    406c:	9c 85       	ldd	r25, Y+12	; 0x0c
    406e:	0e 94 24 2a 	call	0x5448	; 0x5448 <CalcStackS16>
    4072:	9e 8d       	ldd	r25, Y+30	; 0x1e
    4074:	83 e0       	ldi	r24, 0x03	; 3
    4076:	90 30       	cpi	r25, 0x00	; 0
    4078:	19 f0       	breq	.+6      	; 0x4080 <DecNum+0x60>
    407a:	92 30       	cpi	r25, 0x02	; 2
    407c:	09 f0       	breq	.+2      	; 0x4080 <DecNum+0x60>
    407e:	84 e0       	ldi	r24, 0x04	; 4
    4080:	0e 94 13 2a 	call	0x5426	; 0x5426 <CalcStackB>
    4084:	08 d7       	rcall	.+3600   	; 0x4e96 <CalcMod2>
    4086:	0e 94 59 2a 	call	0x54b2	; 0x54b2 <CalcUnstackB>
    408a:	6b 85       	ldd	r22, Y+11	; 0x0b
    408c:	7c 85       	ldd	r23, Y+12	; 0x0c
    408e:	68 1b       	sub	r22, r24
    4090:	71 09       	sbc	r23, r1
    4092:	6b 87       	std	Y+11, r22	; 0x0b
    4094:	7c 87       	std	Y+12, r23	; 0x0c
    4096:	83 95       	inc	r24
    4098:	38 2f       	mov	r19, r24

0000409a <DecNumRestart>:
    409a:	78 8d       	ldd	r23, Y+24	; 0x18
    409c:	72 50       	subi	r23, 0x02	; 2
    409e:	50 e0       	ldi	r21, 0x00	; 0
    40a0:	40 e0       	ldi	r20, 0x00	; 0
    40a2:	8b 85       	ldd	r24, Y+11	; 0x0b
    40a4:	9c 85       	ldd	r25, Y+12	; 0x0c
    40a6:	0e 94 25 0c 	call	0x184a	; 0x184a <FlagTestEEEng>
    40aa:	51 f4       	brne	.+20     	; 0x40c0 <DecNumRestart+0x26>
    40ac:	87 17       	cp	r24, r23
    40ae:	91 05       	cpc	r25, r1
    40b0:	3c f4       	brge	.+14     	; 0x40c0 <DecNumRestart+0x26>
    40b2:	af 89       	ldd	r26, Y+23	; 0x17
    40b4:	af 30       	cpi	r26, 0x0F	; 15
    40b6:	59 f5       	brne	.+86     	; 0x410e <DecNum2>
    40b8:	af ef       	ldi	r26, 0xFF	; 255
    40ba:	8d 3f       	cpi	r24, 0xFD	; 253
    40bc:	9a 07       	cpc	r25, r26
    40be:	3c f5       	brge	.+78     	; 0x410e <DecNum2>
    40c0:	69 2f       	mov	r22, r25
    40c2:	99 23       	and	r25, r25
    40c4:	0a f4       	brpl	.+2      	; 0x40c8 <DecNumRestart+0x2e>
    40c6:	2a d2       	rcall	.+1108   	; 0x451c <NegW>
    40c8:	e8 8d       	ldd	r30, Y+24	; 0x18
    40ca:	ff 27       	eor	r31, r31
    40cc:	e7 5d       	subi	r30, 0xD7	; 215
    40ce:	fe 4f       	sbci	r31, 0xFE	; 254
    40d0:	dc 01       	movw	r26, r24
    40d2:	4f d2       	rcall	.+1182   	; 0x4572 <DivW10>
    40d4:	8c 01       	movw	r16, r24
    40d6:	61 d2       	rcall	.+1218   	; 0x459a <MulW10>
    40d8:	a8 1b       	sub	r26, r24
    40da:	a0 5d       	subi	r26, 0xD0	; 208
    40dc:	0e 94 34 0c 	call	0x1868	; 0x1868 <FlagTestErrDec>
    40e0:	09 f0       	breq	.+2      	; 0x40e4 <DecNumRestart+0x4a>
    40e2:	a9 e3       	ldi	r26, 0x39	; 57
    40e4:	a2 93       	st	-Z, r26
    40e6:	53 95       	inc	r21
    40e8:	c8 01       	movw	r24, r16
    40ea:	09 2b       	or	r16, r25
    40ec:	89 f7       	brne	.-30     	; 0x40d0 <DecNumRestart+0x36>
    40ee:	66 23       	and	r22, r22
    40f0:	8b e2       	ldi	r24, 0x2B	; 43
    40f2:	0a f4       	brpl	.+2      	; 0x40f6 <DecNumRestart+0x5c>
    40f4:	8d e2       	ldi	r24, 0x2D	; 45
    40f6:	82 93       	st	-Z, r24
    40f8:	53 95       	inc	r21
    40fa:	75 1b       	sub	r23, r21
    40fc:	27 2f       	mov	r18, r23
    40fe:	23 1b       	sub	r18, r19
    4100:	af 89       	ldd	r26, Y+23	; 0x17
    4102:	af 30       	cpi	r26, 0x0F	; 15
    4104:	59 f1       	breq	.+86     	; 0x415c <DecNum3>
    4106:	a2 17       	cp	r26, r18
    4108:	4c f5       	brge	.+82     	; 0x415c <DecNum3>
    410a:	2a 2f       	mov	r18, r26
    410c:	27 c0       	rjmp	.+78     	; 0x415c <DecNum3>

0000410e <DecNum2>:
    410e:	38 2f       	mov	r19, r24
    4110:	af ef       	ldi	r26, 0xFF	; 255
    4112:	3c 3e       	cpi	r19, 0xEC	; 236
    4114:	9a 07       	cpc	r25, r26
    4116:	0c f4       	brge	.+2      	; 0x411a <DecNum2+0xc>
    4118:	3c ee       	ldi	r19, 0xEC	; 236
    411a:	33 95       	inc	r19
    411c:	0a f0       	brmi	.+2      	; 0x4120 <DecNum2+0x12>
    411e:	61 f4       	brne	.+24     	; 0x4138 <DecNum2+0x2a>
    4120:	43 2f       	mov	r20, r19
    4122:	41 95       	neg	r20
    4124:	33 27       	eor	r19, r19
    4126:	28 8d       	ldd	r18, Y+24	; 0x18
    4128:	2a 95       	dec	r18
    412a:	21 95       	neg	r18
    412c:	af ef       	ldi	r26, 0xFF	; 255
    412e:	82 17       	cp	r24, r18
    4130:	9a 07       	cpc	r25, r26
    4132:	14 f4       	brge	.+4      	; 0x4138 <DecNum2+0x2a>
    4134:	48 8d       	ldd	r20, Y+24	; 0x18
    4136:	4a 95       	dec	r20
    4138:	27 2f       	mov	r18, r23
    413a:	23 1b       	sub	r18, r19
    413c:	24 1b       	sub	r18, r20
    413e:	12 f4       	brpl	.+4      	; 0x4144 <DecNum2+0x36>
    4140:	42 0f       	add	r20, r18
    4142:	22 27       	eor	r18, r18
    4144:	24 0f       	add	r18, r20
    4146:	af 89       	ldd	r26, Y+23	; 0x17
    4148:	af 30       	cpi	r26, 0x0F	; 15
    414a:	41 f0       	breq	.+16     	; 0x415c <DecNum3>
    414c:	a4 17       	cp	r26, r20
    414e:	0c f4       	brge	.+2      	; 0x4152 <DecNum2+0x44>
    4150:	4a 2f       	mov	r20, r26
    4152:	24 0f       	add	r18, r20
    4154:	a2 17       	cp	r26, r18
    4156:	0c f4       	brge	.+2      	; 0x415a <DecNum2+0x4c>
    4158:	2a 2f       	mov	r18, r26
    415a:	24 1b       	sub	r18, r20

0000415c <DecNum3>:
    415c:	5e 8b       	std	Y+22, r21	; 0x16
    415e:	a8 8d       	ldd	r26, Y+24	; 0x18
    4160:	a2 50       	subi	r26, 0x02	; 2
    4162:	a5 1b       	sub	r26, r21
    4164:	a3 1b       	sub	r26, r19
    4166:	12 f4       	brpl	.+4      	; 0x416c <DecNum3+0x10>
    4168:	3a 0f       	add	r19, r26
    416a:	aa 27       	eor	r26, r26
    416c:	a4 1b       	sub	r26, r20
    416e:	12 f4       	brpl	.+4      	; 0x4174 <DecNum3+0x18>
    4170:	4a 0f       	add	r20, r26
    4172:	aa 27       	eor	r26, r26
    4174:	a2 1b       	sub	r26, r18
    4176:	0a f4       	brpl	.+2      	; 0x417a <DecNum3+0x1e>
    4178:	2a 0f       	add	r18, r26
    417a:	73 2f       	mov	r23, r19
    417c:	72 0f       	add	r23, r18
    417e:	76 31       	cpi	r23, 0x16	; 22
    4180:	28 f4       	brcc	.+10     	; 0x418c <DecNum21>
    4182:	86 d5       	rcall	.+2828   	; 0x4c90 <CalcTopCheck>
    4184:	19 f0       	breq	.+6      	; 0x418c <DecNum21>
    4186:	0e 94 28 0c 	call	0x1850	; 0x1850 <FlagTestResDec>
    418a:	09 f0       	breq	.+2      	; 0x418e <DecNum22>

0000418c <DecNum21>:
    418c:	81 c0       	rjmp	.+258    	; 0x4290 <DecNum34>

0000418e <DecNum22>:
    418e:	2f 93       	push	r18
    4190:	4f 93       	push	r20
    4192:	5f 93       	push	r21
    4194:	7f 93       	push	r23
    4196:	3f 93       	push	r19
    4198:	8e 8d       	ldd	r24, Y+30	; 0x1e
    419a:	80 30       	cpi	r24, 0x00	; 0
    419c:	39 f5       	brne	.+78     	; 0x41ec <DecNum23>
    419e:	8a e0       	ldi	r24, 0x0A	; 10
    41a0:	78 9f       	mul	r23, r24
    41a2:	f0 01       	movw	r30, r0
    41a4:	11 24       	eor	r1, r1
    41a6:	ee 51       	subi	r30, 0x1E	; 30
    41a8:	fd 4f       	sbci	r31, 0xFD	; 253
    41aa:	73 d4       	rcall	.+2278   	; 0x4a92 <CalcConstROM>
    41ac:	0e 94 6e 27 	call	0x4edc	; 0x4edc <CalcAdd>
    41b0:	0e 94 05 29 	call	0x520a	; 0x520a <CalcDup>
    41b4:	86 e0       	ldi	r24, 0x06	; 6
    41b6:	60 d4       	rcall	.+2240   	; 0x4a78 <CalcConst>
    41b8:	82 e3       	ldi	r24, 0x32	; 50
    41ba:	e3 d2       	rcall	.+1478   	; 0x4782 <CalcCmp>
    41bc:	0e 94 59 2a 	call	0x54b2	; 0x54b2 <CalcUnstackB>
    41c0:	88 23       	and	r24, r24
    41c2:	99 f0       	breq	.+38     	; 0x41ea <DecNum224>
    41c4:	87 e0       	ldi	r24, 0x07	; 7
    41c6:	58 d4       	rcall	.+2224   	; 0x4a78 <CalcConst>
    41c8:	b6 d5       	rcall	.+2924   	; 0x4d36 <CalcMul>

000041ca <DecNum222>:
    41ca:	92 de       	rcall	.-732    	; 0x3ef0 <Split_IncExp>
    41cc:	0e 94 c0 0b 	call	0x1780	; 0x1780 <FlagSetResDec>
    41d0:	0e 94 22 0c 	call	0x1844	; 0x1844 <FlagTestEng>
    41d4:	51 f0       	breq	.+20     	; 0x41ea <DecNum224>
    41d6:	3f 91       	pop	r19
    41d8:	33 95       	inc	r19
    41da:	84 de       	rcall	.-760    	; 0x3ee4 <Split_DecExp>
    41dc:	34 30       	cpi	r19, 0x04	; 4
    41de:	20 f0       	brcs	.+8      	; 0x41e8 <DecNum222+0x1e>
    41e0:	33 50       	subi	r19, 0x03	; 3
    41e2:	86 de       	rcall	.-756    	; 0x3ef0 <Split_IncExp>
    41e4:	85 de       	rcall	.-758    	; 0x3ef0 <Split_IncExp>
    41e6:	84 de       	rcall	.-760    	; 0x3ef0 <Split_IncExp>
    41e8:	3f 93       	push	r19

000041ea <DecNum224>:
    41ea:	49 c0       	rjmp	.+146    	; 0x427e <DecNum28>

000041ec <DecNum23>:
    41ec:	83 30       	cpi	r24, 0x03	; 3
    41ee:	91 f4       	brne	.+36     	; 0x4214 <DecNum24>
    41f0:	80 e0       	ldi	r24, 0x00	; 0
    41f2:	42 d4       	rcall	.+2180   	; 0x4a78 <CalcConst>
    41f4:	4d d5       	rcall	.+2714   	; 0x4c90 <CalcTopCheck>
    41f6:	77 0f       	add	r23, r23
    41f8:	77 0f       	add	r23, r23
    41fa:	83 e0       	ldi	r24, 0x03	; 3
    41fc:	90 e8       	ldi	r25, 0x80	; 128
    41fe:	87 1b       	sub	r24, r23
    4200:	91 09       	sbc	r25, r1
    4202:	90 83       	st	Z, r25
    4204:	81 83       	std	Z+1, r24	; 0x01
    4206:	0e 94 6e 27 	call	0x4edc	; 0x4edc <CalcAdd>
    420a:	42 d5       	rcall	.+2692   	; 0x4c90 <CalcTopCheck>
    420c:	84 30       	cpi	r24, 0x04	; 4
    420e:	b8 f1       	brcs	.+110    	; 0x427e <DecNum28>
    4210:	cb d5       	rcall	.+2966   	; 0x4da8 <CalcDiv16>
    4212:	24 c0       	rjmp	.+72     	; 0x425c <DecNum252>

00004214 <DecNum24>:
    4214:	82 30       	cpi	r24, 0x02	; 2
    4216:	99 f4       	brne	.+38     	; 0x423e <DecNum25>
    4218:	80 e0       	ldi	r24, 0x00	; 0
    421a:	2e d4       	rcall	.+2140   	; 0x4a78 <CalcConst>
    421c:	39 d5       	rcall	.+2674   	; 0x4c90 <CalcTopCheck>
    421e:	87 2f       	mov	r24, r23
    4220:	77 0f       	add	r23, r23
    4222:	78 0f       	add	r23, r24
    4224:	82 e0       	ldi	r24, 0x02	; 2
    4226:	90 e8       	ldi	r25, 0x80	; 128
    4228:	87 1b       	sub	r24, r23
    422a:	91 09       	sbc	r25, r1
    422c:	90 83       	st	Z, r25
    422e:	81 83       	std	Z+1, r24	; 0x01
    4230:	0e 94 6e 27 	call	0x4edc	; 0x4edc <CalcAdd>
    4234:	2d d5       	rcall	.+2650   	; 0x4c90 <CalcTopCheck>
    4236:	83 30       	cpi	r24, 0x03	; 3
    4238:	10 f1       	brcs	.+68     	; 0x427e <DecNum28>
    423a:	b7 d5       	rcall	.+2926   	; 0x4daa <CalcDiv8>
    423c:	c6 cf       	rjmp	.-116    	; 0x41ca <DecNum222>

0000423e <DecNum25>:
    423e:	80 e0       	ldi	r24, 0x00	; 0
    4240:	1b d4       	rcall	.+2102   	; 0x4a78 <CalcConst>
    4242:	26 d5       	rcall	.+2636   	; 0x4c90 <CalcTopCheck>
    4244:	80 e0       	ldi	r24, 0x00	; 0
    4246:	90 e8       	ldi	r25, 0x80	; 128
    4248:	87 1b       	sub	r24, r23
    424a:	91 09       	sbc	r25, r1
    424c:	90 83       	st	Z, r25
    424e:	81 83       	std	Z+1, r24	; 0x01
    4250:	0e 94 6e 27 	call	0x4edc	; 0x4edc <CalcAdd>
    4254:	1d d5       	rcall	.+2618   	; 0x4c90 <CalcTopCheck>
    4256:	81 30       	cpi	r24, 0x01	; 1
    4258:	90 f0       	brcs	.+36     	; 0x427e <DecNum28>
    425a:	a9 d5       	rcall	.+2898   	; 0x4dae <CalcDiv2>

0000425c <DecNum252>:
    425c:	49 de       	rcall	.-878    	; 0x3ef0 <Split_IncExp>
    425e:	0e 94 c0 0b 	call	0x1780	; 0x1780 <FlagSetResDec>
    4262:	0e 94 22 0c 	call	0x1844	; 0x1844 <FlagTestEng>
    4266:	59 f0       	breq	.+22     	; 0x427e <DecNum28>
    4268:	3f 91       	pop	r19
    426a:	33 95       	inc	r19
    426c:	3b de       	rcall	.-906    	; 0x3ee4 <Split_DecExp>
    426e:	35 30       	cpi	r19, 0x05	; 5
    4270:	28 f0       	brcs	.+10     	; 0x427c <DecNum252+0x20>
    4272:	34 50       	subi	r19, 0x04	; 4
    4274:	3d de       	rcall	.-902    	; 0x3ef0 <Split_IncExp>
    4276:	3c de       	rcall	.-904    	; 0x3ef0 <Split_IncExp>
    4278:	3b de       	rcall	.-906    	; 0x3ef0 <Split_IncExp>
    427a:	3a de       	rcall	.-908    	; 0x3ef0 <Split_IncExp>
    427c:	3f 93       	push	r19

0000427e <DecNum28>:
    427e:	3f 91       	pop	r19
    4280:	7f 91       	pop	r23
    4282:	5f 91       	pop	r21
    4284:	4f 91       	pop	r20
    4286:	2f 91       	pop	r18
    4288:	0e 94 28 0c 	call	0x1850	; 0x1850 <FlagTestResDec>
    428c:	09 f0       	breq	.+2      	; 0x4290 <DecNum34>
    428e:	05 cf       	rjmp	.-502    	; 0x409a <DecNumRestart>

00004290 <DecNum34>:
    4290:	0e 94 c3 0b 	call	0x1786	; 0x1786 <FlagSetDP>
    4294:	aa e2       	ldi	r26, 0x2A	; 42
    4296:	b1 e0       	ldi	r27, 0x01	; 1
    4298:	33 23       	and	r19, r19
    429a:	11 f4       	brne	.+4      	; 0x42a0 <DecNum34+0x10>
    429c:	8e e2       	ldi	r24, 0x2E	; 46
    429e:	8d 93       	st	X+, r24
    42a0:	44 23       	and	r20, r20
    42a2:	21 f0       	breq	.+8      	; 0x42ac <DecNum36>
    42a4:	80 e3       	ldi	r24, 0x30	; 48
    42a6:	8d 93       	st	X+, r24
    42a8:	4a 95       	dec	r20
    42aa:	e9 f7       	brne	.-6      	; 0x42a6 <DecNum34+0x16>

000042ac <DecNum36>:
    42ac:	77 23       	and	r23, r23
    42ae:	a9 f1       	breq	.+106    	; 0x431a <DecNum4>
    42b0:	7f 93       	push	r23
    42b2:	3f 93       	push	r19
    42b4:	2f 93       	push	r18
    42b6:	af 93       	push	r26
    42b8:	bf 93       	push	r27
    42ba:	a7 d7       	rcall	.+3918   	; 0x520a <CalcDup>
    42bc:	0e 94 59 2a 	call	0x54b2	; 0x54b2 <CalcUnstackB>
    42c0:	78 2f       	mov	r23, r24
    42c2:	8a 30       	cpi	r24, 0x0A	; 10
    42c4:	08 f0       	brcs	.+2      	; 0x42c8 <DecNum36+0x1c>
    42c6:	89 5f       	subi	r24, 0xF9	; 249
    42c8:	80 5d       	subi	r24, 0xD0	; 208
    42ca:	0e 94 34 0c 	call	0x1868	; 0x1868 <FlagTestErrDec>
    42ce:	09 f0       	breq	.+2      	; 0x42d2 <DecNum36+0x26>
    42d0:	89 e3       	ldi	r24, 0x39	; 57
    42d2:	bf 91       	pop	r27
    42d4:	af 91       	pop	r26
    42d6:	8d 93       	st	X+, r24
    42d8:	af 93       	push	r26
    42da:	bf 93       	push	r27
    42dc:	87 2f       	mov	r24, r23
    42de:	0e 94 13 2a 	call	0x5426	; 0x5426 <CalcStackB>
    42e2:	fb d5       	rcall	.+3062   	; 0x4eda <CalcSub>
    42e4:	8e 8d       	ldd	r24, Y+30	; 0x1e
    42e6:	80 30       	cpi	r24, 0x00	; 0
    42e8:	21 f4       	brne	.+8      	; 0x42f2 <DecNum36+0x46>
    42ea:	86 e0       	ldi	r24, 0x06	; 6
    42ec:	c5 d3       	rcall	.+1930   	; 0x4a78 <CalcConst>
    42ee:	23 d5       	rcall	.+2630   	; 0x4d36 <CalcMul>
    42f0:	09 c0       	rjmp	.+18     	; 0x4304 <DecNum36+0x58>
    42f2:	82 30       	cpi	r24, 0x02	; 2
    42f4:	11 f4       	brne	.+4      	; 0x42fa <DecNum36+0x4e>
    42f6:	63 d5       	rcall	.+2758   	; 0x4dbe <CalcMul8>
    42f8:	05 c0       	rjmp	.+10     	; 0x4304 <DecNum36+0x58>
    42fa:	83 30       	cpi	r24, 0x03	; 3
    42fc:	11 f4       	brne	.+4      	; 0x4302 <DecNum36+0x56>
    42fe:	5e d5       	rcall	.+2748   	; 0x4dbc <CalcMul16>
    4300:	01 c0       	rjmp	.+2      	; 0x4304 <DecNum36+0x58>
    4302:	5f d5       	rcall	.+2750   	; 0x4dc2 <CalcMul2>
    4304:	bf 91       	pop	r27
    4306:	af 91       	pop	r26
    4308:	2f 91       	pop	r18
    430a:	3f 91       	pop	r19
    430c:	7f 91       	pop	r23
    430e:	3a 95       	dec	r19
    4310:	11 f4       	brne	.+4      	; 0x4316 <DecNum36+0x6a>
    4312:	8e e2       	ldi	r24, 0x2E	; 46
    4314:	8d 93       	st	X+, r24
    4316:	7a 95       	dec	r23
    4318:	59 f6       	brne	.-106    	; 0x42b0 <DecNum36+0x4>

0000431a <DecNum4>:
    431a:	8f 89       	ldd	r24, Y+23	; 0x17
    431c:	8f 30       	cpi	r24, 0x0F	; 15
    431e:	91 f4       	brne	.+36     	; 0x4344 <DecNum6>
    4320:	22 23       	and	r18, r18
    4322:	39 f0       	breq	.+14     	; 0x4332 <DecNum4+0x18>
    4324:	8e 91       	ld	r24, -X
    4326:	80 33       	cpi	r24, 0x30	; 48
    4328:	29 f4       	brne	.+10     	; 0x4334 <DecNum4+0x1a>
    432a:	80 e2       	ldi	r24, 0x20	; 32
    432c:	8c 93       	st	X, r24
    432e:	2a 95       	dec	r18
    4330:	c9 f7       	brne	.-14     	; 0x4324 <DecNum4+0xa>
    4332:	8e 91       	ld	r24, -X
    4334:	8e 32       	cpi	r24, 0x2E	; 46
    4336:	29 f4       	brne	.+10     	; 0x4342 <DecNum4+0x28>
    4338:	80 e2       	ldi	r24, 0x20	; 32
    433a:	8c 93       	st	X, r24
    433c:	0e 94 f6 0b 	call	0x17ec	; 0x17ec <FlagClrDP>
    4340:	01 c0       	rjmp	.+2      	; 0x4344 <DecNum6>
    4342:	11 96       	adiw	r26, 0x01	; 1

00004344 <DecNum6>:
    4344:	8a 2f       	mov	r24, r26
    4346:	89 52       	subi	r24, 0x29	; 41
    4348:	8d 8b       	std	Y+21, r24	; 0x15
    434a:	48 8d       	ldd	r20, Y+24	; 0x18
    434c:	9e 89       	ldd	r25, Y+22	; 0x16
    434e:	49 1b       	sub	r20, r25
    4350:	84 17       	cp	r24, r20
    4352:	b8 f4       	brcc	.+46     	; 0x4382 <DecNum8>
    4354:	e9 e2       	ldi	r30, 0x29	; 41
    4356:	f1 e0       	ldi	r31, 0x01	; 1
    4358:	e4 0f       	add	r30, r20
    435a:	f1 1d       	adc	r31, r1
    435c:	48 1b       	sub	r20, r24
    435e:	9e 91       	ld	r25, -X
    4360:	92 93       	st	-Z, r25
    4362:	8a 95       	dec	r24
    4364:	e1 f7       	brne	.-8      	; 0x435e <DecNum6+0x1a>
    4366:	81 81       	ldd	r24, Z+1	; 0x01
    4368:	80 32       	cpi	r24, 0x20	; 32
    436a:	11 f0       	breq	.+4      	; 0x4370 <DecNum6+0x2c>
    436c:	8e 32       	cpi	r24, 0x2E	; 46
    436e:	29 f4       	brne	.+10     	; 0x437a <DecNum6+0x36>
    4370:	80 e3       	ldi	r24, 0x30	; 48
    4372:	80 83       	st	Z, r24
    4374:	92 93       	st	-Z, r25
    4376:	4a 95       	dec	r20
    4378:	21 f0       	breq	.+8      	; 0x4382 <DecNum8>
    437a:	80 e2       	ldi	r24, 0x20	; 32
    437c:	82 93       	st	-Z, r24
    437e:	4a 95       	dec	r20
    4380:	e9 f7       	brne	.-6      	; 0x437c <DecNum6+0x38>

00004382 <DecNum8>:
    4382:	e8 8d       	ldd	r30, Y+24	; 0x18
    4384:	ff 27       	eor	r31, r31
    4386:	e7 5d       	subi	r30, 0xD7	; 215
    4388:	fe 4f       	sbci	r31, 0xFE	; 254
    438a:	10 82       	st	Z, r1
    438c:	0e 94 3c 0c 	call	0x1878	; 0x1878 <FlagTestOldErr>
    4390:	09 f4       	brne	.+2      	; 0x4394 <DecNum8+0x12>
    4392:	f4 98       	cbi	0x1e, 4	; 30
    4394:	0e 94 42 0c 	call	0x1884	; 0x1884 <FlagTestOldRun>
    4398:	09 f0       	breq	.+2      	; 0x439c <DecNum8+0x1a>
    439a:	f2 9a       	sbi	0x1e, 2	; 30
    439c:	16 c7       	rjmp	.+3628   	; 0x51ca <CalcDel>

0000439e <EncNum>:
    439e:	8c d4       	rcall	.+2328   	; 0x4cb8 <CalcNew>
    43a0:	07 d2       	rcall	.+1038   	; 0x47b0 <CalcZ0>
    43a2:	81 e0       	ldi	r24, 0x01	; 1
    43a4:	69 d3       	rcall	.+1746   	; 0x4a78 <CalcConst>
    43a6:	84 e0       	ldi	r24, 0x04	; 4
    43a8:	9e d4       	rcall	.+2364   	; 0x4ce6 <CalcSetMemDel>
    43aa:	9d 89       	ldd	r25, Y+21	; 0x15
    43ac:	8e 89       	ldd	r24, Y+22	; 0x16
    43ae:	89 0f       	add	r24, r25
    43b0:	e9 e3       	ldi	r30, 0x39	; 57
    43b2:	f1 e0       	ldi	r31, 0x01	; 1
    43b4:	e8 1b       	sub	r30, r24
    43b6:	f1 09       	sbc	r31, r1
    43b8:	81 91       	ld	r24, Z+
    43ba:	80 32       	cpi	r24, 0x20	; 32
    43bc:	29 f0       	breq	.+10     	; 0x43c8 <EncNum+0x2a>
    43be:	8d 32       	cpi	r24, 0x2D	; 45
    43c0:	19 f0       	breq	.+6      	; 0x43c8 <EncNum+0x2a>
    43c2:	80 e2       	ldi	r24, 0x20	; 32
    43c4:	31 97       	sbiw	r30, 0x01	; 1
    43c6:	93 95       	inc	r25
    43c8:	8f 93       	push	r24
    43ca:	9a 95       	dec	r25
    43cc:	9f 93       	push	r25
    43ce:	81 91       	ld	r24, Z+
    43d0:	8e 32       	cpi	r24, 0x2E	; 46
    43d2:	09 f4       	brne	.+2      	; 0x43d6 <EncNum+0x38>
    43d4:	4e c0       	rjmp	.+156    	; 0x4472 <EncNum3>
    43d6:	8f 93       	push	r24
    43d8:	ef 93       	push	r30
    43da:	ff 93       	push	r31
    43dc:	9e 8d       	ldd	r25, Y+30	; 0x1e
    43de:	90 30       	cpi	r25, 0x00	; 0
    43e0:	21 f4       	brne	.+8      	; 0x43ea <EncNum+0x4c>
    43e2:	86 e0       	ldi	r24, 0x06	; 6
    43e4:	49 d3       	rcall	.+1682   	; 0x4a78 <CalcConst>
    43e6:	a7 d4       	rcall	.+2382   	; 0x4d36 <CalcMul>
    43e8:	09 c0       	rjmp	.+18     	; 0x43fc <EncNum+0x5e>
    43ea:	93 30       	cpi	r25, 0x03	; 3
    43ec:	11 f4       	brne	.+4      	; 0x43f2 <EncNum+0x54>
    43ee:	e6 d4       	rcall	.+2508   	; 0x4dbc <CalcMul16>
    43f0:	05 c0       	rjmp	.+10     	; 0x43fc <EncNum+0x5e>
    43f2:	92 30       	cpi	r25, 0x02	; 2
    43f4:	11 f4       	brne	.+4      	; 0x43fa <EncNum+0x5c>
    43f6:	e3 d4       	rcall	.+2502   	; 0x4dbe <CalcMul8>
    43f8:	01 c0       	rjmp	.+2      	; 0x43fc <EncNum+0x5e>
    43fa:	e3 d4       	rcall	.+2502   	; 0x4dc2 <CalcMul2>
    43fc:	ff 91       	pop	r31
    43fe:	ef 91       	pop	r30
    4400:	8f 91       	pop	r24
    4402:	80 53       	subi	r24, 0x30	; 48
    4404:	8a 30       	cpi	r24, 0x0A	; 10
    4406:	08 f0       	brcs	.+2      	; 0x440a <EncNum+0x6c>
    4408:	87 50       	subi	r24, 0x07	; 7
    440a:	ef 93       	push	r30
    440c:	ff 93       	push	r31
    440e:	0e 94 13 2a 	call	0x5426	; 0x5426 <CalcStackB>
    4412:	0e 94 6e 27 	call	0x4edc	; 0x4edc <CalcAdd>
    4416:	ff 91       	pop	r31
    4418:	ef 91       	pop	r30
    441a:	9f 91       	pop	r25
    441c:	9a 95       	dec	r25
    441e:	b1 f6       	brne	.-84     	; 0x43cc <EncNum+0x2e>
    4420:	2b c0       	rjmp	.+86     	; 0x4478 <EncNum4>
    4422:	9f 93       	push	r25
    4424:	ef 93       	push	r30
    4426:	ff 93       	push	r31
    4428:	84 e0       	ldi	r24, 0x04	; 4
    442a:	0e 94 75 26 	call	0x4cea	; 0x4cea <CalcGetMem>
    442e:	9e 8d       	ldd	r25, Y+30	; 0x1e
    4430:	90 30       	cpi	r25, 0x00	; 0
    4432:	21 f4       	brne	.+8      	; 0x443c <EncNum+0x9e>
    4434:	87 e0       	ldi	r24, 0x07	; 7
    4436:	20 d3       	rcall	.+1600   	; 0x4a78 <CalcConst>
    4438:	7e d4       	rcall	.+2300   	; 0x4d36 <CalcMul>
    443a:	09 c0       	rjmp	.+18     	; 0x444e <EncNum+0xb0>
    443c:	93 30       	cpi	r25, 0x03	; 3
    443e:	11 f4       	brne	.+4      	; 0x4444 <EncNum+0xa6>
    4440:	b3 d4       	rcall	.+2406   	; 0x4da8 <CalcDiv16>
    4442:	05 c0       	rjmp	.+10     	; 0x444e <EncNum+0xb0>
    4444:	92 30       	cpi	r25, 0x02	; 2
    4446:	11 f4       	brne	.+4      	; 0x444c <EncNum+0xae>
    4448:	b0 d4       	rcall	.+2400   	; 0x4daa <CalcDiv8>
    444a:	01 c0       	rjmp	.+2      	; 0x444e <EncNum+0xb0>
    444c:	b0 d4       	rcall	.+2400   	; 0x4dae <CalcDiv2>
    444e:	84 e0       	ldi	r24, 0x04	; 4
    4450:	46 d4       	rcall	.+2188   	; 0x4cde <CalcSetMem>
    4452:	ff 91       	pop	r31
    4454:	ef 91       	pop	r30
    4456:	81 91       	ld	r24, Z+
    4458:	80 53       	subi	r24, 0x30	; 48
    445a:	8a 30       	cpi	r24, 0x0A	; 10
    445c:	08 f0       	brcs	.+2      	; 0x4460 <EncNum+0xc2>
    445e:	87 50       	subi	r24, 0x07	; 7
    4460:	ef 93       	push	r30
    4462:	ff 93       	push	r31
    4464:	0e 94 13 2a 	call	0x5426	; 0x5426 <CalcStackB>
    4468:	66 d4       	rcall	.+2252   	; 0x4d36 <CalcMul>
    446a:	0e 94 6e 27 	call	0x4edc	; 0x4edc <CalcAdd>
    446e:	ff 91       	pop	r31
    4470:	ef 91       	pop	r30

00004472 <EncNum3>:
    4472:	9f 91       	pop	r25
    4474:	9a 95       	dec	r25
    4476:	a9 f6       	brne	.-86     	; 0x4422 <EncNum+0x84>

00004478 <EncNum4>:
    4478:	8f 91       	pop	r24
    447a:	8d 32       	cpi	r24, 0x2D	; 45
    447c:	29 f4       	brne	.+10     	; 0x4488 <EncNum5>
    447e:	ef 93       	push	r30
    4480:	ff 93       	push	r31
    4482:	c1 d1       	rcall	.+898    	; 0x4806 <CalcNeg>
    4484:	ff 91       	pop	r31
    4486:	ef 91       	pop	r30

00004488 <EncNum5>:
    4488:	6e 89       	ldd	r22, Y+22	; 0x16
    448a:	66 23       	and	r22, r22
    448c:	31 f1       	breq	.+76     	; 0x44da <EncNum7>
    448e:	71 91       	ld	r23, Z+
    4490:	7f 93       	push	r23
    4492:	6a 95       	dec	r22
    4494:	99 27       	eor	r25, r25
    4496:	88 27       	eor	r24, r24
    4498:	80 d0       	rcall	.+256    	; 0x459a <MulW10>
    449a:	51 91       	ld	r21, Z+
    449c:	50 53       	subi	r21, 0x30	; 48
    449e:	85 0f       	add	r24, r21
    44a0:	91 1d       	adc	r25, r1
    44a2:	6a 95       	dec	r22
    44a4:	c9 f7       	brne	.-14     	; 0x4498 <EncNum5+0x10>
    44a6:	6e 8d       	ldd	r22, Y+30	; 0x1e
    44a8:	60 30       	cpi	r22, 0x00	; 0
    44aa:	c1 f0       	breq	.+48     	; 0x44dc <EncNum8>
    44ac:	63 30       	cpi	r22, 0x03	; 3
    44ae:	21 f4       	brne	.+8      	; 0x44b8 <EncNum5+0x30>
    44b0:	88 0f       	add	r24, r24
    44b2:	99 1f       	adc	r25, r25
    44b4:	88 0f       	add	r24, r24
    44b6:	99 1f       	adc	r25, r25
    44b8:	62 30       	cpi	r22, 0x02	; 2
    44ba:	29 f4       	brne	.+10     	; 0x44c6 <EncNum5+0x3e>
    44bc:	bc 01       	movw	r22, r24
    44be:	88 0f       	add	r24, r24
    44c0:	99 1f       	adc	r25, r25
    44c2:	86 0f       	add	r24, r22
    44c4:	97 1f       	adc	r25, r23
    44c6:	5f 91       	pop	r21
    44c8:	5d 32       	cpi	r21, 0x2D	; 45
    44ca:	09 f4       	brne	.+2      	; 0x44ce <EncNum5+0x46>
    44cc:	27 d0       	rcall	.+78     	; 0x451c <NegW>
    44ce:	bc 01       	movw	r22, r24
    44d0:	df d3       	rcall	.+1982   	; 0x4c90 <CalcTopCheck>
    44d2:	86 0f       	add	r24, r22
    44d4:	97 1f       	adc	r25, r23
    44d6:	90 83       	st	Z, r25
    44d8:	81 83       	std	Z+1, r24	; 0x01

000044da <EncNum7>:
    44da:	08 95       	ret

000044dc <EncNum8>:
    44dc:	ec e4       	ldi	r30, 0x4C	; 76
    44de:	f2 e0       	ldi	r31, 0x02	; 2
    44e0:	66 ef       	ldi	r22, 0xF6	; 246
    44e2:	7f ef       	ldi	r23, 0xFF	; 255
    44e4:	5f 91       	pop	r21
    44e6:	5d 32       	cpi	r21, 0x2D	; 45
    44e8:	11 f0       	breq	.+4      	; 0x44ee <EncNum8+0x12>
    44ea:	6a e0       	ldi	r22, 0x0A	; 10
    44ec:	70 e0       	ldi	r23, 0x00	; 0
    44ee:	e6 0f       	add	r30, r22
    44f0:	f7 1f       	adc	r31, r23
    44f2:	96 95       	lsr	r25
    44f4:	87 95       	ror	r24
    44f6:	70 f4       	brcc	.+28     	; 0x4514 <EncNum8+0x38>
    44f8:	6f 93       	push	r22
    44fa:	7f 93       	push	r23
    44fc:	8f 93       	push	r24
    44fe:	9f 93       	push	r25
    4500:	ef 93       	push	r30
    4502:	ff 93       	push	r31
    4504:	c6 d2       	rcall	.+1420   	; 0x4a92 <CalcConstROM>
    4506:	17 d4       	rcall	.+2094   	; 0x4d36 <CalcMul>
    4508:	ff 91       	pop	r31
    450a:	ef 91       	pop	r30
    450c:	9f 91       	pop	r25
    450e:	8f 91       	pop	r24
    4510:	7f 91       	pop	r23
    4512:	6f 91       	pop	r22
    4514:	a8 2f       	mov	r26, r24
    4516:	a9 2b       	or	r26, r25
    4518:	51 f7       	brne	.-44     	; 0x44ee <EncNum8+0x12>

0000451a <EncNum9>:
    451a:	08 95       	ret

0000451c <NegW>:
    451c:	90 95       	com	r25
    451e:	81 95       	neg	r24
    4520:	9f 4f       	sbci	r25, 0xFF	; 255
    4522:	08 95       	ret

00004524 <DivB10>:
    4524:	08 2e       	mov	r0, r24
    4526:	8d ec       	ldi	r24, 0xCD	; 205
    4528:	08 9e       	mul	r0, r24
    452a:	81 2d       	mov	r24, r1
    452c:	86 95       	lsr	r24
    452e:	86 95       	lsr	r24
    4530:	86 95       	lsr	r24
    4532:	11 24       	eor	r1, r1
    4534:	08 95       	ret

00004536 <MulDWW>:
    4536:	af 93       	push	r26
    4538:	bf 93       	push	r27
    453a:	ef 93       	push	r30
    453c:	ff 93       	push	r31
    453e:	86 9f       	mul	r24, r22
    4540:	d0 01       	movw	r26, r0
    4542:	97 9f       	mul	r25, r23
    4544:	f0 01       	movw	r30, r0
    4546:	69 9f       	mul	r22, r25
    4548:	99 27       	eor	r25, r25
    454a:	b0 0d       	add	r27, r0
    454c:	e1 1d       	adc	r30, r1
    454e:	f9 1f       	adc	r31, r25
    4550:	78 9f       	mul	r23, r24
    4552:	b0 0d       	add	r27, r0
    4554:	e1 1d       	adc	r30, r1
    4556:	f9 1f       	adc	r31, r25
    4558:	bd 01       	movw	r22, r26
    455a:	cf 01       	movw	r24, r30
    455c:	11 24       	eor	r1, r1
    455e:	ff 91       	pop	r31
    4560:	ef 91       	pop	r30
    4562:	bf 91       	pop	r27
    4564:	af 91       	pop	r26
    4566:	08 95       	ret

00004568 <ShrW2>:
    4568:	96 95       	lsr	r25
    456a:	87 95       	ror	r24

0000456c <ShrW>:
    456c:	6a 95       	dec	r22
    456e:	e2 f7       	brpl	.-8      	; 0x4568 <ShrW2>
    4570:	08 95       	ret

00004572 <DivW10>:
    4572:	6f 93       	push	r22
    4574:	7f 93       	push	r23
    4576:	6d ec       	ldi	r22, 0xCD	; 205
    4578:	7c ec       	ldi	r23, 0xCC	; 204
    457a:	dd df       	rcall	.-70     	; 0x4536 <MulDWW>
    457c:	63 e0       	ldi	r22, 0x03	; 3
    457e:	f6 df       	rcall	.-20     	; 0x456c <ShrW>
    4580:	7f 91       	pop	r23
    4582:	6f 91       	pop	r22
    4584:	08 95       	ret

00004586 <DivW100>:
    4586:	6f 93       	push	r22
    4588:	7f 93       	push	r23
    458a:	68 ed       	ldi	r22, 0xD8	; 216
    458c:	73 ea       	ldi	r23, 0xA3	; 163
    458e:	d3 df       	rcall	.-90     	; 0x4536 <MulDWW>
    4590:	66 e0       	ldi	r22, 0x06	; 6
    4592:	ec df       	rcall	.-40     	; 0x456c <ShrW>
    4594:	7f 91       	pop	r23
    4596:	6f 91       	pop	r22
    4598:	08 95       	ret

0000459a <MulW10>:
    459a:	6f 93       	push	r22
    459c:	6a e0       	ldi	r22, 0x0A	; 10
    459e:	02 d0       	rcall	.+4      	; 0x45a4 <MulWB>
    45a0:	6f 91       	pop	r22
    45a2:	08 95       	ret

000045a4 <MulWB>:
    45a4:	2f 93       	push	r18
    45a6:	3f 93       	push	r19
    45a8:	9c 01       	movw	r18, r24
    45aa:	62 9f       	mul	r22, r18
    45ac:	c0 01       	movw	r24, r0
    45ae:	63 9f       	mul	r22, r19
    45b0:	90 0d       	add	r25, r0
    45b2:	11 24       	eor	r1, r1
    45b4:	3f 91       	pop	r19
    45b6:	2f 91       	pop	r18
    45b8:	08 95       	ret

000045ba <MulMant>:
    45ba:	df 93       	push	r29
    45bc:	cf 93       	push	r28
    45be:	9f 93       	push	r25
    45c0:	8f 93       	push	r24
    45c2:	7f 93       	push	r23
    45c4:	6f 93       	push	r22
    45c6:	df 92       	push	r13
    45c8:	cf 92       	push	r12
    45ca:	3f 92       	push	r3
    45cc:	2f 92       	push	r2
    45ce:	f8 e0       	ldi	r31, 0x08	; 8
    45d0:	1f 2e       	mov	r1, r31
    45d2:	ff 27       	eor	r31, r31
    45d4:	ee 27       	eor	r30, r30
    45d6:	ef 01       	movw	r28, r30
    45d8:	df 01       	movw	r26, r30
    45da:	cf 01       	movw	r24, r30

000045dc <MulMant2>:
    45dc:	1f 92       	push	r1
    45de:	df 92       	push	r13
    45e0:	ea 9c       	mul	r14, r10
    45e2:	b0 01       	movw	r22, r0
    45e4:	e8 9c       	mul	r14, r8
    45e6:	60 01       	movw	r12, r0
    45e8:	e6 9c       	mul	r14, r6
    45ea:	10 01       	movw	r2, r0
    45ec:	e4 9c       	mul	r14, r4
    45ee:	80 0d       	add	r24, r0
    45f0:	91 1d       	adc	r25, r1
    45f2:	a2 1d       	adc	r26, r2
    45f4:	b3 1d       	adc	r27, r3
    45f6:	cc 1d       	adc	r28, r12
    45f8:	dd 1d       	adc	r29, r13
    45fa:	e6 1f       	adc	r30, r22
    45fc:	f7 1f       	adc	r31, r23
    45fe:	0f 90       	pop	r0
    4600:	8f 93       	push	r24
    4602:	89 2f       	mov	r24, r25
    4604:	9a 2f       	mov	r25, r26
    4606:	ab 2f       	mov	r26, r27
    4608:	bc 2f       	mov	r27, r28
    460a:	cd 2f       	mov	r28, r29
    460c:	de 2f       	mov	r29, r30
    460e:	ef 2f       	mov	r30, r31
    4610:	f0 e0       	ldi	r31, 0x00	; 0
    4612:	ff 1f       	adc	r31, r31
    4614:	eb 9c       	mul	r14, r11
    4616:	b0 01       	movw	r22, r0
    4618:	e9 9c       	mul	r14, r9
    461a:	60 01       	movw	r12, r0
    461c:	e7 9c       	mul	r14, r7
    461e:	10 01       	movw	r2, r0
    4620:	e5 9c       	mul	r14, r5
    4622:	80 0d       	add	r24, r0
    4624:	91 1d       	adc	r25, r1
    4626:	a2 1d       	adc	r26, r2
    4628:	b3 1d       	adc	r27, r3
    462a:	cc 1d       	adc	r28, r12
    462c:	dd 1d       	adc	r29, r13
    462e:	e6 1f       	adc	r30, r22
    4630:	f7 1f       	adc	r31, r23
    4632:	ef 2c       	mov	r14, r15
    4634:	f0 2e       	mov	r15, r16
    4636:	01 2f       	mov	r16, r17
    4638:	12 2f       	mov	r17, r18
    463a:	23 2f       	mov	r18, r19
    463c:	34 2f       	mov	r19, r20
    463e:	45 2f       	mov	r20, r21
    4640:	df 90       	pop	r13
    4642:	1f 90       	pop	r1
    4644:	1a 94       	dec	r1
    4646:	51 f6       	brne	.-108    	; 0x45dc <MulMant2>
    4648:	7c 01       	movw	r14, r24
    464a:	8d 01       	movw	r16, r26
    464c:	9e 01       	movw	r18, r28
    464e:	af 01       	movw	r20, r30
    4650:	2f 90       	pop	r2
    4652:	3f 90       	pop	r3
    4654:	cf 90       	pop	r12
    4656:	df 90       	pop	r13
    4658:	6f 91       	pop	r22
    465a:	7f 91       	pop	r23
    465c:	8f 91       	pop	r24
    465e:	9f 91       	pop	r25
    4660:	cf 91       	pop	r28
    4662:	df 91       	pop	r29
    4664:	08 95       	ret

00004666 <MulDD>:
    4666:	62 9f       	mul	r22, r18
    4668:	d0 01       	movw	r26, r0
    466a:	73 9f       	mul	r23, r19
    466c:	f0 01       	movw	r30, r0
    466e:	82 9f       	mul	r24, r18
    4670:	e0 0d       	add	r30, r0
    4672:	f1 1d       	adc	r31, r1
    4674:	64 9f       	mul	r22, r20
    4676:	e0 0d       	add	r30, r0
    4678:	f1 1d       	adc	r31, r1
    467a:	92 9f       	mul	r25, r18
    467c:	f0 0d       	add	r31, r0
    467e:	83 9f       	mul	r24, r19
    4680:	f0 0d       	add	r31, r0
    4682:	74 9f       	mul	r23, r20
    4684:	f0 0d       	add	r31, r0
    4686:	65 9f       	mul	r22, r21
    4688:	f0 0d       	add	r31, r0
    468a:	99 27       	eor	r25, r25
    468c:	72 9f       	mul	r23, r18
    468e:	b0 0d       	add	r27, r0
    4690:	e1 1d       	adc	r30, r1
    4692:	f9 1f       	adc	r31, r25
    4694:	63 9f       	mul	r22, r19
    4696:	b0 0d       	add	r27, r0
    4698:	e1 1d       	adc	r30, r1
    469a:	f9 1f       	adc	r31, r25
    469c:	bd 01       	movw	r22, r26
    469e:	cf 01       	movw	r24, r30
    46a0:	11 24       	eor	r1, r1
    46a2:	08 95       	ret

000046a4 <DivDWW>:
    46a4:	f0 e1       	ldi	r31, 0x10	; 16
    46a6:	66 0f       	add	r22, r22
    46a8:	77 1f       	adc	r23, r23

000046aa <DivDWW2>:
    46aa:	88 1f       	adc	r24, r24
    46ac:	99 1f       	adc	r25, r25
    46ae:	18 f0       	brcs	.+6      	; 0x46b6 <DivDWW3>
    46b0:	84 17       	cp	r24, r20
    46b2:	95 07       	cpc	r25, r21
    46b4:	18 f0       	brcs	.+6      	; 0x46bc <DivDWW4>

000046b6 <DivDWW3>:
    46b6:	84 1b       	sub	r24, r20
    46b8:	95 0b       	sbc	r25, r21
    46ba:	88 94       	clc

000046bc <DivDWW4>:
    46bc:	66 1f       	adc	r22, r22
    46be:	77 1f       	adc	r23, r23
    46c0:	fa 95       	dec	r31
    46c2:	99 f7       	brne	.-26     	; 0x46aa <DivDWW2>
    46c4:	60 95       	com	r22
    46c6:	70 95       	com	r23
    46c8:	cb 01       	movw	r24, r22
    46ca:	08 95       	ret

000046cc <DivD10>:
    46cc:	4a e0       	ldi	r20, 0x0A	; 10

000046ce <DivDB>:
    46ce:	f0 e2       	ldi	r31, 0x20	; 32
    46d0:	aa 1b       	sub	r26, r26
    46d2:	66 0f       	add	r22, r22
    46d4:	77 1f       	adc	r23, r23
    46d6:	88 1f       	adc	r24, r24
    46d8:	99 1f       	adc	r25, r25

000046da <DivDB2>:
    46da:	aa 1f       	adc	r26, r26
    46dc:	10 f0       	brcs	.+4      	; 0x46e2 <DivDB3>
    46de:	a4 17       	cp	r26, r20
    46e0:	10 f0       	brcs	.+4      	; 0x46e6 <DivDB4>

000046e2 <DivDB3>:
    46e2:	a4 1b       	sub	r26, r20
    46e4:	88 94       	clc

000046e6 <DivDB4>:
    46e6:	66 1f       	adc	r22, r22
    46e8:	77 1f       	adc	r23, r23
    46ea:	88 1f       	adc	r24, r24
    46ec:	99 1f       	adc	r25, r25
    46ee:	fa 95       	dec	r31
    46f0:	a1 f7       	brne	.-24     	; 0x46da <DivDB2>
    46f2:	60 95       	com	r22
    46f4:	70 95       	com	r23
    46f6:	80 95       	com	r24
    46f8:	90 95       	com	r25
    46fa:	08 95       	ret

000046fc <MulD10>:
    46fc:	4a e0       	ldi	r20, 0x0A	; 10

000046fe <MulDB>:
    46fe:	84 9f       	mul	r24, r20
    4700:	d0 01       	movw	r26, r0
    4702:	94 9f       	mul	r25, r20
    4704:	b0 0d       	add	r27, r0
    4706:	cd 01       	movw	r24, r26
    4708:	db 01       	movw	r26, r22
    470a:	a4 9f       	mul	r26, r20
    470c:	b0 01       	movw	r22, r0
    470e:	aa 27       	eor	r26, r26
    4710:	b4 9f       	mul	r27, r20
    4712:	70 0d       	add	r23, r0
    4714:	81 1d       	adc	r24, r1
    4716:	9a 1f       	adc	r25, r26
    4718:	11 24       	eor	r1, r1
    471a:	08 95       	ret

0000471c <RandShift>:
    471c:	6d 85       	ldd	r22, Y+13	; 0x0d
    471e:	7e 85       	ldd	r23, Y+14	; 0x0e
    4720:	8f 85       	ldd	r24, Y+15	; 0x0f
    4722:	98 89       	ldd	r25, Y+16	; 0x10
    4724:	2d ef       	ldi	r18, 0xFD	; 253
    4726:	33 e4       	ldi	r19, 0x43	; 67
    4728:	43 e0       	ldi	r20, 0x03	; 3
    472a:	50 e0       	ldi	r21, 0x00	; 0
    472c:	9c df       	rcall	.-200    	; 0x4666 <MulDD>
    472e:	6d 53       	subi	r22, 0x3D	; 61
    4730:	71 46       	sbci	r23, 0x61	; 97
    4732:	89 4d       	sbci	r24, 0xD9	; 217
    4734:	9f 4f       	sbci	r25, 0xFF	; 255
    4736:	6d 87       	std	Y+13, r22	; 0x0d
    4738:	7e 87       	std	Y+14, r23	; 0x0e
    473a:	8f 87       	std	Y+15, r24	; 0x0f
    473c:	98 8b       	std	Y+16, r25	; 0x10
    473e:	08 95       	ret

00004740 <CalcRand>:
    4740:	ed df       	rcall	.-38     	; 0x471c <RandShift>
    4742:	ee 24       	eor	r14, r14
    4744:	ff 24       	eor	r15, r15
    4746:	87 01       	movw	r16, r14
    4748:	9b 01       	movw	r18, r22
    474a:	ac 01       	movw	r20, r24
    474c:	6f ef       	ldi	r22, 0xFF	; 255
    474e:	7f e7       	ldi	r23, 0x7F	; 127
    4750:	81 e2       	ldi	r24, 0x21	; 33
    4752:	57 fd       	sbrc	r21, 7
    4754:	07 c0       	rjmp	.+14     	; 0x4764 <CalcRand+0x24>
    4756:	88 94       	clc
    4758:	9b d5       	rcall	.+2870   	; 0x5290 <CalcMantRol>
    475a:	61 50       	subi	r22, 0x01	; 1
    475c:	71 09       	sbc	r23, r1
    475e:	8a 95       	dec	r24
    4760:	c1 f7       	brne	.-16     	; 0x4752 <CalcRand+0x12>
    4762:	45 d6       	rcall	.+3210   	; 0x53ee <CalcClearNum>
    4764:	5f 77       	andi	r21, 0x7F	; 127
    4766:	a8 d2       	rcall	.+1360   	; 0x4cb8 <CalcNew>
    4768:	1e c6       	rjmp	.+3132   	; 0x53a6 <CalcSaveNum>

0000476a <CalcSqr>:
    476a:	4f d5       	rcall	.+2718   	; 0x520a <CalcDup>
    476c:	e4 c2       	rjmp	.+1480   	; 0x4d36 <CalcMul>

0000476e <CalcRec>:
    476e:	81 e0       	ldi	r24, 0x01	; 1
    4770:	83 d1       	rcall	.+774    	; 0x4a78 <CalcConst>
    4772:	4f d5       	rcall	.+2718   	; 0x5212 <CalcExc>
    4774:	4a c3       	rjmp	.+1684   	; 0x4e0a <CalcDiv>

00004776 <CalcInc>:
    4776:	81 e0       	ldi	r24, 0x01	; 1
    4778:	7f d1       	rcall	.+766    	; 0x4a78 <CalcConst>
    477a:	b0 c3       	rjmp	.+1888   	; 0x4edc <CalcAdd>

0000477c <CalcDec>:
    477c:	82 e0       	ldi	r24, 0x02	; 2
    477e:	7c d1       	rcall	.+760    	; 0x4a78 <CalcConst>
    4780:	ad c3       	rjmp	.+1882   	; 0x4edc <CalcAdd>

00004782 <CalcCmp>:
    4782:	8f d2       	rcall	.+1310   	; 0x4ca2 <CalcTop2>
    4784:	81 53       	subi	r24, 0x31	; 49
    4786:	86 95       	lsr	r24
    4788:	18 f4       	brcc	.+6      	; 0x4790 <CalcCmp+0xe>
    478a:	8f 93       	push	r24
    478c:	42 d5       	rcall	.+2692   	; 0x5212 <CalcExc>
    478e:	8f 91       	pop	r24
    4790:	8f 93       	push	r24
    4792:	a3 d3       	rcall	.+1862   	; 0x4eda <CalcSub>
    4794:	8f 91       	pop	r24
    4796:	8f 93       	push	r24
    4798:	80 fd       	sbrc	r24, 0
    479a:	21 d0       	rcall	.+66     	; 0x47de <CalcNot>
    479c:	19 d0       	rcall	.+50     	; 0x47d0 <CalcGr0>
    479e:	8f 91       	pop	r24
    47a0:	81 ff       	sbrs	r24, 1
    47a2:	1d d0       	rcall	.+58     	; 0x47de <CalcNot>

000047a4 <CalcCmp9>:
    47a4:	08 95       	ret

000047a6 <CalcLt0>:
    47a6:	71 d2       	rcall	.+1250   	; 0x4c8a <CalcTop>
    47a8:	80 e0       	ldi	r24, 0x00	; 0

000047aa <CalcLt02>:
    47aa:	92 81       	ldd	r25, Z+2	; 0x02
    47ac:	98 27       	eor	r25, r24
    47ae:	12 f0       	brmi	.+4      	; 0x47b4 <CalcZ1>

000047b0 <CalcZ0>:
    47b0:	1e d6       	rcall	.+3132   	; 0x53ee <CalcClearNum>
    47b2:	f9 c5       	rjmp	.+3058   	; 0x53a6 <CalcSaveNum>

000047b4 <CalcZ1>:
    47b4:	1c d6       	rcall	.+3128   	; 0x53ee <CalcClearNum>
    47b6:	70 e8       	ldi	r23, 0x80	; 128
    47b8:	f6 c5       	rjmp	.+3052   	; 0x53a6 <CalcSaveNum>

000047ba <CalcZMax>:
    47ba:	6e ef       	ldi	r22, 0xFE	; 254

000047bc <CalcZMax2>:
    47bc:	7f ef       	ldi	r23, 0xFF	; 255
    47be:	5f e7       	ldi	r21, 0x7F	; 127
    47c0:	4f ef       	ldi	r20, 0xFF	; 255
    47c2:	3f ef       	ldi	r19, 0xFF	; 255
    47c4:	2f ef       	ldi	r18, 0xFF	; 255
    47c6:	89 01       	movw	r16, r18
    47c8:	79 01       	movw	r14, r18
    47ca:	ed c5       	rjmp	.+3034   	; 0x53a6 <CalcSaveNum>

000047cc <CalcZOver>:
    47cc:	6f ef       	ldi	r22, 0xFF	; 255
    47ce:	f6 cf       	rjmp	.-20     	; 0x47bc <CalcZMax2>

000047d0 <CalcGr0>:
    47d0:	5f d2       	rcall	.+1214   	; 0x4c90 <CalcTopCheck>
    47d2:	41 f3       	breq	.-48     	; 0x47a4 <CalcCmp9>
    47d4:	8f ef       	ldi	r24, 0xFF	; 255
    47d6:	e9 cf       	rjmp	.-46     	; 0x47aa <CalcLt02>

000047d8 <CalcLtEq0>:
    47d8:	fb df       	rcall	.-10     	; 0x47d0 <CalcGr0>
    47da:	01 c0       	rjmp	.+2      	; 0x47de <CalcNot>

000047dc <CalcGrEq0>:
    47dc:	e4 df       	rcall	.-56     	; 0x47a6 <CalcLt0>

000047de <CalcNot>:
    47de:	58 d2       	rcall	.+1200   	; 0x4c90 <CalcTopCheck>
    47e0:	49 f3       	breq	.-46     	; 0x47b4 <CalcZ1>
    47e2:	e6 cf       	rjmp	.-52     	; 0x47b0 <CalcZ0>

000047e4 <CalcOr>:
    47e4:	55 d2       	rcall	.+1194   	; 0x4c90 <CalcTopCheck>
    47e6:	fa d4       	rcall	.+2548   	; 0x51dc <CalcDel2>
    47e8:	e9 f2       	breq	.-70     	; 0x47a4 <CalcCmp9>

000047ea <CalcTopZ1>:
    47ea:	4f d2       	rcall	.+1182   	; 0x4c8a <CalcTop>
    47ec:	e3 cf       	rjmp	.-58     	; 0x47b4 <CalcZ1>

000047ee <CalcAnd>:
    47ee:	50 d2       	rcall	.+1184   	; 0x4c90 <CalcTopCheck>
    47f0:	f5 d4       	rcall	.+2538   	; 0x51dc <CalcDel2>
    47f2:	c1 f6       	brne	.-80     	; 0x47a4 <CalcCmp9>

000047f4 <CalcTopZ0>:
    47f4:	4a d2       	rcall	.+1172   	; 0x4c8a <CalcTop>
    47f6:	dc cf       	rjmp	.-72     	; 0x47b0 <CalcZ0>

000047f8 <CalcSgn>:
    47f8:	4b d2       	rcall	.+1174   	; 0x4c90 <CalcTopCheck>
    47fa:	21 f0       	breq	.+8      	; 0x4804 <CalcSgn9>
    47fc:	92 81       	ldd	r25, Z+2	; 0x02
    47fe:	da df       	rcall	.-76     	; 0x47b4 <CalcZ1>
    4800:	90 78       	andi	r25, 0x80	; 128

00004802 <CalcSgn8>:
    4802:	92 83       	std	Z+2, r25	; 0x02

00004804 <CalcSgn9>:
    4804:	08 95       	ret

00004806 <CalcNeg>:
    4806:	44 d2       	rcall	.+1160   	; 0x4c90 <CalcTopCheck>
    4808:	e9 f3       	breq	.-6      	; 0x4804 <CalcSgn9>
    480a:	92 81       	ldd	r25, Z+2	; 0x02
    480c:	90 58       	subi	r25, 0x80	; 128
    480e:	f9 cf       	rjmp	.-14     	; 0x4802 <CalcSgn8>

00004810 <CalcAbs>:
    4810:	3c d2       	rcall	.+1144   	; 0x4c8a <CalcTop>
    4812:	92 81       	ldd	r25, Z+2	; 0x02
    4814:	9f 77       	andi	r25, 0x7F	; 127
    4816:	f5 cf       	rjmp	.-22     	; 0x4802 <CalcSgn8>

00004818 <CalcTruncPrec>:
    4818:	3b d2       	rcall	.+1142   	; 0x4c90 <CalcTopCheck>
    481a:	80 50       	subi	r24, 0x00	; 0
    481c:	90 48       	sbci	r25, 0x80	; 128
    481e:	08 f4       	brcc	.+2      	; 0x4822 <CalcTruncPrec2>
    4820:	c7 cf       	rjmp	.-114    	; 0x47b0 <CalcZ0>

00004822 <CalcTruncPrec2>:
    4822:	99 23       	and	r25, r25
    4824:	a9 f4       	brne	.+42     	; 0x4850 <CalcTruncPrec9>
    4826:	8f 53       	subi	r24, 0x3F	; 63
    4828:	98 f4       	brcc	.+38     	; 0x4850 <CalcTruncPrec9>
    482a:	81 95       	neg	r24

0000482c <CalcTruncPrec3>:
    482c:	3a 96       	adiw	r30, 0x0a	; 10
    482e:	68 2f       	mov	r22, r24
    4830:	66 95       	lsr	r22
    4832:	66 95       	lsr	r22
    4834:	66 95       	lsr	r22
    4836:	19 f0       	breq	.+6      	; 0x483e <CalcTruncPrec6>

00004838 <CalcTruncPrec4>:
    4838:	12 92       	st	-Z, r1
    483a:	6a 95       	dec	r22
    483c:	e9 f7       	brne	.-6      	; 0x4838 <CalcTruncPrec4>

0000483e <CalcTruncPrec6>:
    483e:	87 70       	andi	r24, 0x07	; 7
    4840:	39 f0       	breq	.+14     	; 0x4850 <CalcTruncPrec9>
    4842:	6f ef       	ldi	r22, 0xFF	; 255

00004844 <CalcTruncPrec8>:
    4844:	66 0f       	add	r22, r22
    4846:	8a 95       	dec	r24
    4848:	e9 f7       	brne	.-6      	; 0x4844 <CalcTruncPrec8>
    484a:	82 91       	ld	r24, -Z
    484c:	86 23       	and	r24, r22
    484e:	80 83       	st	Z, r24

00004850 <CalcTruncPrec9>:
    4850:	08 95       	ret

00004852 <CalcRound>:
    4852:	ec d1       	rcall	.+984    	; 0x4c2c <Calc>
    4854:	84 04       	cpc	r8, r4
    4856:	38 10       	cpse	r3, r8
    4858:	01 41       	sbci	r16, 0x11	; 17
    485a:	29 18       	sub	r2, r9
    485c:	44 01       	movw	r8, r8
    485e:	08 95       	ret

00004860 <CalcRoundFrac>:
    4860:	e5 d1       	rcall	.+970    	; 0x4c2c <Calc>
    4862:	03 48       	sbci	r16, 0x83	; 131
    4864:	28 01       	movw	r4, r16
    4866:	08 95       	ret

00004868 <CalcTrunc>:
    4868:	e1 d1       	rcall	.+962    	; 0x4c2c <Calc>
    486a:	03 48       	sbci	r16, 0x83	; 131
    486c:	04 04       	cpc	r0, r4
    486e:	28 09       	sbc	r18, r8
    4870:	0a 34       	cpi	r16, 0x4A	; 74
    4872:	10 06       	cpc	r1, r16
    4874:	34 11       	cpse	r19, r4
    4876:	07 40       	sbci	r16, 0x07	; 7
    4878:	0f 04       	cpc	r0, r15
    487a:	38 11       	cpse	r19, r8
    487c:	01 3f       	cpi	r16, 0xF1	; 241
    487e:	01 00       	.word	0x0001	; ????
    4880:	08 95       	ret

00004882 <CalcFloor>:
    4882:	d4 d1       	rcall	.+936    	; 0x4c2c <Calc>
    4884:	03 48       	sbci	r16, 0x83	; 131
    4886:	09 04       	cpc	r0, r9
    4888:	28 34       	cpi	r18, 0x48	; 72
    488a:	11 01       	movw	r2, r2
    488c:	40 01       	movw	r8, r0
    488e:	08 95       	ret

00004890 <CalcCeil>:
    4890:	cd d1       	rcall	.+922    	; 0x4c2c <Calc>
    4892:	03 48       	sbci	r16, 0x83	; 131
    4894:	09 04       	cpc	r0, r9
    4896:	28 38       	cpi	r18, 0x88	; 136
    4898:	11 01       	movw	r2, r2
    489a:	3f 01       	movw	r6, r30
    489c:	08 95       	ret

0000489e <CalcArg>:
    489e:	c6 d1       	rcall	.+908    	; 0x4c2c <Calc>
    48a0:	97 27       	eor	r25, r23
    48a2:	01 00       	.word	0x0001	; ????
    48a4:	08 95       	ret

000048a6 <CalcAddLoop>:
    48a6:	fd d1       	rcall	.+1018   	; 0x4ca2 <CalcTop2>
    48a8:	7d 91       	ld	r23, X+
    48aa:	6c 91       	ld	r22, X
    48ac:	8f ef       	ldi	r24, 0xFF	; 255
    48ae:	6f 3f       	cpi	r22, 0xFF	; 255
    48b0:	78 07       	cpc	r23, r24
    48b2:	71 f0       	breq	.+28     	; 0x48d0 <CalcAddLoop6>
    48b4:	90 81       	ld	r25, Z
    48b6:	81 81       	ldd	r24, Z+1	; 0x01
    48b8:	01 96       	adiw	r24, 0x01	; 1
    48ba:	01 97       	sbiw	r24, 0x01	; 1
    48bc:	49 f0       	breq	.+18     	; 0x48d0 <CalcAddLoop6>
    48be:	40 f0       	brcs	.+16     	; 0x48d0 <CalcAddLoop6>
    48c0:	68 1b       	sub	r22, r24
    48c2:	79 0b       	sbc	r23, r25
    48c4:	18 f0       	brcs	.+6      	; 0x48cc <CalcAddLoop4>
    48c6:	64 34       	cpi	r22, 0x44	; 68
    48c8:	71 05       	cpc	r23, r1
    48ca:	10 f4       	brcc	.+4      	; 0x48d0 <CalcAddLoop6>

000048cc <CalcAddLoop4>:
    48cc:	07 d3       	rcall	.+1550   	; 0x4edc <CalcAdd>
    48ce:	b9 c4       	rjmp	.+2418   	; 0x5242 <CalcJump>

000048d0 <CalcAddLoop6>:
    48d0:	7c d4       	rcall	.+2296   	; 0x51ca <CalcDel>
    48d2:	2b c6       	rjmp	.+3158   	; 0x552a <CalcLit>

000048d4 <CalcCos>:
    48d4:	ab d1       	rcall	.+854    	; 0x4c2c <Calc>
    48d6:	95 29       	or	r25, r5
    48d8:	01 00       	.word	0x0001	; ????

000048da <CalcSin>:
    48da:	a8 d1       	rcall	.+848    	; 0x4c2c <Calc>
    48dc:	51 03       	mulsu	r21, r17
    48de:	96 36       	cpi	r25, 0x66	; 102
    48e0:	a4 10       	cpse	r10, r4
    48e2:	03 97       	sbiw	r24, 0x03	; 3
    48e4:	09 28       	or	r0, r9
    48e6:	13 27       	eor	r17, r19
    48e8:	03 96       	adiw	r24, 0x03	; 3
    48ea:	28 11       	cpse	r18, r8
    48ec:	22 03       	mulsu	r18, r18
    48ee:	64 41       	sbci	r22, 0x14	; 20
    48f0:	e3 81       	ldd	r30, Z+3	; 0x03
    48f2:	e2 a1       	ldd	r30, Z+34	; 0x22
    48f4:	c1 c3       	rjmp	.+1922   	; 0x5078 <CalcFactMain+0x10>
    48f6:	22 c2       	rjmp	.+1092   	; 0x4d3c <CalcMul+0x6>
    48f8:	3f a2       	std	Y+39, r3	; 0x27
    48fa:	23 c2       	rjmp	.+1094   	; 0x4d42 <CalcMul+0xc>
    48fc:	3f a2       	std	Y+39, r3	; 0x27
    48fe:	23 a1       	ldd	r18, Z+35	; 0x23
    4900:	17 f2       	brie	.-124    	; 0x4886 <CalcFloor+0x4>
    4902:	03 81       	ldd	r16, Z+3	; 0x03
    4904:	36 10       	cpse	r3, r6
    4906:	02 02       	muls	r16, r18
    4908:	81 c4       	rjmp	.+2306   	; 0x520c <CalcDup+0x2>
    490a:	10 01       	movw	r2, r0
    490c:	41 01       	movw	r8, r2
    490e:	08 95       	ret
    4910:	02 80       	ldd	r0, Z+2	; 0x02
    4912:	01 00       	.word	0x0001	; ????
    4914:	08 95       	ret

00004916 <CalcTan>:
    4916:	8a d1       	rcall	.+788    	; 0x4c2c <Calc>
    4918:	03 52       	subi	r16, 0x23	; 35
    491a:	09 53       	subi	r16, 0x39	; 57
    491c:	23 01       	movw	r4, r6
    491e:	08 95       	ret

00004920 <CalcCoTan>:
    4920:	85 d1       	rcall	.+778    	; 0x4c2c <Calc>
    4922:	03 53       	subi	r16, 0x33	; 51
    4924:	09 52       	subi	r16, 0x29	; 41
    4926:	23 01       	movw	r4, r6
    4928:	08 95       	ret

0000492a <CalcAsn>:
    492a:	80 d1       	rcall	.+768    	; 0x4c2c <Calc>
    492c:	13 37       	cpi	r17, 0x73	; 115
    492e:	03 38       	cpi	r16, 0x83	; 131
    4930:	09 43       	sbci	r16, 0x39	; 57
    4932:	03 81       	ldd	r16, Z+3	; 0x03
    4934:	35 10       	cpse	r3, r5
    4936:	31 03       	mulsu	r19, r17
    4938:	85 31       	cpi	r24, 0x15	; 21
    493a:	12 06       	cpc	r1, r18
    493c:	09 64       	ori	r16, 0x49	; 73
    493e:	40 41       	sbci	r20, 0x10	; 16
    4940:	63 09       	sbc	r22, r3
    4942:	09 03       	fmul	r16, r17
    4944:	64 e4       	ldi	r22, 0x44	; 68
    4946:	81 e3       	ldi	r24, 0x31	; 49
    4948:	a2 c2       	rjmp	.+1348   	; 0x4e8e <CalcMod+0x4>
    494a:	c4 22       	and	r12, r20
    494c:	c3 22       	and	r12, r19
    494e:	c3 22       	and	r12, r19
    4950:	c3 3f       	cpi	r28, 0xF3	; 243
    4952:	a3 23       	and	r26, r19
    4954:	c3 3f       	cpi	r28, 0xF3	; 243
    4956:	a3 23       	and	r26, r19
    4958:	a2 17       	cp	r26, r18
    495a:	ee 09       	sbc	r30, r14
    495c:	10 03       	mulsu	r17, r16
    495e:	41 95       	neg	r20
    4960:	29 09       	sbc	r18, r9
    4962:	10 01       	movw	r2, r0
    4964:	41 01       	movw	r8, r2
    4966:	08 95       	ret
    4968:	02 95       	swap	r16
    496a:	16 0f       	add	r17, r22
    496c:	f4 00       	.word	0x00f4	; ????

0000496e <CalcAcs>:
    496e:	5e d1       	rcall	.+700    	; 0x4c2c <Calc>
    4970:	56 95       	lsr	r21
    4972:	28 41       	sbci	r18, 0x18	; 24
    4974:	01 00       	.word	0x0001	; ????
    4976:	08 95       	ret

00004978 <CalcAtn>:
    4978:	59 d1       	rcall	.+690    	; 0x4c2c <Calc>
    497a:	03 64       	ori	r16, 0x43	; 67
    497c:	3f 63       	ori	r19, 0x3F	; 63
    497e:	23 56       	subi	r18, 0x63	; 99
    4980:	01 00       	.word	0x0001	; ????
    4982:	08 95       	ret
    4984:	02 80       	ldd	r0, Z+2	; 0x02
    4986:	01 00       	.word	0x0001	; ????
    4988:	08 95       	ret
    498a:	02 4b       	sbci	r16, 0xB2	; 178
    498c:	41 16       	cp	r4, r17
    498e:	01 00       	.word	0x0001	; ????
    4990:	08 95       	ret

00004992 <CalcLn>:
    4992:	4c d1       	rcall	.+664    	; 0x4c2c <Calc>
    4994:	13 f4       	brvc	.+4      	; 0x499a <CalcLn+0x8>
    4996:	03 81       	ldd	r16, Z+3	; 0x03
    4998:	37 10       	cpse	r3, r7
    499a:	e9 03       	fmulsu	r22, r17
    499c:	38 10       	cpse	r3, r8
    499e:	02 43       	sbci	r16, 0x32	; 50
    49a0:	16 03       	mulsu	r17, r22
    49a2:	81 32       	cpi	r24, 0x21	; 33
    49a4:	a4 10       	cpse	r10, r4
    49a6:	01 3e       	cpi	r16, 0xE1	; 225
    49a8:	01 00       	.word	0x0001	; ????
    49aa:	6f d1       	rcall	.+734    	; 0x4c8a <CalcTop>
    49ac:	90 81       	ld	r25, Z
    49ae:	81 81       	ldd	r24, Z+1	; 0x01
    49b0:	01 96       	adiw	r24, 0x01	; 1
    49b2:	01 97       	sbiw	r24, 0x01	; 1
    49b4:	d0 f0       	brcs	.+52     	; 0x49ea <CalcLn9>
    49b6:	60 e0       	ldi	r22, 0x00	; 0
    49b8:	70 e8       	ldi	r23, 0x80	; 128
    49ba:	70 83       	st	Z, r23
    49bc:	61 83       	std	Z+1, r22	; 0x01
    49be:	34 d5       	rcall	.+2664   	; 0x5428 <CalcStackW>
    49c0:	80 e0       	ldi	r24, 0x00	; 0
    49c2:	90 e8       	ldi	r25, 0x80	; 128
    49c4:	31 d5       	rcall	.+2658   	; 0x5428 <CalcStackW>
    49c6:	32 d1       	rcall	.+612    	; 0x4c2c <Calc>
    49c8:	28 8c       	ldd	r2, Y+24	; 0x18
    49ca:	22 09       	sbc	r18, r2
    49cc:	03 40       	sbci	r16, 0x03	; 3
    49ce:	09 3f       	cpi	r16, 0xF9	; 249
    49d0:	23 a3       	std	Z+35, r18	; 0x23
    49d2:	64 e2       	ldi	r22, 0x24	; 36
    49d4:	c3 81       	ldd	r28, Z+3	; 0x03
    49d6:	e1 c3       	rjmp	.+1986   	; 0x519a <CalcGcd+0x10>
    49d8:	c2 22       	and	r12, r18
    49da:	a3 c1       	rjmp	.+838    	; 0x4d22 <CalcMul7+0xa>
    49dc:	83 29       	or	r24, r3
    49de:	a1 23       	and	r26, r17
    49e0:	17 f5       	brid	.+68     	; 0x4a26 <CalcExp+0x36>
    49e2:	24 29       	or	r18, r4
    49e4:	c4 10       	cpse	r12, r4
    49e6:	01 41       	sbci	r16, 0x11	; 17
    49e8:	01 00       	.word	0x0001	; ????

000049ea <CalcLn9>:
    49ea:	08 95       	ret
    49ec:	3f 01       	movw	r6, r30
    49ee:	08 95       	ret

000049f0 <CalcExp>:
    49f0:	1d d1       	rcall	.+570    	; 0x4c2c <Calc>
    49f2:	13 f8       	bld	r1, 3
    49f4:	03 92       	.word	0x9203	; ????
    49f6:	36 10       	cpse	r3, r6
    49f8:	07 02       	muls	r16, r23
    49fa:	4b 16       	cp	r4, r27
    49fc:	01 00       	.word	0x0001	; ????
    49fe:	08 95       	ret
    4a00:	03 93       	.word	0x9303	; ????
    4a02:	35 10       	cpse	r3, r5
    4a04:	05 02       	muls	r16, r21
    4a06:	80 01       	movw	r16, r0
    4a08:	08 95       	ret
    4a0a:	03 8d       	ldd	r16, Z+27	; 0x1b
    4a0c:	22 44       	sbci	r18, 0x42	; 66
    4a0e:	a3 8c       	ldd	r10, Z+27	; 0x1b
    4a10:	22 28       	or	r2, r2
    4a12:	e4 c3       	rjmp	.+1992   	; 0x51dc <CalcDel2>
    4a14:	80 e3       	ldi	r24, 0x30	; 48
    4a16:	81 a2       	std	Z+33, r8	; 0x21
    4a18:	c2 c4       	rjmp	.+2436   	; 0x539e <CalcLoadNum+0xe>
    4a1a:	22 c3       	rjmp	.+1604   	; 0x5060 <CalcFactCorr+0x1e>
    4a1c:	3f a3       	std	Y+39, r19	; 0x27
    4a1e:	23 a2       	std	Z+35, r2	; 0x23
    4a20:	17 f6       	brid	.-124    	; 0x49a6 <CalcLn+0x14>
    4a22:	09 01       	movw	r0, r18
    4a24:	80 e0       	ldi	r24, 0x00	; 0
    4a26:	90 e8       	ldi	r25, 0x80	; 128
    4a28:	ff d4       	rcall	.+2558   	; 0x5428 <CalcStackW>
    4a2a:	58 d2       	rcall	.+1200   	; 0x4edc <CalcAdd>
    4a2c:	29 d5       	rcall	.+2642   	; 0x5480 <CalcUnstackW>
    4a2e:	44 d1       	rcall	.+648    	; 0x4cb8 <CalcNew>
    4a30:	c1 de       	rcall	.-638    	; 0x47b4 <CalcZ1>
    4a32:	90 83       	st	Z, r25
    4a34:	81 83       	std	Z+1, r24	; 0x01
    4a36:	7f c1       	rjmp	.+766    	; 0x4d36 <CalcMul>

00004a38 <CalcLog10>:
    4a38:	f9 d0       	rcall	.+498    	; 0x4c2c <Calc>
    4a3a:	5d 8f       	std	Y+29, r21	; 0x1d
    4a3c:	22 01       	movw	r4, r4
    4a3e:	08 95       	ret

00004a40 <CalcExp10>:
    4a40:	f5 d0       	rcall	.+490    	; 0x4c2c <Calc>
    4a42:	8e 22       	and	r8, r30
    4a44:	5e 01       	movw	r10, r28
    4a46:	08 95       	ret

00004a48 <CalcLog2>:
    4a48:	f1 d0       	rcall	.+482    	; 0x4c2c <Calc>
    4a4a:	5d 8d       	ldd	r21, Y+29	; 0x1d
    4a4c:	22 01       	movw	r4, r4
    4a4e:	08 95       	ret

00004a50 <CalcExp2>:
    4a50:	ed d0       	rcall	.+474    	; 0x4c2c <Calc>
    4a52:	8c 22       	and	r8, r28
    4a54:	5e 01       	movw	r10, r28
    4a56:	08 95       	ret

00004a58 <CalcToRad>:
    4a58:	89 8d       	ldd	r24, Y+25	; 0x19
    4a5a:	81 30       	cpi	r24, 0x01	; 1
    4a5c:	29 f0       	breq	.+10     	; 0x4a68 <CalcToRad9>
    4a5e:	8b e1       	ldi	r24, 0x1B	; 27
    4a60:	08 f0       	brcs	.+2      	; 0x4a64 <CalcToRad4>
    4a62:	8d e1       	ldi	r24, 0x1D	; 29

00004a64 <CalcToRad4>:
    4a64:	09 d0       	rcall	.+18     	; 0x4a78 <CalcConst>
    4a66:	67 d1       	rcall	.+718    	; 0x4d36 <CalcMul>

00004a68 <CalcToRad9>:
    4a68:	08 95       	ret

00004a6a <CalcFromRad>:
    4a6a:	89 8d       	ldd	r24, Y+25	; 0x19
    4a6c:	81 30       	cpi	r24, 0x01	; 1
    4a6e:	e1 f3       	breq	.-8      	; 0x4a68 <CalcToRad9>
    4a70:	8a e1       	ldi	r24, 0x1A	; 26
    4a72:	c0 f3       	brcs	.-16     	; 0x4a64 <CalcToRad4>
    4a74:	8c e1       	ldi	r24, 0x1C	; 28
    4a76:	f6 cf       	rjmp	.-20     	; 0x4a64 <CalcToRad4>

00004a78 <CalcConst>:
    4a78:	1f d1       	rcall	.+574    	; 0x4cb8 <CalcNew>
    4a7a:	df 01       	movw	r26, r30
    4a7c:	9a e0       	ldi	r25, 0x0A	; 10
    4a7e:	98 9f       	mul	r25, r24
    4a80:	f0 01       	movw	r30, r0
    4a82:	11 24       	eor	r1, r1
    4a84:	e0 58       	subi	r30, 0x80	; 128
    4a86:	ff 4f       	sbci	r31, 0xFF	; 255

00004a88 <CalcConst2>:
    4a88:	85 91       	lpm	r24, Z+
    4a8a:	8d 93       	st	X+, r24
    4a8c:	9a 95       	dec	r25
    4a8e:	e1 f7       	brne	.-8      	; 0x4a88 <CalcConst2>
    4a90:	08 95       	ret

00004a92 <CalcConstROM>:
    4a92:	0b d1       	rcall	.+534    	; 0x4caa <ExcXZ>
    4a94:	11 d1       	rcall	.+546    	; 0x4cb8 <CalcNew>
    4a96:	09 d1       	rcall	.+530    	; 0x4caa <ExcXZ>
    4a98:	9a e0       	ldi	r25, 0x0A	; 10
    4a9a:	f6 cf       	rjmp	.-20     	; 0x4a88 <CalcConst2>

00004a9c <CalcConstLoad>:
    4a9c:	0d d1       	rcall	.+538    	; 0x4cb8 <CalcNew>
    4a9e:	9a e0       	ldi	r25, 0x0A	; 10
    4aa0:	44 d5       	rcall	.+2696   	; 0x552a <CalcLit>
    4aa2:	81 93       	st	Z+, r24
    4aa4:	9a 95       	dec	r25
    4aa6:	e1 f7       	brne	.-8      	; 0x4aa0 <CalcConstLoad+0x4>
    4aa8:	08 95       	ret

00004aaa <CalcMax>:
    4aaa:	06 d1       	rcall	.+524    	; 0x4cb8 <CalcNew>
    4aac:	86 ce       	rjmp	.-756    	; 0x47ba <CalcZMax>

00004aae <CalcOver>:
    4aae:	04 d1       	rcall	.+520    	; 0x4cb8 <CalcNew>
    4ab0:	8d ce       	rjmp	.-742    	; 0x47cc <CalcZOver>

00004ab2 <CalcHir>:
    4ab2:	3b d5       	rcall	.+2678   	; 0x552a <CalcLit>
    4ab4:	98 2f       	mov	r25, r24
    4ab6:	9f 70       	andi	r25, 0x0F	; 15
    4ab8:	aa e0       	ldi	r26, 0x0A	; 10
    4aba:	9a 9f       	mul	r25, r26
    4abc:	d0 01       	movw	r26, r0
    4abe:	aa 5f       	subi	r26, 0xFA	; 250
    4ac0:	b9 4f       	sbci	r27, 0xF9	; 249
    4ac2:	11 24       	eor	r1, r1
    4ac4:	80 7f       	andi	r24, 0xF0	; 240
    4ac6:	82 f4       	brpl	.+32     	; 0x4ae8 <CalcHir+0x36>
    4ac8:	8f 93       	push	r24
    4aca:	fd 01       	movw	r30, r26
    4acc:	0e 94 76 26 	call	0x4cec	; 0x4cec <CalcGetMemZ>
    4ad0:	0e 94 59 2a 	call	0x54b2	; 0x54b2 <CalcUnstackB>
    4ad4:	8e 36       	cpi	r24, 0x6E	; 110
    4ad6:	10 f0       	brcs	.+4      	; 0x4adc <CalcHir+0x2a>
    4ad8:	0c 94 ac 02 	jmp	0x558	; 0x558 <Fatal>
    4adc:	88 5f       	subi	r24, 0xF8	; 248
    4ade:	0e 94 68 26 	call	0x4cd0	; 0x4cd0 <CalcAddrMem>
    4ae2:	df 01       	movw	r26, r30
    4ae4:	8f 91       	pop	r24
    4ae6:	80 77       	andi	r24, 0x70	; 112
    4ae8:	80 30       	cpi	r24, 0x00	; 0
    4aea:	21 f4       	brne	.+8      	; 0x4af4 <CalcHir+0x42>
    4aec:	0e 94 45 26 	call	0x4c8a	; 0x4c8a <CalcTop>
    4af0:	0c 94 ff 29 	jmp	0x53fe	; 0x53fe <CalcCopyNum>
    4af4:	80 31       	cpi	r24, 0x10	; 16
    4af6:	31 f4       	brne	.+12     	; 0x4b04 <CalcHir+0x52>
    4af8:	0e 94 5c 26 	call	0x4cb8	; 0x4cb8 <CalcNew>
    4afc:	0e 94 55 26 	call	0x4caa	; 0x4caa <ExcXZ>
    4b00:	0c 94 ff 29 	jmp	0x53fe	; 0x53fe <CalcCopyNum>
    4b04:	0e 94 45 26 	call	0x4c8a	; 0x4c8a <CalcTop>
    4b08:	0e 94 ff 29 	call	0x53fe	; 0x53fe <CalcCopyNum>
    4b0c:	0c 94 e5 28 	jmp	0x51ca	; 0x51ca <CalcDel>

00004b10 <CalcUser>:
    4b10:	0e 94 37 0d 	call	0x1a6e	; 0x1a6e <EditStop>
    4b14:	0e 94 67 0e 	call	0x1cce	; 0x1cce <_CalcSetMemDelX>
    4b18:	f1 9a       	sbi	0x1e, 1	; 30
    4b1a:	88 a5       	ldd	r24, Y+40	; 0x28
    4b1c:	f2 9b       	sbis	0x1e, 2	; 30
    4b1e:	8f ef       	ldi	r24, 0xFF	; 255
    4b20:	8f 93       	push	r24
    4b22:	19 a2       	std	Y+33, r1	; 0x21
    4b24:	86 e1       	ldi	r24, 0x16	; 22
    4b26:	77 27       	eor	r23, r23
    4b28:	0e 94 d7 11 	call	0x23ae	; 0x23ae <ExecSbrLab>
    4b2c:	f2 9b       	sbis	0x1e, 2	; 30
    4b2e:	0d c0       	rjmp	.+26     	; 0x4b4a <CalcUser+0x3a>
    4b30:	0e 94 8c 0b 	call	0x1718	; 0x1718 <DispTrace>
    4b34:	0e 94 a4 07 	call	0xf48	; 0xf48 <LoadPrg>
    4b38:	0e 94 a1 14 	call	0x2942	; 0x2942 <Exec>
    4b3c:	0e 94 5f 04 	call	0x8be	; 0x8be <BreakKey>
    4b40:	8f 91       	pop	r24
    4b42:	8f 93       	push	r24
    4b44:	98 a5       	ldd	r25, Y+40	; 0x28
    4b46:	89 17       	cp	r24, r25
    4b48:	89 f7       	brne	.-30     	; 0x4b2c <CalcUser+0x1c>
    4b4a:	8f 91       	pop	r24
    4b4c:	0e 94 37 0d 	call	0x1a6e	; 0x1a6e <EditStop>
    4b50:	87 e0       	ldi	r24, 0x07	; 7
    4b52:	0c 94 75 26 	jmp	0x4cea	; 0x4cea <CalcGetMem>

00004b56 <CalcByte>:
    4b56:	e9 d4       	rcall	.+2514   	; 0x552a <CalcLit>
    4b58:	66 c4       	rjmp	.+2252   	; 0x5426 <CalcStackB>

00004b5a <CalcJmpTab>:
    4b5a:	b6 51       	subi	r27, 0x16	; 22
    4b5c:	b8 51       	subi	r27, 0x18	; 24
    4b5e:	ca 51       	subi	r28, 0x1A	; 26
    4b60:	0a 52       	subi	r16, 0x2A	; 42
    4b62:	02 52       	subi	r16, 0x22	; 34
    4b64:	fa 51       	subi	r31, 0x1A	; 26
    4b66:	f2 51       	subi	r31, 0x12	; 18
    4b68:	ea 51       	subi	r30, 0x1A	; 26
    4b6a:	e2 51       	subi	r30, 0x12	; 18
    4b6c:	12 52       	subi	r17, 0x22	; 34
    4b6e:	24 52       	subi	r18, 0x24	; 36
    4b70:	2a 52       	subi	r18, 0x2A	; 42
    4b72:	30 52       	subi	r19, 0x20	; 32
    4b74:	36 52       	subi	r19, 0x26	; 38
    4b76:	3c 52       	subi	r19, 0x2C	; 44
    4b78:	42 52       	subi	r20, 0x22	; 34
    4b7a:	52 52       	subi	r21, 0x22	; 34
    4b7c:	5a 52       	subi	r21, 0x2A	; 42
    4b7e:	62 52       	subi	r22, 0x22	; 34
    4b80:	66 52       	subi	r22, 0x26	; 38
    4b82:	6a 52       	subi	r22, 0x2A	; 42
    4b84:	74 52       	subi	r23, 0x24	; 36
    4b86:	7a 52       	subi	r23, 0x2A	; 42
    4b88:	a6 48       	sbci	r26, 0x86	; 134
    4b8a:	bc 53       	subi	r27, 0x3C	; 60
    4b8c:	22 2e       	mov	r2, r18
    4b8e:	1e 2e       	mov	r1, r30
    4b90:	32 2e       	mov	r3, r18
    4b92:	2e 2e       	mov	r2, r30
    4b94:	fa 2d       	mov	r31, r10
    4b96:	a6 51       	subi	r26, 0x16	; 22
    4b98:	56 4b       	sbci	r21, 0xB6	; 182
    4b9a:	9c 4a       	sbci	r25, 0xAC	; 172
    4b9c:	b2 4a       	sbci	r27, 0xA2	; 162
    4b9e:	36 4d       	sbci	r19, 0xD6	; 214
    4ba0:	0a 4e       	sbci	r16, 0xEA	; 234
    4ba2:	c2 4d       	sbci	r28, 0xD2	; 210
    4ba4:	ae 4d       	sbci	r26, 0xDE	; 222
    4ba6:	8a 4e       	sbci	r24, 0xEA	; 234
    4ba8:	96 4e       	sbci	r25, 0xE6	; 230
    4baa:	da 4e       	sbci	r29, 0xEA	; 234
    4bac:	dc 4e       	sbci	r29, 0xEC	; 236
    4bae:	38 4f       	sbci	r19, 0xF8	; 248
    4bb0:	fe 4f       	sbci	r31, 0xFE	; 254
    4bb2:	02 50       	subi	r16, 0x02	; 2
    4bb4:	06 50       	subi	r16, 0x06	; 6
    4bb6:	cc 4d       	sbci	r28, 0xDC	; 220
    4bb8:	e0 4d       	sbci	r30, 0xD0	; 208
    4bba:	8a 51       	subi	r24, 0x1A	; 26
    4bbc:	82 47       	sbci	r24, 0x72	; 114
    4bbe:	82 47       	sbci	r24, 0x72	; 114
    4bc0:	82 47       	sbci	r24, 0x72	; 114
    4bc2:	a6 47       	sbci	r26, 0x76	; 118
    4bc4:	82 47       	sbci	r24, 0x72	; 114
    4bc6:	82 47       	sbci	r24, 0x72	; 114
    4bc8:	82 47       	sbci	r24, 0x72	; 114
    4bca:	d0 47       	sbci	r29, 0x70	; 112
    4bcc:	d8 47       	sbci	r29, 0x78	; 120
    4bce:	dc 47       	sbci	r29, 0x7C	; 124
    4bd0:	de 47       	sbci	r29, 0x7E	; 126
    4bd2:	e4 47       	sbci	r30, 0x74	; 116
    4bd4:	ee 47       	sbci	r30, 0x7E	; 126
    4bd6:	6e 47       	sbci	r22, 0x7E	; 126
    4bd8:	76 47       	sbci	r23, 0x76	; 118
    4bda:	7c 47       	sbci	r23, 0x7C	; 124
    4bdc:	06 48       	sbci	r16, 0x86	; 134
    4bde:	f8 47       	sbci	r31, 0x78	; 120
    4be0:	10 48       	sbci	r17, 0x80	; 128
    4be2:	18 48       	sbci	r17, 0x88	; 136
    4be4:	68 48       	sbci	r22, 0x88	; 136
    4be6:	82 48       	sbci	r24, 0x82	; 130
    4be8:	90 48       	sbci	r25, 0x80	; 128
    4bea:	52 48       	sbci	r21, 0x82	; 130
    4bec:	60 48       	sbci	r22, 0x80	; 128
    4bee:	aa 4a       	sbci	r26, 0xAA	; 170
    4bf0:	ae 4a       	sbci	r26, 0xAE	; 174
    4bf2:	40 47       	sbci	r20, 0x70	; 112
    4bf4:	10 4b       	sbci	r17, 0xB0	; 176
    4bf6:	3c 51       	subi	r19, 0x1C	; 28
    4bf8:	48 51       	subi	r20, 0x18	; 24
    4bfa:	52 51       	subi	r21, 0x12	; 18
    4bfc:	9e 48       	sbci	r25, 0x8E	; 142
    4bfe:	da 48       	sbci	r29, 0x8A	; 138
    4c00:	d4 48       	sbci	r29, 0x84	; 132
    4c02:	16 49       	sbci	r17, 0x96	; 150
    4c04:	20 49       	sbci	r18, 0x90	; 144
    4c06:	2a 49       	sbci	r18, 0x9A	; 154
    4c08:	6e 49       	sbci	r22, 0x9E	; 158
    4c0a:	78 49       	sbci	r23, 0x98	; 152
    4c0c:	58 4a       	sbci	r21, 0xA8	; 168
    4c0e:	6a 4a       	sbci	r22, 0xAA	; 170
    4c10:	e4 50       	subi	r30, 0x04	; 4
    4c12:	f2 50       	subi	r31, 0x02	; 2
    4c14:	92 49       	sbci	r25, 0x92	; 146
    4c16:	f0 49       	sbci	r31, 0x90	; 144
    4c18:	38 4a       	sbci	r19, 0xA8	; 168
    4c1a:	40 4a       	sbci	r20, 0xA0	; 160
    4c1c:	48 4a       	sbci	r20, 0xA8	; 168
    4c1e:	50 4a       	sbci	r21, 0xA0	; 160
    4c20:	32 4f       	sbci	r19, 0xF2	; 242
    4c22:	6a 47       	sbci	r22, 0x7A	; 122
    4c24:	78 4a       	sbci	r23, 0xA8	; 168
    4c26:	de 4c       	sbci	r29, 0xCE	; 206
    4c28:	ea 4c       	sbci	r30, 0xCA	; 202
    4c2a:	e6 4c       	sbci	r30, 0xC6	; 198

00004c2c <Calc>:
    4c2c:	9f 91       	pop	r25
    4c2e:	8f 91       	pop	r24
    4c30:	2f 92       	push	r2
    4c32:	3f 92       	push	r3
    4c34:	1c 01       	movw	r2, r24
    4c36:	22 0c       	add	r2, r2
    4c38:	33 1c       	adc	r3, r3

00004c3a <CalcReEnter>:
    4c3a:	77 d4       	rcall	.+2286   	; 0x552a <CalcLit>

00004c3c <CalcEnter>:
    4c3c:	98 2f       	mov	r25, r24
    4c3e:	88 23       	and	r24, r24
    4c40:	2a f4       	brpl	.+10     	; 0x4c4c <Calc4>
    4c42:	9f 71       	andi	r25, 0x1F	; 31
    4c44:	82 95       	swap	r24
    4c46:	86 95       	lsr	r24
    4c48:	83 70       	andi	r24, 0x03	; 3
    4c4a:	8b 59       	subi	r24, 0x9B	; 155

00004c4c <Calc4>:
    4c4c:	ea e5       	ldi	r30, 0x5A	; 90
    4c4e:	fb e4       	ldi	r31, 0x4B	; 75
    4c50:	e8 0f       	add	r30, r24
    4c52:	f1 1d       	adc	r31, r1
    4c54:	e8 0f       	add	r30, r24
    4c56:	f1 1d       	adc	r31, r1
    4c58:	05 90       	lpm	r0, Z+
    4c5a:	f4 91       	lpm	r31, Z+
    4c5c:	e0 2d       	mov	r30, r0
    4c5e:	f6 95       	lsr	r31
    4c60:	e7 95       	ror	r30
    4c62:	89 2f       	mov	r24, r25
    4c64:	09 95       	icall
    4c66:	e9 cf       	rjmp	.-46     	; 0x4c3a <CalcReEnter>

00004c68 <CalcInit>:
    4c68:	81 e0       	ldi	r24, 0x01	; 1
    4c6a:	89 8b       	std	Y+17, r24	; 0x11
    4c6c:	87 e0       	ldi	r24, 0x07	; 7
    4c6e:	8a 8b       	std	Y+18, r24	; 0x12
    4c70:	1b 8a       	std	Y+19, r1	; 0x13
    4c72:	80 e0       	ldi	r24, 0x00	; 0
    4c74:	01 df       	rcall	.-510    	; 0x4a78 <CalcConst>
    4c76:	87 e0       	ldi	r24, 0x07	; 7
    4c78:	32 d0       	rcall	.+100    	; 0x4cde <CalcSetMem>
    4c7a:	85 e0       	ldi	r24, 0x05	; 5
    4c7c:	34 d0       	rcall	.+104    	; 0x4ce6 <CalcSetMemDel>
    4c7e:	1c 8a       	std	Y+20, r1	; 0x14
    4c80:	0c 94 8e 1d 	jmp	0x3b1c	; 0x3b1c <ExecLevelInit>

00004c84 <CalcStkEnd>:
    4c84:	e9 89       	ldd	r30, Y+17	; 0x11
    4c86:	fa 89       	ldd	r31, Y+18	; 0x12
    4c88:	08 95       	ret

00004c8a <CalcTop>:
    4c8a:	fc df       	rcall	.-8      	; 0x4c84 <CalcStkEnd>
    4c8c:	3a 97       	sbiw	r30, 0x0a	; 10
    4c8e:	08 95       	ret

00004c90 <CalcTopCheck>:
    4c90:	fc df       	rcall	.-8      	; 0x4c8a <CalcTop>
    4c92:	90 81       	ld	r25, Z
    4c94:	81 81       	ldd	r24, Z+1	; 0x01
    4c96:	01 96       	adiw	r24, 0x01	; 1
    4c98:	01 97       	sbiw	r24, 0x01	; 1
    4c9a:	08 95       	ret

00004c9c <CalcPreTop>:
    4c9c:	f3 df       	rcall	.-26     	; 0x4c84 <CalcStkEnd>
    4c9e:	74 97       	sbiw	r30, 0x14	; 20
    4ca0:	08 95       	ret

00004ca2 <CalcTop2>:
    4ca2:	f3 df       	rcall	.-26     	; 0x4c8a <CalcTop>
    4ca4:	df 01       	movw	r26, r30
    4ca6:	1a 97       	sbiw	r26, 0x0a	; 10
    4ca8:	08 95       	ret

00004caa <ExcXZ>:
    4caa:	ea 27       	eor	r30, r26
    4cac:	ae 27       	eor	r26, r30
    4cae:	ea 27       	eor	r30, r26
    4cb0:	fb 27       	eor	r31, r27
    4cb2:	bf 27       	eor	r27, r31
    4cb4:	fb 27       	eor	r31, r27

00004cb6 <ExcXZ2>:
    4cb6:	08 95       	ret

00004cb8 <CalcNew>:
    4cb8:	e5 df       	rcall	.-54     	; 0x4c84 <CalcStkEnd>
    4cba:	3a 96       	adiw	r30, 0x0a	; 10
    4cbc:	8f d2       	rcall	.+1310   	; 0x51dc <CalcDel2>
    4cbe:	3a 97       	sbiw	r30, 0x0a	; 10
    4cc0:	8f 93       	push	r24
    4cc2:	88 e0       	ldi	r24, 0x08	; 8
    4cc4:	e5 30       	cpi	r30, 0x05	; 5
    4cc6:	f8 07       	cpc	r31, r24
    4cc8:	8f 91       	pop	r24
    4cca:	a8 f3       	brcs	.-22     	; 0x4cb6 <ExcXZ2>
    4ccc:	0c 94 ac 02 	jmp	0x558	; 0x558 <Fatal>

00004cd0 <CalcAddrMem>:
    4cd0:	ea e0       	ldi	r30, 0x0A	; 10
    4cd2:	e8 9f       	mul	r30, r24
    4cd4:	f0 01       	movw	r30, r0
    4cd6:	e6 59       	subi	r30, 0x96	; 150
    4cd8:	fe 4f       	sbci	r31, 0xFE	; 254
    4cda:	11 24       	eor	r1, r1
    4cdc:	08 95       	ret

00004cde <CalcSetMem>:
    4cde:	f8 df       	rcall	.-16     	; 0x4cd0 <CalcAddrMem>
    4ce0:	df 01       	movw	r26, r30
    4ce2:	d3 df       	rcall	.-90     	; 0x4c8a <CalcTop>
    4ce4:	8c c3       	rjmp	.+1816   	; 0x53fe <CalcCopyNum>

00004ce6 <CalcSetMemDel>:
    4ce6:	fb df       	rcall	.-10     	; 0x4cde <CalcSetMem>
    4ce8:	70 c2       	rjmp	.+1248   	; 0x51ca <CalcDel>

00004cea <CalcGetMem>:
    4cea:	f2 df       	rcall	.-28     	; 0x4cd0 <CalcAddrMem>

00004cec <CalcGetMemZ>:
    4cec:	cf 01       	movw	r24, r30
    4cee:	e4 df       	rcall	.-56     	; 0x4cb8 <CalcNew>
    4cf0:	df 01       	movw	r26, r30
    4cf2:	fc 01       	movw	r30, r24
    4cf4:	84 c3       	rjmp	.+1800   	; 0x53fe <CalcCopyNum>

00004cf6 <CalcPrepMul>:
    4cf6:	90 81       	ld	r25, Z
    4cf8:	81 81       	ldd	r24, Z+1	; 0x01
    4cfa:	01 96       	adiw	r24, 0x01	; 1
    4cfc:	01 97       	sbiw	r24, 0x01	; 1
    4cfe:	21 f0       	breq	.+8      	; 0x4d08 <CalcPrepMul9>
    4d00:	82 81       	ldd	r24, Z+2	; 0x02
    4d02:	78 27       	eor	r23, r24
    4d04:	80 68       	ori	r24, 0x80	; 128
    4d06:	82 83       	std	Z+2, r24	; 0x02

00004d08 <CalcPrepMul9>:
    4d08:	08 95       	ret

00004d0a <CalcMul6>:
    4d0a:	cf df       	rcall	.-98     	; 0x4caa <ExcXZ>
    4d0c:	f4 df       	rcall	.-24     	; 0x4cf6 <CalcPrepMul>
    4d0e:	21 f0       	breq	.+8      	; 0x4d18 <CalcMul7>

00004d10 <CalcMul62>:
    4d10:	b4 d2       	rcall	.+1384   	; 0x527a <CalcError>
    4d12:	c4 df       	rcall	.-120    	; 0x4c9c <CalcPreTop>
    4d14:	5b dd       	rcall	.-1354   	; 0x47cc <CalcZOver>
    4d16:	59 c2       	rjmp	.+1202   	; 0x51ca <CalcDel>

00004d18 <CalcMul7>:
    4d18:	b0 d2       	rcall	.+1376   	; 0x527a <CalcError>
    4d1a:	c0 df       	rcall	.-128    	; 0x4c9c <CalcPreTop>
    4d1c:	7f 93       	push	r23
    4d1e:	4a dd       	rcall	.-1388   	; 0x47b4 <CalcZ1>
    4d20:	7f 91       	pop	r23
    4d22:	77 23       	and	r23, r23
    4d24:	0a f4       	brpl	.+2      	; 0x4d28 <CalcMul7+0x10>
    4d26:	6f dd       	rcall	.-1314   	; 0x4806 <CalcNeg>
    4d28:	50 c2       	rjmp	.+1184   	; 0x51ca <CalcDel>

00004d2a <CalcMul81>:
    4d2a:	bf df       	rcall	.-130    	; 0x4caa <ExcXZ>
    4d2c:	e4 df       	rcall	.-56     	; 0x4cf6 <CalcPrepMul>
    4d2e:	a0 f3       	brcs	.-24     	; 0x4d18 <CalcMul7>

00004d30 <CalcMul82>:
    4d30:	b5 df       	rcall	.-150    	; 0x4c9c <CalcPreTop>
    4d32:	3e dd       	rcall	.-1412   	; 0x47b0 <CalcZ0>
    4d34:	4a c2       	rjmp	.+1172   	; 0x51ca <CalcDel>

00004d36 <CalcMul>:
    4d36:	b5 df       	rcall	.-150    	; 0x4ca2 <CalcTop2>
    4d38:	77 27       	eor	r23, r23
    4d3a:	dd df       	rcall	.-70     	; 0x4cf6 <CalcPrepMul>
    4d3c:	30 f3       	brcs	.-52     	; 0x4d0a <CalcMul6>
    4d3e:	a9 f3       	breq	.-22     	; 0x4d2a <CalcMul81>
    4d40:	b4 df       	rcall	.-152    	; 0x4caa <ExcXZ>
    4d42:	d9 df       	rcall	.-78     	; 0x4cf6 <CalcPrepMul>
    4d44:	28 f3       	brcs	.-54     	; 0x4d10 <CalcMul62>
    4d46:	a1 f3       	breq	.-24     	; 0x4d30 <CalcMul82>
    4d48:	97 2f       	mov	r25, r23
    4d4a:	62 d3       	rcall	.+1732   	; 0x5410 <CalcFetch2>
    4d4c:	88 27       	eor	r24, r24
    4d4e:	6c 0d       	add	r22, r12
    4d50:	7d 1d       	adc	r23, r13
    4d52:	88 1f       	adc	r24, r24
    4d54:	32 dc       	rcall	.-1948   	; 0x45ba <MulMant>
    4d56:	db 01       	movw	r26, r22
    4d58:	af 5f       	subi	r26, 0xFF	; 255
    4d5a:	bf 47       	sbci	r27, 0x7F	; 127
    4d5c:	81 09       	sbc	r24, r1

00004d5e <CalcMulNorm>:
    4d5e:	74 e3       	ldi	r23, 0x34	; 52

00004d60 <CalcMulNorm2>:
    4d60:	57 fd       	sbrc	r21, 7
    4d62:	08 c0       	rjmp	.+16     	; 0x4d74 <CalcMulNorm5>
    4d64:	dd 0c       	add	r13, r13
    4d66:	94 d2       	rcall	.+1320   	; 0x5290 <CalcMantRol>
    4d68:	11 97       	sbiw	r26, 0x01	; 1
    4d6a:	81 09       	sbc	r24, r1
    4d6c:	7a 95       	dec	r23
    4d6e:	c1 f7       	brne	.-16     	; 0x4d60 <CalcMulNorm2>

00004d70 <CalcMulUnder>:
    4d70:	3e d3       	rcall	.+1660   	; 0x53ee <CalcClearNum>
    4d72:	15 c0       	rjmp	.+42     	; 0x4d9e <CalcMulSave>

00004d74 <CalcMulNorm5>:
    4d74:	dd 0c       	add	r13, r13
    4d76:	28 f4       	brcc	.+10     	; 0x4d82 <CalcMulNorm6>
    4d78:	b7 d2       	rcall	.+1390   	; 0x52e8 <CalcMantInc>
    4d7a:	19 f4       	brne	.+6      	; 0x4d82 <CalcMulNorm6>
    4d7c:	50 e8       	ldi	r21, 0x80	; 128
    4d7e:	11 96       	adiw	r26, 0x01	; 1
    4d80:	81 1d       	adc	r24, r1

00004d82 <CalcMulNorm6>:
    4d82:	88 23       	and	r24, r24
    4d84:	aa f3       	brmi	.-22     	; 0x4d70 <CalcMulUnder>
    4d86:	69 f4       	brne	.+26     	; 0x4da2 <CalcMulOver>
    4d88:	a1 15       	cp	r26, r1
    4d8a:	b1 05       	cpc	r27, r1
    4d8c:	89 f3       	breq	.-30     	; 0x4d70 <CalcMulUnder>
    4d8e:	7f ef       	ldi	r23, 0xFF	; 255
    4d90:	af 3f       	cpi	r26, 0xFF	; 255
    4d92:	b7 07       	cpc	r27, r23
    4d94:	30 f4       	brcc	.+12     	; 0x4da2 <CalcMulOver>
    4d96:	5f 77       	andi	r21, 0x7F	; 127
    4d98:	90 78       	andi	r25, 0x80	; 128
    4d9a:	59 2b       	or	r21, r25
    4d9c:	bd 01       	movw	r22, r26

00004d9e <CalcMulSave>:
    4d9e:	75 df       	rcall	.-278    	; 0x4c8a <CalcTop>
    4da0:	02 c3       	rjmp	.+1540   	; 0x53a6 <CalcSaveNum>

00004da2 <CalcMulOver>:
    4da2:	73 df       	rcall	.-282    	; 0x4c8a <CalcTop>
    4da4:	13 dd       	rcall	.-1498   	; 0x47cc <CalcZOver>
    4da6:	69 c2       	rjmp	.+1234   	; 0x527a <CalcError>

00004da8 <CalcDiv16>:
    4da8:	02 d0       	rcall	.+4      	; 0x4dae <CalcDiv2>

00004daa <CalcDiv8>:
    4daa:	01 d0       	rcall	.+2      	; 0x4dae <CalcDiv2>

00004dac <CalcDiv4>:
    4dac:	00 d0       	rcall	.+0      	; 0x4dae <CalcDiv2>

00004dae <CalcDiv2>:
    4dae:	70 df       	rcall	.-288    	; 0x4c90 <CalcTopCheck>
    4db0:	c0 f3       	brcs	.-16     	; 0x4da2 <CalcMulOver>
    4db2:	19 f0       	breq	.+6      	; 0x4dba <CalcDiv29>
    4db4:	01 97       	sbiw	r24, 0x01	; 1

00004db6 <CalcDiv26>:
    4db6:	81 83       	std	Z+1, r24	; 0x01
    4db8:	90 83       	st	Z, r25

00004dba <CalcDiv29>:
    4dba:	08 95       	ret

00004dbc <CalcMul16>:
    4dbc:	02 d0       	rcall	.+4      	; 0x4dc2 <CalcMul2>

00004dbe <CalcMul8>:
    4dbe:	01 d0       	rcall	.+2      	; 0x4dc2 <CalcMul2>

00004dc0 <CalcMul4>:
    4dc0:	00 d0       	rcall	.+0      	; 0x4dc2 <CalcMul2>

00004dc2 <CalcMul2>:
    4dc2:	66 df       	rcall	.-308    	; 0x4c90 <CalcTopCheck>
    4dc4:	70 f3       	brcs	.-36     	; 0x4da2 <CalcMulOver>
    4dc6:	c9 f3       	breq	.-14     	; 0x4dba <CalcDiv29>
    4dc8:	01 96       	adiw	r24, 0x01	; 1
    4dca:	f5 cf       	rjmp	.-22     	; 0x4db6 <CalcDiv26>

00004dcc <CalcLeft>:
    4dcc:	59 d3       	rcall	.+1714   	; 0x5480 <CalcUnstackW>
    4dce:	48 f3       	brcs	.-46     	; 0x4da2 <CalcMulOver>
    4dd0:	bc 01       	movw	r22, r24
    4dd2:	5e df       	rcall	.-324    	; 0x4c90 <CalcTopCheck>
    4dd4:	30 f3       	brcs	.-52     	; 0x4da2 <CalcMulOver>
    4dd6:	89 f3       	breq	.-30     	; 0x4dba <CalcDiv29>
    4dd8:	86 0f       	add	r24, r22
    4dda:	97 1f       	adc	r25, r23
    4ddc:	10 f3       	brcs	.-60     	; 0x4da2 <CalcMulOver>
    4dde:	eb cf       	rjmp	.-42     	; 0x4db6 <CalcDiv26>

00004de0 <CalcRight>:
    4de0:	4f d3       	rcall	.+1694   	; 0x5480 <CalcUnstackW>
    4de2:	f8 f2       	brcs	.-66     	; 0x4da2 <CalcMulOver>
    4de4:	bc 01       	movw	r22, r24
    4de6:	54 df       	rcall	.-344    	; 0x4c90 <CalcTopCheck>
    4de8:	e0 f2       	brcs	.-72     	; 0x4da2 <CalcMulOver>
    4dea:	39 f3       	breq	.-50     	; 0x4dba <CalcDiv29>
    4dec:	86 1b       	sub	r24, r22
    4dee:	97 0b       	sbc	r25, r23
    4df0:	10 f7       	brcc	.-60     	; 0x4db6 <CalcDiv26>
    4df2:	88 27       	eor	r24, r24
    4df4:	99 27       	eor	r25, r25
    4df6:	df cf       	rjmp	.-66     	; 0x4db6 <CalcDiv26>

00004df8 <CalcDiv6>:
    4df8:	58 df       	rcall	.-336    	; 0x4caa <ExcXZ>
    4dfa:	7d df       	rcall	.-262    	; 0x4cf6 <CalcPrepMul>
    4dfc:	09 f0       	breq	.+2      	; 0x4e00 <CalcDiv7>

00004dfe <CalcDiv62>:
    4dfe:	88 cf       	rjmp	.-240    	; 0x4d10 <CalcMul62>

00004e00 <CalcDiv7>:
    4e00:	8b cf       	rjmp	.-234    	; 0x4d18 <CalcMul7>

00004e02 <CalcDiv81>:
    4e02:	53 df       	rcall	.-346    	; 0x4caa <ExcXZ>
    4e04:	78 df       	rcall	.-272    	; 0x4cf6 <CalcPrepMul>
    4e06:	e0 f3       	brcs	.-8      	; 0x4e00 <CalcDiv7>

00004e08 <CalcDiv82>:
    4e08:	93 cf       	rjmp	.-218    	; 0x4d30 <CalcMul82>

00004e0a <CalcDiv>:
    4e0a:	4b df       	rcall	.-362    	; 0x4ca2 <CalcTop2>
    4e0c:	77 27       	eor	r23, r23
    4e0e:	73 df       	rcall	.-282    	; 0x4cf6 <CalcPrepMul>
    4e10:	c0 f3       	brcs	.-16     	; 0x4e02 <CalcDiv81>
    4e12:	91 f3       	breq	.-28     	; 0x4df8 <CalcDiv6>
    4e14:	4a df       	rcall	.-364    	; 0x4caa <ExcXZ>
    4e16:	6f df       	rcall	.-290    	; 0x4cf6 <CalcPrepMul>
    4e18:	90 f3       	brcs	.-28     	; 0x4dfe <CalcDiv62>
    4e1a:	b1 f3       	breq	.-20     	; 0x4e08 <CalcDiv82>
    4e1c:	97 2f       	mov	r25, r23
    4e1e:	f8 d2       	rcall	.+1520   	; 0x5410 <CalcFetch2>
    4e20:	9f 93       	push	r25
    4e22:	cf 93       	push	r28
    4e24:	df 93       	push	r29
    4e26:	ff eb       	ldi	r31, 0xBF	; 191
    4e28:	1f 2e       	mov	r1, r31
    4e2a:	88 27       	eor	r24, r24
    4e2c:	00 24       	eor	r0, r0
    4e2e:	0b c0       	rjmp	.+22     	; 0x4e46 <CalcDivLoop4>

00004e30 <CalcDivLoop>:
    4e30:	88 1f       	adc	r24, r24
    4e32:	99 1f       	adc	r25, r25
    4e34:	aa 1f       	adc	r26, r26
    4e36:	bb 1f       	adc	r27, r27
    4e38:	cc 1f       	adc	r28, r28
    4e3a:	dd 1f       	adc	r29, r29
    4e3c:	ee 1f       	adc	r30, r30
    4e3e:	ff 1f       	adc	r31, r31

00004e40 <CalcDivLoop2>:
    4e40:	88 94       	clc
    4e42:	26 d2       	rcall	.+1100   	; 0x5290 <CalcMantRol>
    4e44:	28 f0       	brcs	.+10     	; 0x4e50 <CalcDivLoop6>

00004e46 <CalcDivLoop4>:
    4e46:	3f d2       	rcall	.+1150   	; 0x52c6 <CalcMantSub>
    4e48:	20 f4       	brcc	.+8      	; 0x4e52 <CalcDivLoop8>
    4e4a:	34 d2       	rcall	.+1128   	; 0x52b4 <CalcMantAdd>
    4e4c:	88 94       	clc
    4e4e:	02 c0       	rjmp	.+4      	; 0x4e54 <CalcDivLoop9>

00004e50 <CalcDivLoop6>:
    4e50:	3a d2       	rcall	.+1140   	; 0x52c6 <CalcMantSub>

00004e52 <CalcDivLoop8>:
    4e52:	08 94       	sec

00004e54 <CalcDivLoop9>:
    4e54:	13 94       	inc	r1
    4e56:	62 f3       	brmi	.-40     	; 0x4e30 <CalcDivLoop>
    4e58:	00 1c       	adc	r0, r0
    4e5a:	11 20       	and	r1, r1
    4e5c:	89 f3       	breq	.-30     	; 0x4e40 <CalcDivLoop2>
    4e5e:	6c 19       	sub	r22, r12
    4e60:	7d 09       	sbc	r23, r13
    4e62:	11 08       	sbc	r1, r1
    4e64:	d0 2c       	mov	r13, r0
    4e66:	d7 94       	ror	r13
    4e68:	d7 94       	ror	r13
    4e6a:	d7 94       	ror	r13
    4e6c:	7c 01       	movw	r14, r24
    4e6e:	8d 01       	movw	r16, r26
    4e70:	9e 01       	movw	r18, r28
    4e72:	af 01       	movw	r20, r30
    4e74:	cf ef       	ldi	r28, 0xFF	; 255
    4e76:	db 01       	movw	r26, r22
    4e78:	a0 50       	subi	r26, 0x00	; 0
    4e7a:	b0 48       	sbci	r27, 0x80	; 128
    4e7c:	1c 0a       	sbc	r1, r28
    4e7e:	81 2d       	mov	r24, r1
    4e80:	df 91       	pop	r29
    4e82:	cf 91       	pop	r28
    4e84:	11 24       	eor	r1, r1
    4e86:	9f 91       	pop	r25
    4e88:	6a cf       	rjmp	.-300    	; 0x4d5e <CalcMulNorm>

00004e8a <CalcMod>:
    4e8a:	d0 de       	rcall	.-608    	; 0x4c2c <Calc>
    4e8c:	04 04       	cpc	r0, r4
    4e8e:	23 45       	sbci	r18, 0x53	; 83
    4e90:	22 28       	or	r2, r2
    4e92:	01 00       	.word	0x0001	; ????
    4e94:	08 95       	ret

00004e96 <CalcMod2>:
    4e96:	ca de       	rcall	.-620    	; 0x4c2c <Calc>
    4e98:	04 04       	cpc	r0, r4
    4e9a:	23 46       	sbci	r18, 0x63	; 99
    4e9c:	22 28       	or	r2, r2
    4e9e:	01 00       	.word	0x0001	; ????
    4ea0:	08 95       	ret

00004ea2 <CalcPrepAdd>:
    4ea2:	76 d2       	rcall	.+1260   	; 0x5390 <CalcLoadNum>
    4ea4:	cb 01       	movw	r24, r22
    4ea6:	66 27       	eor	r22, r22
    4ea8:	00 96       	adiw	r24, 0x00	; 0
    4eaa:	29 f0       	breq	.+10     	; 0x4eb6 <CalcPrepAdd9>
    4eac:	57 fb       	bst	r21, 7
    4eae:	50 68       	ori	r21, 0x80	; 128
    4eb0:	0e f4       	brtc	.+2      	; 0x4eb4 <CalcPrepAdd8>
    4eb2:	29 d2       	rcall	.+1106   	; 0x5306 <CalcMantNeg>

00004eb4 <CalcPrepAdd8>:
    4eb4:	78 c2       	rjmp	.+1264   	; 0x53a6 <CalcSaveNum>

00004eb6 <CalcPrepAdd9>:
    4eb6:	9b d2       	rcall	.+1334   	; 0x53ee <CalcClearNum>
    4eb8:	76 c2       	rjmp	.+1260   	; 0x53a6 <CalcSaveNum>

00004eba <CalcAddShift>:
    4eba:	00 96       	adiw	r24, 0x00	; 0
    4ebc:	69 f0       	breq	.+26     	; 0x4ed8 <CalcAddShift9>
    4ebe:	99 23       	and	r25, r25
    4ec0:	51 f4       	brne	.+20     	; 0x4ed6 <CalcAddShift6>
    4ec2:	81 34       	cpi	r24, 0x41	; 65
    4ec4:	40 f4       	brcc	.+16     	; 0x4ed6 <CalcAddShift6>

00004ec6 <CalcAddShift2>:
    4ec6:	65 95       	asr	r22
    4ec8:	ec d1       	rcall	.+984    	; 0x52a2 <CalcMantRor>
    4eca:	8a 95       	dec	r24
    4ecc:	e1 f7       	brne	.-8      	; 0x4ec6 <CalcAddShift2>
    4ece:	20 f4       	brcc	.+8      	; 0x4ed8 <CalcAddShift9>
    4ed0:	0b d2       	rcall	.+1046   	; 0x52e8 <CalcMantInc>
    4ed2:	6f 4f       	sbci	r22, 0xFF	; 255
    4ed4:	09 f4       	brne	.+2      	; 0x4ed8 <CalcAddShift9>

00004ed6 <CalcAddShift6>:
    4ed6:	8c c2       	rjmp	.+1304   	; 0x53f0 <CalcClearNum2>

00004ed8 <CalcAddShift9>:
    4ed8:	08 95       	ret

00004eda <CalcSub>:
    4eda:	95 dc       	rcall	.-1750   	; 0x4806 <CalcNeg>

00004edc <CalcAdd>:
    4edc:	e2 de       	rcall	.-572    	; 0x4ca2 <CalcTop2>
    4ede:	e1 df       	rcall	.-62     	; 0x4ea2 <CalcPrepAdd>
    4ee0:	2c 01       	movw	r4, r24
    4ee2:	e3 de       	rcall	.-570    	; 0x4caa <ExcXZ>
    4ee4:	de df       	rcall	.-68     	; 0x4ea2 <CalcPrepAdd>
    4ee6:	48 16       	cp	r4, r24
    4ee8:	59 06       	cpc	r5, r25
    4eea:	38 f4       	brcc	.+14     	; 0x4efa <CalcAdd2>
    4eec:	de de       	rcall	.-580    	; 0x4caa <ExcXZ>
    4eee:	84 25       	eor	r24, r4
    4ef0:	48 26       	eor	r4, r24
    4ef2:	84 25       	eor	r24, r4
    4ef4:	95 25       	eor	r25, r5
    4ef6:	59 26       	eor	r5, r25
    4ef8:	95 25       	eor	r25, r5

00004efa <CalcAdd2>:
    4efa:	5f 92       	push	r5
    4efc:	4f 92       	push	r4
    4efe:	88 d2       	rcall	.+1296   	; 0x5410 <CalcFetch2>
    4f00:	af 91       	pop	r26
    4f02:	bf 91       	pop	r27
    4f04:	8a 1b       	sub	r24, r26
    4f06:	9b 0b       	sbc	r25, r27
    4f08:	90 95       	com	r25
    4f0a:	81 95       	neg	r24
    4f0c:	9f 4f       	sbci	r25, 0xFF	; 255
    4f0e:	d5 df       	rcall	.-86     	; 0x4eba <CalcAddShift>
    4f10:	d1 d1       	rcall	.+930    	; 0x52b4 <CalcMantAdd>
    4f12:	6c 1d       	adc	r22, r12
    4f14:	96 2f       	mov	r25, r22
    4f16:	90 78       	andi	r25, 0x80	; 128
    4f18:	19 f0       	breq	.+6      	; 0x4f20 <CalcAdd3>
    4f1a:	f5 d1       	rcall	.+1002   	; 0x5306 <CalcMantNeg>
    4f1c:	08 f0       	brcs	.+2      	; 0x4f20 <CalcAdd3>
    4f1e:	28 cf       	rjmp	.-432    	; 0x4d70 <CalcMulUnder>

00004f20 <CalcAdd3>:
    4f20:	88 27       	eor	r24, r24
    4f22:	66 23       	and	r22, r22
    4f24:	21 f0       	breq	.+8      	; 0x4f2e <CalcAdd6>
    4f26:	81 e0       	ldi	r24, 0x01	; 1
    4f28:	ce df       	rcall	.-100    	; 0x4ec6 <CalcAddShift2>
    4f2a:	11 96       	adiw	r26, 0x01	; 1
    4f2c:	88 1f       	adc	r24, r24

00004f2e <CalcAdd6>:
    4f2e:	dd 24       	eor	r13, r13
    4f30:	16 cf       	rjmp	.-468    	; 0x4d5e <CalcMulNorm>

00004f32 <CalcSqrt>:
    4f32:	7c de       	rcall	.-776    	; 0x4c2c <Calc>
    4f34:	13 09       	sbc	r17, r3
    4f36:	84 01       	movw	r16, r8

00004f38 <CalcPow>:
    4f38:	79 de       	rcall	.-782    	; 0x4c2c <Calc>
    4f3a:	12 06       	cpc	r1, r18
    4f3c:	02 02       	muls	r16, r18
    4f3e:	81 01       	movw	r16, r2
    4f40:	08 95       	ret
    4f42:	09 12       	cpse	r0, r25
    4f44:	0b 02       	muls	r16, r27
    4f46:	38 11       	cpse	r19, r8
    4f48:	03 80       	ldd	r0, Z+3	; 0x03
    4f4a:	0f f3       	brie	.-62     	; 0x4f0e <CalcAdd2+0x14>
    4f4c:	4b 16       	cp	r4, r27
    4f4e:	0f ef       	ldi	r16, 0xFF	; 255
    4f50:	03 38       	cpi	r16, 0x83	; 131
    4f52:	11 06       	cpc	r1, r17
    4f54:	43 5d       	subi	r20, 0xD3	; 211
    4f56:	22 01       	movw	r4, r4
    4f58:	4b cd       	rjmp	.-1386   	; 0x49f0 <CalcExp>
    4f5a:	04 03       	mulsu	r16, r20
    4f5c:	45 28       	or	r4, r5
    4f5e:	11 03       	mulsu	r17, r17
    4f60:	16 0f       	add	r17, r22
    4f62:	f1 04       	cpc	r15, r1
    4f64:	25 03       	mulsu	r18, r21
    4f66:	45 28       	or	r4, r5
    4f68:	11 ea       	ldi	r17, 0xA1	; 161
    4f6a:	43 5d       	subi	r20, 0xD3	; 211
    4f6c:	22 5e       	subi	r18, 0xE2	; 226
    4f6e:	41 01       	movw	r8, r2
    4f70:	08 95       	ret

00004f72 <CalcBit>:
    4f72:	8f 93       	push	r24
    4f74:	96 de       	rcall	.-724    	; 0x4ca2 <CalcTop2>
    4f76:	95 df       	rcall	.-214    	; 0x4ea2 <CalcPrepAdd>
    4f78:	2c 01       	movw	r4, r24
    4f7a:	97 de       	rcall	.-722    	; 0x4caa <ExcXZ>
    4f7c:	92 df       	rcall	.-220    	; 0x4ea2 <CalcPrepAdd>
    4f7e:	48 16       	cp	r4, r24
    4f80:	59 06       	cpc	r5, r25
    4f82:	38 f4       	brcc	.+14     	; 0x4f92 <CalcBit2>
    4f84:	92 de       	rcall	.-732    	; 0x4caa <ExcXZ>
    4f86:	84 25       	eor	r24, r4
    4f88:	48 26       	eor	r4, r24
    4f8a:	84 25       	eor	r24, r4
    4f8c:	95 25       	eor	r25, r5
    4f8e:	59 26       	eor	r5, r25
    4f90:	95 25       	eor	r25, r5

00004f92 <CalcBit2>:
    4f92:	5f 92       	push	r5
    4f94:	4f 92       	push	r4
    4f96:	3c d2       	rcall	.+1144   	; 0x5410 <CalcFetch2>
    4f98:	af 91       	pop	r26
    4f9a:	bf 91       	pop	r27
    4f9c:	8a 1b       	sub	r24, r26
    4f9e:	9b 0b       	sbc	r25, r27
    4fa0:	90 95       	com	r25
    4fa2:	81 95       	neg	r24
    4fa4:	9f 4f       	sbci	r25, 0xFF	; 255
    4fa6:	89 df       	rcall	.-238    	; 0x4eba <CalcAddShift>
    4fa8:	8f 91       	pop	r24
    4faa:	83 30       	cpi	r24, 0x03	; 3
    4fac:	51 f4       	brne	.+20     	; 0x4fc2 <CalcBit2+0x30>
    4fae:	e4 20       	and	r14, r4
    4fb0:	f5 20       	and	r15, r5
    4fb2:	06 21       	and	r16, r6
    4fb4:	17 21       	and	r17, r7
    4fb6:	28 21       	and	r18, r8
    4fb8:	39 21       	and	r19, r9
    4fba:	4a 21       	and	r20, r10
    4fbc:	5b 21       	and	r21, r11
    4fbe:	6c 21       	and	r22, r12
    4fc0:	15 c0       	rjmp	.+42     	; 0x4fec <CalcBit2+0x5a>
    4fc2:	84 30       	cpi	r24, 0x04	; 4
    4fc4:	51 f4       	brne	.+20     	; 0x4fda <CalcBit2+0x48>
    4fc6:	e4 28       	or	r14, r4
    4fc8:	f5 28       	or	r15, r5
    4fca:	06 29       	or	r16, r6
    4fcc:	17 29       	or	r17, r7
    4fce:	28 29       	or	r18, r8
    4fd0:	39 29       	or	r19, r9
    4fd2:	4a 29       	or	r20, r10
    4fd4:	5b 29       	or	r21, r11
    4fd6:	6c 29       	or	r22, r12
    4fd8:	09 c0       	rjmp	.+18     	; 0x4fec <CalcBit2+0x5a>
    4fda:	e4 24       	eor	r14, r4
    4fdc:	f5 24       	eor	r15, r5
    4fde:	06 25       	eor	r16, r6
    4fe0:	17 25       	eor	r17, r7
    4fe2:	28 25       	eor	r18, r8
    4fe4:	39 25       	eor	r19, r9
    4fe6:	4a 25       	eor	r20, r10
    4fe8:	5b 25       	eor	r21, r11
    4fea:	6c 25       	eor	r22, r12
    4fec:	96 2f       	mov	r25, r22
    4fee:	90 78       	andi	r25, 0x80	; 128
    4ff0:	19 f0       	breq	.+6      	; 0x4ff8 <CalcBit2+0x66>
    4ff2:	89 d1       	rcall	.+786    	; 0x5306 <CalcMantNeg>
    4ff4:	08 f0       	brcs	.+2      	; 0x4ff8 <CalcBit2+0x66>
    4ff6:	bc ce       	rjmp	.-648    	; 0x4d70 <CalcMulUnder>
    4ff8:	88 27       	eor	r24, r24
    4ffa:	dd 24       	eor	r13, r13
    4ffc:	b0 ce       	rjmp	.-672    	; 0x4d5e <CalcMulNorm>

00004ffe <CalcBitAnd>:
    4ffe:	83 e0       	ldi	r24, 0x03	; 3
    5000:	b8 cf       	rjmp	.-144    	; 0x4f72 <CalcBit>

00005002 <CalcBitOr>:
    5002:	84 e0       	ldi	r24, 0x04	; 4
    5004:	b6 cf       	rjmp	.-148    	; 0x4f72 <CalcBit>

00005006 <CalcBitXor>:
    5006:	85 e0       	ldi	r24, 0x05	; 5
    5008:	b4 cf       	rjmp	.-152    	; 0x4f72 <CalcBit>

0000500a <CalcFactInt>:
    500a:	81 e0       	ldi	r24, 0x01	; 1
    500c:	35 dd       	rcall	.-1430   	; 0x4a78 <CalcConst>
    500e:	01 d1       	rcall	.+514    	; 0x5212 <CalcExc>
    5010:	37 d2       	rcall	.+1134   	; 0x5480 <CalcUnstackW>
    5012:	00 96       	adiw	r24, 0x00	; 0
    5014:	41 f0       	breq	.+16     	; 0x5026 <CalcFactInt+0x1c>
    5016:	8f 93       	push	r24
    5018:	9f 93       	push	r25
    501a:	06 d2       	rcall	.+1036   	; 0x5428 <CalcStackW>
    501c:	8c de       	rcall	.-744    	; 0x4d36 <CalcMul>
    501e:	9f 91       	pop	r25
    5020:	8f 91       	pop	r24
    5022:	01 97       	sbiw	r24, 0x01	; 1
    5024:	c1 f7       	brne	.-16     	; 0x5016 <CalcFactInt+0xc>
    5026:	08 95       	ret

00005028 <CalcFactCheck>:
    5028:	33 de       	rcall	.-922    	; 0x4c90 <CalcTopCheck>
    502a:	a0 e8       	ldi	r26, 0x80	; 128
    502c:	8c 30       	cpi	r24, 0x0C	; 12
    502e:	9a 07       	cpc	r25, r26
    5030:	80 e0       	ldi	r24, 0x00	; 0
    5032:	08 f4       	brcc	.+2      	; 0x5036 <CalcFactCheck+0xe>
    5034:	81 e0       	ldi	r24, 0x01	; 1
    5036:	8f 93       	push	r24
    5038:	f6 d1       	rcall	.+1004   	; 0x5426 <CalcStackB>
    503a:	eb d0       	rcall	.+470    	; 0x5212 <CalcExc>
    503c:	8f 91       	pop	r24
    503e:	88 23       	and	r24, r24
    5040:	08 95       	ret

00005042 <CalcFactCorr>:
    5042:	81 e0       	ldi	r24, 0x01	; 1
    5044:	19 dd       	rcall	.-1486   	; 0x4a78 <CalcConst>
    5046:	ee d0       	rcall	.+476    	; 0x5224 <CalcExc2>
    5048:	e4 d0       	rcall	.+456    	; 0x5212 <CalcExc>
    504a:	22 de       	rcall	.-956    	; 0x4c90 <CalcTopCheck>
    504c:	9c e0       	ldi	r25, 0x0C	; 12
    504e:	98 1b       	sub	r25, r24
    5050:	9f 93       	push	r25
    5052:	91 db       	rcall	.-2270   	; 0x4776 <CalcInc>
    5054:	de d0       	rcall	.+444    	; 0x5212 <CalcExc>
    5056:	e6 d0       	rcall	.+460    	; 0x5224 <CalcExc2>
    5058:	d4 d0       	rcall	.+424    	; 0x5202 <CalcDup2>
    505a:	6d de       	rcall	.-806    	; 0x4d36 <CalcMul>
    505c:	e3 d0       	rcall	.+454    	; 0x5224 <CalcExc2>
    505e:	d9 d0       	rcall	.+434    	; 0x5212 <CalcExc>
    5060:	9f 91       	pop	r25
    5062:	9a 95       	dec	r25
    5064:	a9 f7       	brne	.-22     	; 0x5050 <CalcFactCorr+0xe>
    5066:	08 95       	ret

00005068 <CalcFactMain>:
    5068:	d0 d0       	rcall	.+416    	; 0x520a <CalcDup>
    506a:	ec e2       	ldi	r30, 0x2C	; 44
    506c:	f4 e0       	ldi	r31, 0x04	; 4
    506e:	ef 93       	push	r30
    5070:	ff 93       	push	r31
    5072:	0f dd       	rcall	.-1506   	; 0x4a92 <CalcConstROM>
    5074:	ce d0       	rcall	.+412    	; 0x5212 <CalcExc>
    5076:	c9 de       	rcall	.-622    	; 0x4e0a <CalcDiv>
    5078:	c4 d0       	rcall	.+392    	; 0x5202 <CalcDup2>
    507a:	30 df       	rcall	.-416    	; 0x4edc <CalcAdd>
    507c:	ff 91       	pop	r31
    507e:	ef 91       	pop	r30
    5080:	3a 97       	sbiw	r30, 0x0a	; 10
    5082:	ee 3b       	cpi	r30, 0xBE	; 190
    5084:	a1 f7       	brne	.-24     	; 0x506e <CalcFactMain+0x6>
    5086:	05 dd       	rcall	.-1526   	; 0x4a92 <CalcConstROM>
    5088:	d1 dd       	rcall	.-1118   	; 0x4c2c <Calc>
    508a:	09 23       	and	r16, r25
    508c:	99 29       	or	r25, r9
    508e:	04 28       	or	r0, r4
    5090:	04 5d       	subi	r16, 0xD4	; 212
    5092:	0a 84       	ldd	r0, Y+10	; 0x0a
    5094:	29 09       	sbc	r18, r9
    5096:	0a 22       	and	r0, r26
    5098:	29 01       	movw	r4, r18
    509a:	08 95       	ret

0000509c <CalcFact>:
    509c:	b6 d0       	rcall	.+364    	; 0x520a <CalcDup>
    509e:	b5 d0       	rcall	.+362    	; 0x520a <CalcDup>
    50a0:	e3 db       	rcall	.-2106   	; 0x4868 <CalcTrunc>
    50a2:	1b df       	rcall	.-458    	; 0x4eda <CalcSub>
    50a4:	b6 d0       	rcall	.+364    	; 0x5212 <CalcExc>
    50a6:	c0 df       	rcall	.-128    	; 0x5028 <CalcFactCheck>
    50a8:	09 f0       	breq	.+2      	; 0x50ac <CalcFact+0x10>
    50aa:	cb df       	rcall	.-106    	; 0x5042 <CalcFactCorr>
    50ac:	dd df       	rcall	.-70     	; 0x5068 <CalcFactMain>
    50ae:	a0 dc       	rcall	.-1728   	; 0x49f0 <CalcExp>
    50b0:	b0 d0       	rcall	.+352    	; 0x5212 <CalcExc>
    50b2:	ff d1       	rcall	.+1022   	; 0x54b2 <CalcUnstackB>
    50b4:	88 23       	and	r24, r24
    50b6:	11 f0       	breq	.+4      	; 0x50bc <CalcFact+0x20>
    50b8:	ac d0       	rcall	.+344    	; 0x5212 <CalcExc>
    50ba:	a7 de       	rcall	.-690    	; 0x4e0a <CalcDiv>
    50bc:	aa d0       	rcall	.+340    	; 0x5212 <CalcExc>
    50be:	e8 dd       	rcall	.-1072   	; 0x4c90 <CalcTopCheck>
    50c0:	8d d0       	rcall	.+282    	; 0x51dc <CalcDel2>
    50c2:	09 f4       	brne	.+2      	; 0x50c6 <CalcFact+0x2a>
    50c4:	c6 db       	rcall	.-2164   	; 0x4852 <CalcRound>
    50c6:	08 95       	ret

000050c8 <CalcFactLn>:
    50c8:	af df       	rcall	.-162    	; 0x5028 <CalcFactCheck>
    50ca:	21 f0       	breq	.+8      	; 0x50d4 <CalcFactLn+0xc>
    50cc:	ba df       	rcall	.-140    	; 0x5042 <CalcFactCorr>
    50ce:	aa d0       	rcall	.+340    	; 0x5224 <CalcExc2>
    50d0:	60 dc       	rcall	.-1856   	; 0x4992 <CalcLn>
    50d2:	a8 d0       	rcall	.+336    	; 0x5224 <CalcExc2>
    50d4:	c9 df       	rcall	.-110    	; 0x5068 <CalcFactMain>
    50d6:	9d d0       	rcall	.+314    	; 0x5212 <CalcExc>
    50d8:	ec d1       	rcall	.+984    	; 0x54b2 <CalcUnstackB>
    50da:	88 23       	and	r24, r24
    50dc:	11 f0       	breq	.+4      	; 0x50e2 <CalcFactLn+0x1a>
    50de:	99 d0       	rcall	.+306    	; 0x5212 <CalcExc>
    50e0:	fc de       	rcall	.-520    	; 0x4eda <CalcSub>
    50e2:	08 95       	ret

000050e4 <CalcPR>:
    50e4:	a3 dd       	rcall	.-1210   	; 0x4c2c <Calc>
    50e6:	04 04       	cpc	r0, r4
    50e8:	53 22       	and	r5, r19
    50ea:	0a 09       	sbc	r16, r10
    50ec:	52 22       	and	r5, r18
    50ee:	01 00       	.word	0x0001	; ????
    50f0:	08 95       	ret

000050f2 <CalcRP>:
    50f2:	0e 94 08 0c 	call	0x1810	; 0x1810 <FlagClrOldErr>
    50f6:	f4 99       	sbic	0x1e, 4	; 30
    50f8:	0e 94 d5 0b 	call	0x17aa	; 0x17aa <FlagSetOldErr>
    50fc:	0e 94 0e 0c 	call	0x181c	; 0x181c <FlagClrOldRun>
    5100:	f2 99       	sbic	0x1e, 2	; 30
    5102:	0e 94 db 0b 	call	0x17b6	; 0x17b6 <FlagSetOldRun>
    5106:	92 dd       	rcall	.-1244   	; 0x4c2c <Calc>
    5108:	09 12       	cpse	r0, r25
    510a:	0a 02       	muls	r16, r26
    510c:	03 42       	sbci	r16, 0x23	; 35
    510e:	95 22       	and	r9, r21
    5110:	09 43       	sbci	r16, 0x39	; 57
    5112:	09 0f       	add	r16, r25
    5114:	13 09       	sbc	r17, r3
    5116:	04 04       	cpc	r0, r4
    5118:	64 09       	sbc	r22, r4
    511a:	64 29       	or	r22, r4
    511c:	63 0a       	sbc	r6, r19
    511e:	09 04       	cpc	r0, r9
    5120:	23 58       	subi	r18, 0x83	; 131
    5122:	09 34       	cpi	r16, 0x49	; 73
    5124:	11 02       	muls	r17, r17
    5126:	96 29       	or	r25, r6
    5128:	01 00       	.word	0x0001	; ????
    512a:	0e 94 3c 0c 	call	0x1878	; 0x1878 <FlagTestOldErr>
    512e:	09 f4       	brne	.+2      	; 0x5132 <CalcRP+0x40>
    5130:	f4 98       	cbi	0x1e, 4	; 30
    5132:	0e 94 42 0c 	call	0x1884	; 0x1884 <FlagTestOldRun>
    5136:	09 f0       	breq	.+2      	; 0x513a <CalcRP+0x48>
    5138:	f2 9a       	sbi	0x1e, 2	; 30
    513a:	08 95       	ret

0000513c <CalcSND>:
    513c:	77 dd       	rcall	.-1298   	; 0x4c2c <Calc>
    513e:	64 5e       	subi	r22, 0xE4	; 228
    5140:	97 22       	and	r9, r23
    5142:	63 3e       	cpi	r22, 0xE3	; 227
    5144:	01 00       	.word	0x0001	; ????
    5146:	08 95       	ret

00005148 <CalcCGD>:
    5148:	71 dd       	rcall	.-1310   	; 0x4c2c <Calc>
    514a:	50 81       	ld	r21, Z
    514c:	28 41       	sbci	r18, 0x18	; 24
    514e:	01 00       	.word	0x0001	; ????
    5150:	08 95       	ret

00005152 <CalcCND>:
    5152:	6c dd       	rcall	.-1320   	; 0x4c2c <Calc>
    5154:	03 1f       	adc	r16, r19
    5156:	08 35       	cpi	r16, 0x58	; 88
    5158:	10 28       	or	r1, r0
    515a:	03 1f       	adc	r16, r19
    515c:	08 41       	sbci	r16, 0x18	; 24
    515e:	36 10       	cpse	r3, r6
    5160:	25 03       	mulsu	r18, r21
    5162:	4e 09       	sbc	r20, r14
    5164:	03 64       	ori	r16, 0x43	; 67
    5166:	81 0a       	sbc	r8, r17
    5168:	03 09       	sbc	r16, r3
    516a:	09 05       	cpc	r16, r9
    516c:	22 0c       	add	r2, r2
    516e:	83 29       	or	r24, r3
    5170:	0c 06       	cpc	r0, r28
    5172:	23 09       	sbc	r18, r3
    5174:	04 17       	cp	r16, r20
    5176:	f3 0c       	add	r15, r3
    5178:	02 02       	muls	r16, r18
    517a:	02 22       	and	r0, r18
    517c:	84 29       	or	r24, r4
    517e:	01 00       	.word	0x0001	; ????
    5180:	08 95       	ret
    5182:	02 81       	ldd	r16, Z+2	; 0x02
    5184:	0f f8       	.word	0xf80f	; ????
    5186:	02 80       	ldd	r0, Z+2	; 0x02
    5188:	0f f4       	brid	.+2      	; 0x518c <CalcGcd+0x2>

0000518a <CalcGcd>:
    518a:	50 dd       	rcall	.-1376   	; 0x4c2c <Calc>
    518c:	48 13       	cpse	r20, r24
    518e:	11 09       	sbc	r17, r1
    5190:	48 13       	cpse	r20, r24
    5192:	0d 04       	cpc	r0, r13
    5194:	26 48       	sbci	r18, 0x86	; 134
    5196:	13 03       	mulsu	r17, r19
    5198:	09 0f       	add	r16, r25
    519a:	f8 02       	muls	r31, r24
    519c:	01 00       	.word	0x0001	; ????
    519e:	08 95       	ret
    51a0:	02 02       	muls	r16, r18
    51a2:	81 00       	.word	0x0081	; ????
    51a4:	08 95       	ret

000051a6 <CalcFraNorm>:
    51a6:	42 dd       	rcall	.-1404   	; 0x4c2c <Calc>
    51a8:	04 04       	cpc	r0, r4
    51aa:	30 03       	mulsu	r19, r16
    51ac:	0c 09       	sbc	r16, r12
    51ae:	23 48       	sbci	r18, 0x83	; 131
    51b0:	0a 23       	and	r16, r26
    51b2:	48 01       	movw	r8, r16
    51b4:	08 95       	ret

000051b6 <CalcNop>:
    51b6:	08 95       	ret

000051b8 <CalcEnd>:
    51b8:	ff 91       	pop	r31
    51ba:	ef 91       	pop	r30
    51bc:	f1 01       	movw	r30, r2
    51be:	3f 90       	pop	r3
    51c0:	2f 90       	pop	r2
    51c2:	31 96       	adiw	r30, 0x01	; 1
    51c4:	f6 95       	lsr	r31
    51c6:	e7 95       	ror	r30
    51c8:	09 94       	ijmp

000051ca <CalcDel>:
    51ca:	5f dd       	rcall	.-1346   	; 0x4c8a <CalcTop>
    51cc:	8f 93       	push	r24
    51ce:	86 e0       	ldi	r24, 0x06	; 6
    51d0:	e7 3f       	cpi	r30, 0xF7	; 247
    51d2:	f8 07       	cpc	r31, r24
    51d4:	8f 91       	pop	r24
    51d6:	11 f4       	brne	.+4      	; 0x51dc <CalcDel2>
    51d8:	0c 94 ac 02 	jmp	0x558	; 0x558 <Fatal>

000051dc <CalcDel2>:
    51dc:	e9 8b       	std	Y+17, r30	; 0x11
    51de:	fa 8b       	std	Y+18, r31	; 0x12
    51e0:	08 95       	ret

000051e2 <CalcDup6>:
    51e2:	6a dd       	rcall	.-1324   	; 0x4cb8 <CalcNew>
    51e4:	df 01       	movw	r26, r30
    51e6:	fc 97       	sbiw	r30, 0x3c	; 60
    51e8:	0a c1       	rjmp	.+532    	; 0x53fe <CalcCopyNum>

000051ea <CalcDup5>:
    51ea:	66 dd       	rcall	.-1332   	; 0x4cb8 <CalcNew>
    51ec:	df 01       	movw	r26, r30
    51ee:	f2 97       	sbiw	r30, 0x32	; 50
    51f0:	06 c1       	rjmp	.+524    	; 0x53fe <CalcCopyNum>

000051f2 <CalcDup4>:
    51f2:	62 dd       	rcall	.-1340   	; 0x4cb8 <CalcNew>
    51f4:	df 01       	movw	r26, r30
    51f6:	b8 97       	sbiw	r30, 0x28	; 40
    51f8:	02 c1       	rjmp	.+516    	; 0x53fe <CalcCopyNum>

000051fa <CalcDup3>:
    51fa:	5e dd       	rcall	.-1348   	; 0x4cb8 <CalcNew>
    51fc:	df 01       	movw	r26, r30
    51fe:	7e 97       	sbiw	r30, 0x1e	; 30
    5200:	fe c0       	rjmp	.+508    	; 0x53fe <CalcCopyNum>

00005202 <CalcDup2>:
    5202:	5a dd       	rcall	.-1356   	; 0x4cb8 <CalcNew>
    5204:	df 01       	movw	r26, r30
    5206:	74 97       	sbiw	r30, 0x14	; 20
    5208:	fa c0       	rjmp	.+500    	; 0x53fe <CalcCopyNum>

0000520a <CalcDup>:
    520a:	56 dd       	rcall	.-1364   	; 0x4cb8 <CalcNew>
    520c:	df 01       	movw	r26, r30
    520e:	3a 97       	sbiw	r30, 0x0a	; 10
    5210:	f6 c0       	rjmp	.+492    	; 0x53fe <CalcCopyNum>

00005212 <CalcExc>:
    5212:	47 dd       	rcall	.-1394   	; 0x4ca2 <CalcTop2>

00005214 <CalcExcXZ>:
    5214:	7a e0       	ldi	r23, 0x0A	; 10
    5216:	80 81       	ld	r24, Z
    5218:	9c 91       	ld	r25, X
    521a:	8d 93       	st	X+, r24
    521c:	91 93       	st	Z+, r25
    521e:	7a 95       	dec	r23
    5220:	d1 f7       	brne	.-12     	; 0x5216 <CalcExcXZ+0x2>
    5222:	08 95       	ret

00005224 <CalcExc2>:
    5224:	3e dd       	rcall	.-1412   	; 0x4ca2 <CalcTop2>
    5226:	1a 97       	sbiw	r26, 0x0a	; 10
    5228:	f5 cf       	rjmp	.-22     	; 0x5214 <CalcExcXZ>

0000522a <CalcExc23>:
    522a:	3b dd       	rcall	.-1418   	; 0x4ca2 <CalcTop2>
    522c:	74 97       	sbiw	r30, 0x14	; 20
    522e:	f2 cf       	rjmp	.-28     	; 0x5214 <CalcExcXZ>

00005230 <CalcExc3>:
    5230:	38 dd       	rcall	.-1424   	; 0x4ca2 <CalcTop2>
    5232:	54 97       	sbiw	r26, 0x14	; 20
    5234:	ef cf       	rjmp	.-34     	; 0x5214 <CalcExcXZ>

00005236 <CalcExc4>:
    5236:	35 dd       	rcall	.-1430   	; 0x4ca2 <CalcTop2>
    5238:	5e 97       	sbiw	r26, 0x1e	; 30
    523a:	ec cf       	rjmp	.-40     	; 0x5214 <CalcExcXZ>

0000523c <CalcExc5>:
    523c:	32 dd       	rcall	.-1436   	; 0x4ca2 <CalcTop2>
    523e:	98 97       	sbiw	r26, 0x28	; 40
    5240:	e9 cf       	rjmp	.-46     	; 0x5214 <CalcExcXZ>

00005242 <CalcJump>:
    5242:	73 d1       	rcall	.+742    	; 0x552a <CalcLit>
    5244:	90 e0       	ldi	r25, 0x00	; 0
    5246:	88 23       	and	r24, r24
    5248:	0a f4       	brpl	.+2      	; 0x524c <CalcJump2>
    524a:	9f ef       	ldi	r25, 0xFF	; 255

0000524c <CalcJump2>:
    524c:	28 0e       	add	r2, r24
    524e:	39 1e       	adc	r3, r25
    5250:	08 95       	ret

00005252 <CalcJumpT>:
    5252:	1e dd       	rcall	.-1476   	; 0x4c90 <CalcTopCheck>
    5254:	c3 df       	rcall	.-122    	; 0x51dc <CalcDel2>

00005256 <CalcJumpT2>:
    5256:	a9 f7       	brne	.-22     	; 0x5242 <CalcJump>
    5258:	68 c1       	rjmp	.+720    	; 0x552a <CalcLit>

0000525a <CalcJumpF>:
    525a:	1a dd       	rcall	.-1484   	; 0x4c90 <CalcTopCheck>
    525c:	bf df       	rcall	.-130    	; 0x51dc <CalcDel2>

0000525e <CalcJumpF2>:
    525e:	89 f3       	breq	.-30     	; 0x5242 <CalcJump>
    5260:	64 c1       	rjmp	.+712    	; 0x552a <CalcLit>

00005262 <CalcJumpNZ>:
    5262:	16 dd       	rcall	.-1492   	; 0x4c90 <CalcTopCheck>
    5264:	f8 cf       	rjmp	.-16     	; 0x5256 <CalcJumpT2>

00005266 <CalcJumpZ>:
    5266:	14 dd       	rcall	.-1496   	; 0x4c90 <CalcTopCheck>
    5268:	fa cf       	rjmp	.-12     	; 0x525e <CalcJumpF2>

0000526a <CalcJumpErr>:
    526a:	f4 99       	sbic	0x1e, 4	; 30
    526c:	ea cf       	rjmp	.-44     	; 0x5242 <CalcJump>
    526e:	f5 99       	sbic	0x1e, 5	; 30
    5270:	e8 cf       	rjmp	.-48     	; 0x5242 <CalcJump>
    5272:	5b c1       	rjmp	.+694    	; 0x552a <CalcLit>

00005274 <CalcJumpBreak>:
    5274:	f2 9b       	sbis	0x1e, 2	; 30
    5276:	e5 cf       	rjmp	.-54     	; 0x5242 <CalcJump>
    5278:	58 c1       	rjmp	.+688    	; 0x552a <CalcLit>

0000527a <CalcError>:
    527a:	f4 9a       	sbi	0x1e, 4	; 30
    527c:	8f 93       	push	r24
    527e:	88 e0       	ldi	r24, 0x08	; 8
    5280:	0e 94 4b 0c 	call	0x1896	; 0x1896 <UserFlagTest>
    5284:	8f 91       	pop	r24
    5286:	11 f0       	breq	.+4      	; 0x528c <CalcError2>
    5288:	0e 94 c1 11 	call	0x2382	; 0x2382 <StopProg>

0000528c <CalcError2>:
    528c:	08 94       	sec
    528e:	08 95       	ret

00005290 <CalcMantRol>:
    5290:	ee 1c       	adc	r14, r14
    5292:	ff 1c       	adc	r15, r15
    5294:	00 1f       	adc	r16, r16
    5296:	11 1f       	adc	r17, r17
    5298:	22 1f       	adc	r18, r18
    529a:	33 1f       	adc	r19, r19
    529c:	44 1f       	adc	r20, r20
    529e:	55 1f       	adc	r21, r21
    52a0:	08 95       	ret

000052a2 <CalcMantRor>:
    52a2:	57 95       	ror	r21
    52a4:	47 95       	ror	r20
    52a6:	37 95       	ror	r19
    52a8:	27 95       	ror	r18
    52aa:	17 95       	ror	r17
    52ac:	07 95       	ror	r16
    52ae:	f7 94       	ror	r15
    52b0:	e7 94       	ror	r14
    52b2:	08 95       	ret

000052b4 <CalcMantAdd>:
    52b4:	e4 0c       	add	r14, r4
    52b6:	f5 1c       	adc	r15, r5
    52b8:	06 1d       	adc	r16, r6
    52ba:	17 1d       	adc	r17, r7
    52bc:	28 1d       	adc	r18, r8
    52be:	39 1d       	adc	r19, r9
    52c0:	4a 1d       	adc	r20, r10
    52c2:	5b 1d       	adc	r21, r11
    52c4:	08 95       	ret

000052c6 <CalcMantSub>:
    52c6:	e4 18       	sub	r14, r4
    52c8:	f5 08       	sbc	r15, r5
    52ca:	06 09       	sbc	r16, r6
    52cc:	17 09       	sbc	r17, r7
    52ce:	28 09       	sbc	r18, r8
    52d0:	39 09       	sbc	r19, r9
    52d2:	4a 09       	sbc	r20, r10
    52d4:	5b 09       	sbc	r21, r11
    52d6:	08 95       	ret

000052d8 <CalcMantSbc0>:
    52d8:	f1 08       	sbc	r15, r1
    52da:	01 09       	sbc	r16, r1
    52dc:	11 09       	sbc	r17, r1
    52de:	21 09       	sbc	r18, r1
    52e0:	31 09       	sbc	r19, r1
    52e2:	41 09       	sbc	r20, r1
    52e4:	51 09       	sbc	r21, r1
    52e6:	08 95       	ret

000052e8 <CalcMantInc>:
    52e8:	1f 92       	push	r1
    52ea:	1a 94       	dec	r1
    52ec:	e1 18       	sub	r14, r1
    52ee:	f4 df       	rcall	.-24     	; 0x52d8 <CalcMantSbc0>
    52f0:	1f 90       	pop	r1
    52f2:	08 95       	ret

000052f4 <CalcMantNot>:
    52f4:	e0 94       	com	r14

000052f6 <CalcMantNot2>:
    52f6:	f0 94       	com	r15
    52f8:	00 95       	com	r16
    52fa:	10 95       	com	r17
    52fc:	20 95       	com	r18
    52fe:	30 95       	com	r19
    5300:	40 95       	com	r20
    5302:	50 95       	com	r21
    5304:	08 95       	ret

00005306 <CalcMantNeg>:
    5306:	1a 94       	dec	r1
    5308:	60 95       	com	r22
    530a:	f5 df       	rcall	.-22     	; 0x52f6 <CalcMantNot2>
    530c:	e1 94       	neg	r14
    530e:	e4 df       	rcall	.-56     	; 0x52d8 <CalcMantSbc0>
    5310:	61 09       	sbc	r22, r1
    5312:	13 94       	inc	r1
    5314:	08 95       	ret

00005316 <PushAll>:
    5316:	1f 90       	pop	r1
    5318:	0f 90       	pop	r0
    531a:	4f 92       	push	r4
    531c:	5f 92       	push	r5
    531e:	6f 92       	push	r6
    5320:	7f 92       	push	r7
    5322:	8f 92       	push	r8
    5324:	9f 92       	push	r9
    5326:	af 92       	push	r10
    5328:	bf 92       	push	r11
    532a:	cf 92       	push	r12
    532c:	df 92       	push	r13
    532e:	ef 92       	push	r14
    5330:	ff 92       	push	r15
    5332:	0f 93       	push	r16
    5334:	1f 93       	push	r17
    5336:	2f 93       	push	r18
    5338:	3f 93       	push	r19
    533a:	4f 93       	push	r20
    533c:	5f 93       	push	r21
    533e:	6f 93       	push	r22
    5340:	7f 93       	push	r23
    5342:	8f 93       	push	r24
    5344:	9f 93       	push	r25
    5346:	af 93       	push	r26
    5348:	bf 93       	push	r27
    534a:	ef 93       	push	r30
    534c:	ff 93       	push	r31

0000534e <PushAll2>:
    534e:	0f 92       	push	r0
    5350:	1f 92       	push	r1
    5352:	11 24       	eor	r1, r1
    5354:	08 95       	ret

00005356 <PopAll>:
    5356:	1f 90       	pop	r1
    5358:	0f 90       	pop	r0
    535a:	ff 91       	pop	r31
    535c:	ef 91       	pop	r30
    535e:	bf 91       	pop	r27
    5360:	af 91       	pop	r26
    5362:	9f 91       	pop	r25
    5364:	8f 91       	pop	r24
    5366:	7f 91       	pop	r23
    5368:	6f 91       	pop	r22
    536a:	5f 91       	pop	r21
    536c:	4f 91       	pop	r20
    536e:	3f 91       	pop	r19
    5370:	2f 91       	pop	r18
    5372:	1f 91       	pop	r17
    5374:	0f 91       	pop	r16
    5376:	ff 90       	pop	r15
    5378:	ef 90       	pop	r14
    537a:	df 90       	pop	r13
    537c:	cf 90       	pop	r12
    537e:	bf 90       	pop	r11
    5380:	af 90       	pop	r10
    5382:	9f 90       	pop	r9
    5384:	8f 90       	pop	r8
    5386:	7f 90       	pop	r7
    5388:	6f 90       	pop	r6
    538a:	5f 90       	pop	r5
    538c:	4f 90       	pop	r4
    538e:	df cf       	rjmp	.-66     	; 0x534e <PushAll2>

00005390 <CalcLoadNum>:
    5390:	70 81       	ld	r23, Z
    5392:	61 81       	ldd	r22, Z+1	; 0x01
    5394:	52 81       	ldd	r21, Z+2	; 0x02
    5396:	43 81       	ldd	r20, Z+3	; 0x03
    5398:	34 81       	ldd	r19, Z+4	; 0x04
    539a:	25 81       	ldd	r18, Z+5	; 0x05
    539c:	16 81       	ldd	r17, Z+6	; 0x06
    539e:	07 81       	ldd	r16, Z+7	; 0x07
    53a0:	f0 84       	ldd	r15, Z+8	; 0x08
    53a2:	e1 84       	ldd	r14, Z+9	; 0x09
    53a4:	08 95       	ret

000053a6 <CalcSaveNum>:
    53a6:	70 83       	st	Z, r23
    53a8:	61 83       	std	Z+1, r22	; 0x01
    53aa:	52 83       	std	Z+2, r21	; 0x02
    53ac:	43 83       	std	Z+3, r20	; 0x03
    53ae:	34 83       	std	Z+4, r19	; 0x04
    53b0:	25 83       	std	Z+5, r18	; 0x05
    53b2:	16 83       	std	Z+6, r17	; 0x06
    53b4:	07 83       	std	Z+7, r16	; 0x07
    53b6:	f0 86       	std	Z+8, r15	; 0x08
    53b8:	e1 86       	std	Z+9, r14	; 0x09
    53ba:	08 95       	ret

000053bc <CalcPreCor>:
    53bc:	66 dc       	rcall	.-1844   	; 0x4c8a <CalcTop>
    53be:	e8 df       	rcall	.-48     	; 0x5390 <CalcLoadNum>
    53c0:	95 2f       	mov	r25, r21
    53c2:	50 68       	ori	r21, 0x80	; 128
    53c4:	8a ef       	ldi	r24, 0xFA	; 250
    53c6:	e8 0e       	add	r14, r24
    53c8:	f1 1c       	adc	r15, r1
    53ca:	01 1d       	adc	r16, r1
    53cc:	11 1d       	adc	r17, r1
    53ce:	21 1d       	adc	r18, r1
    53d0:	31 1d       	adc	r19, r1
    53d2:	41 1d       	adc	r20, r1
    53d4:	51 1d       	adc	r21, r1
    53d6:	38 f4       	brcc	.+14     	; 0x53e6 <CalcPreCor+0x2a>
    53d8:	64 df       	rcall	.-312    	; 0x52a2 <CalcMantRor>
    53da:	63 95       	inc	r22
    53dc:	21 f4       	brne	.+8      	; 0x53e6 <CalcPreCor+0x2a>
    53de:	73 95       	inc	r23
    53e0:	11 f4       	brne	.+4      	; 0x53e6 <CalcPreCor+0x2a>
    53e2:	0e 94 e6 23 	call	0x47cc	; 0x47cc <CalcZOver>
    53e6:	90 78       	andi	r25, 0x80	; 128
    53e8:	5f 77       	andi	r21, 0x7F	; 127
    53ea:	59 2b       	or	r21, r25
    53ec:	dc cf       	rjmp	.-72     	; 0x53a6 <CalcSaveNum>

000053ee <CalcClearNum>:
    53ee:	77 27       	eor	r23, r23

000053f0 <CalcClearNum2>:
    53f0:	66 27       	eor	r22, r22
    53f2:	55 27       	eor	r21, r21
    53f4:	44 27       	eor	r20, r20
    53f6:	9a 01       	movw	r18, r20
    53f8:	8a 01       	movw	r16, r20
    53fa:	7a 01       	movw	r14, r20
    53fc:	08 95       	ret

000053fe <CalcCopyNum>:
    53fe:	9a e0       	ldi	r25, 0x0A	; 10
    5400:	81 91       	ld	r24, Z+
    5402:	8d 93       	st	X+, r24
    5404:	9a 95       	dec	r25
    5406:	e1 f7       	brne	.-8      	; 0x5400 <CalcCopyNum+0x2>
    5408:	08 95       	ret

0000540a <CalcFetch>:
    540a:	3f dc       	rcall	.-1922   	; 0x4c8a <CalcTop>

0000540c <CalcFetch1>:
    540c:	c1 df       	rcall	.-126    	; 0x5390 <CalcLoadNum>
    540e:	dd ce       	rjmp	.-582    	; 0x51ca <CalcDel>

00005410 <CalcFetch2>:
    5410:	dd 90       	ld	r13, X+
    5412:	cd 90       	ld	r12, X+
    5414:	bd 90       	ld	r11, X+
    5416:	ad 90       	ld	r10, X+
    5418:	9d 90       	ld	r9, X+
    541a:	8d 90       	ld	r8, X+
    541c:	7d 90       	ld	r7, X+
    541e:	6d 90       	ld	r6, X+
    5420:	5d 90       	ld	r5, X+
    5422:	4c 90       	ld	r4, X
    5424:	f3 cf       	rjmp	.-26     	; 0x540c <CalcFetch1>

00005426 <CalcStackB>:
    5426:	99 27       	eor	r25, r25

00005428 <CalcStackW>:
    5428:	47 dc       	rcall	.-1906   	; 0x4cb8 <CalcNew>
    542a:	e1 df       	rcall	.-62     	; 0x53ee <CalcClearNum>
    542c:	09 2e       	mov	r0, r25
    542e:	08 2a       	or	r0, r24
    5430:	51 f0       	breq	.+20     	; 0x5446 <CalcStack9>
    5432:	70 e8       	ldi	r23, 0x80	; 128
    5434:	60 e1       	ldi	r22, 0x10	; 16

00005436 <CalcStack2>:
    5436:	61 50       	subi	r22, 0x01	; 1
    5438:	71 09       	sbc	r23, r1
    543a:	88 0f       	add	r24, r24
    543c:	99 1f       	adc	r25, r25
    543e:	d8 f7       	brcc	.-10     	; 0x5436 <CalcStack2>
    5440:	96 95       	lsr	r25
    5442:	87 95       	ror	r24
    5444:	ac 01       	movw	r20, r24

00005446 <CalcStack9>:
    5446:	af cf       	rjmp	.-162    	; 0x53a6 <CalcSaveNum>

00005448 <CalcStackS16>:
    5448:	99 23       	and	r25, r25
    544a:	72 f7       	brpl	.-36     	; 0x5428 <CalcStackW>
    544c:	67 d8       	rcall	.-3890   	; 0x451c <NegW>
    544e:	ec df       	rcall	.-40     	; 0x5428 <CalcStackW>
    5450:	da c9       	rjmp	.-3148   	; 0x4806 <CalcNeg>

00005452 <CalcStackD>:
    5452:	32 dc       	rcall	.-1948   	; 0x4cb8 <CalcNew>
    5454:	cc df       	rcall	.-104    	; 0x53ee <CalcClearNum>
    5456:	0b 2e       	mov	r0, r27
    5458:	0a 2a       	or	r0, r26
    545a:	09 2a       	or	r0, r25
    545c:	08 2a       	or	r0, r24
    545e:	79 f0       	breq	.+30     	; 0x547e <CalcStackD9>
    5460:	70 e8       	ldi	r23, 0x80	; 128
    5462:	60 e2       	ldi	r22, 0x20	; 32

00005464 <CalcStackD2>:
    5464:	61 50       	subi	r22, 0x01	; 1
    5466:	71 09       	sbc	r23, r1
    5468:	88 0f       	add	r24, r24
    546a:	99 1f       	adc	r25, r25
    546c:	aa 1f       	adc	r26, r26
    546e:	bb 1f       	adc	r27, r27
    5470:	c8 f7       	brcc	.-14     	; 0x5464 <CalcStackD2>
    5472:	b6 95       	lsr	r27
    5474:	a7 95       	ror	r26
    5476:	97 95       	ror	r25
    5478:	87 95       	ror	r24
    547a:	9c 01       	movw	r18, r24
    547c:	ad 01       	movw	r20, r26

0000547e <CalcStackD9>:
    547e:	93 cf       	rjmp	.-218    	; 0x53a6 <CalcSaveNum>

00005480 <CalcUnstackW>:
    5480:	9d df       	rcall	.-198    	; 0x53bc <CalcPreCor>
    5482:	c3 df       	rcall	.-122    	; 0x540a <CalcFetch>
    5484:	99 27       	eor	r25, r25
    5486:	88 27       	eor	r24, r24
    5488:	60 50       	subi	r22, 0x00	; 0
    548a:	70 48       	sbci	r23, 0x80	; 128
    548c:	58 f0       	brcs	.+22     	; 0x54a4 <CalcUnstack7>
    548e:	ca 01       	movw	r24, r20
    5490:	90 68       	ori	r25, 0x80	; 128
    5492:	60 51       	subi	r22, 0x10	; 16
    5494:	70 40       	sbci	r23, 0x00	; 0
    5496:	40 f4       	brcc	.+16     	; 0x54a8 <CalcUnstack8>
    5498:	60 95       	com	r22
    549a:	21 f0       	breq	.+8      	; 0x54a4 <CalcUnstack7>

0000549c <CalcUnstack4>:
    549c:	96 95       	lsr	r25
    549e:	87 95       	ror	r24
    54a0:	6a 95       	dec	r22
    54a2:	e1 f7       	brne	.-8      	; 0x549c <CalcUnstack4>

000054a4 <CalcUnstack7>:
    54a4:	88 94       	clc
    54a6:	03 c0       	rjmp	.+6      	; 0x54ae <CalcUnstack9>

000054a8 <CalcUnstack8>:
    54a8:	8f ef       	ldi	r24, 0xFF	; 255
    54aa:	9f ef       	ldi	r25, 0xFF	; 255
    54ac:	08 94       	sec

000054ae <CalcUnstack9>:
    54ae:	50 78       	andi	r21, 0x80	; 128

000054b0 <CalcUnstack10>:
    54b0:	08 95       	ret

000054b2 <CalcUnstackB>:
    54b2:	e6 df       	rcall	.-52     	; 0x5480 <CalcUnstackW>
    54b4:	e8 f3       	brcs	.-6      	; 0x54b0 <CalcUnstack10>
    54b6:	99 23       	and	r25, r25
    54b8:	a9 f3       	breq	.-22     	; 0x54a4 <CalcUnstack7>
    54ba:	f6 cf       	rjmp	.-20     	; 0x54a8 <CalcUnstack8>

000054bc <CalcUnstackS16>:
    54bc:	e1 df       	rcall	.-62     	; 0x5480 <CalcUnstackW>
    54be:	39 f0       	breq	.+14     	; 0x54ce <CalcUnstackS16+0x12>
    54c0:	70 e8       	ldi	r23, 0x80	; 128
    54c2:	81 30       	cpi	r24, 0x01	; 1
    54c4:	97 07       	cpc	r25, r23
    54c6:	10 f0       	brcs	.+4      	; 0x54cc <CalcUnstackS16+0x10>
    54c8:	80 e0       	ldi	r24, 0x00	; 0
    54ca:	90 e8       	ldi	r25, 0x80	; 128
    54cc:	27 c8       	rjmp	.-4018   	; 0x451c <NegW>
    54ce:	70 e8       	ldi	r23, 0x80	; 128
    54d0:	80 30       	cpi	r24, 0x00	; 0
    54d2:	97 07       	cpc	r25, r23
    54d4:	10 f0       	brcs	.+4      	; 0x54da <CalcUnstackS16+0x1e>
    54d6:	8f ef       	ldi	r24, 0xFF	; 255
    54d8:	9f e7       	ldi	r25, 0x7F	; 127
    54da:	08 95       	ret

000054dc <CalcUnstackD>:
    54dc:	6f df       	rcall	.-290    	; 0x53bc <CalcPreCor>
    54de:	95 df       	rcall	.-214    	; 0x540a <CalcFetch>
    54e0:	bb 27       	eor	r27, r27
    54e2:	aa 27       	eor	r26, r26
    54e4:	99 27       	eor	r25, r25
    54e6:	88 27       	eor	r24, r24
    54e8:	60 50       	subi	r22, 0x00	; 0
    54ea:	70 48       	sbci	r23, 0x80	; 128
    54ec:	70 f0       	brcs	.+28     	; 0x550a <CalcUnstackD7>
    54ee:	da 01       	movw	r26, r20
    54f0:	c9 01       	movw	r24, r18
    54f2:	b0 68       	ori	r27, 0x80	; 128
    54f4:	60 52       	subi	r22, 0x20	; 32
    54f6:	70 40       	sbci	r23, 0x00	; 0
    54f8:	50 f4       	brcc	.+20     	; 0x550e <CalcUnstackD8>
    54fa:	60 95       	com	r22
    54fc:	31 f0       	breq	.+12     	; 0x550a <CalcUnstackD7>

000054fe <CalcUnstackD4>:
    54fe:	b6 95       	lsr	r27
    5500:	a7 95       	ror	r26
    5502:	97 95       	ror	r25
    5504:	87 95       	ror	r24
    5506:	6a 95       	dec	r22
    5508:	d1 f7       	brne	.-12     	; 0x54fe <CalcUnstackD4>

0000550a <CalcUnstackD7>:
    550a:	88 94       	clc
    550c:	05 c0       	rjmp	.+10     	; 0x5518 <CalcUnstackD9>

0000550e <CalcUnstackD8>:
    550e:	8f ef       	ldi	r24, 0xFF	; 255
    5510:	9f ef       	ldi	r25, 0xFF	; 255
    5512:	af ef       	ldi	r26, 0xFF	; 255
    5514:	bf ef       	ldi	r27, 0xFF	; 255
    5516:	08 94       	sec

00005518 <CalcUnstackD9>:
    5518:	50 78       	andi	r21, 0x80	; 128
    551a:	08 95       	ret

0000551c <CalcLitExc>:
    551c:	e2 25       	eor	r30, r2
    551e:	2e 26       	eor	r2, r30
    5520:	e2 25       	eor	r30, r2
    5522:	f3 25       	eor	r31, r3
    5524:	3f 26       	eor	r3, r31
    5526:	f3 25       	eor	r31, r3
    5528:	08 95       	ret

0000552a <CalcLit>:
    552a:	f8 df       	rcall	.-16     	; 0x551c <CalcLitExc>
    552c:	85 91       	lpm	r24, Z+
    552e:	f6 df       	rcall	.-20     	; 0x551c <CalcLitExc>
    5530:	08 95       	ret

00005532 <Module>:
    5532:	32 00       	.word	0x0032	; ????
    5534:	68 00       	.word	0x0068	; ????
    5536:	a9 01       	movw	r20, r18
    5538:	14 05       	cpc	r17, r4
    553a:	f2 06       	cpc	r15, r18
    553c:	39 07       	cpc	r19, r25
    553e:	78 07       	cpc	r23, r24
    5540:	c3 07       	cpc	r28, r19
    5542:	4c 08       	sbc	r4, r12
    5544:	ee 08       	sbc	r14, r14
    5546:	12 09       	sbc	r17, r2
    5548:	ad 09       	sbc	r26, r13
    554a:	cc 0b       	sbc	r28, r28
    554c:	a8 0c       	add	r10, r8
    554e:	5e 0e       	add	r5, r30
    5550:	bf 0e       	add	r11, r31
    5552:	fd 0e       	add	r15, r29
    5554:	bc 0f       	add	r27, r28
    5556:	ff 0f       	add	r31, r31
    5558:	af 10       	cpse	r10, r15
    555a:	03 13       	cpse	r16, r19
    555c:	d1 13       	cpse	r29, r17
    555e:	51 14       	cp	r5, r1
    5560:	ae 14       	cp	r10, r14
    5562:	e2 14       	cp	r14, r2
    5564:	42 15       	cp	r20, r2
    5566:	bc 15       	cp	r27, r12
    5568:	0d 16       	cp	r0, r29
    556a:	9b 16       	cp	r9, r27
    556c:	29 17       	cp	r18, r25
    556e:	a7 17       	cp	r26, r23
    5570:	ef 17       	cp	r30, r31
    5572:	db 18       	sub	r13, r11
    5574:	49 1a       	sub	r4, r25
    5576:	c0 1a       	sub	r12, r16
    5578:	05 1c       	adc	r0, r5
    557a:	57 1c       	adc	r5, r7
    557c:	70 1c       	adc	r7, r0
    557e:	41 1d       	adc	r20, r1
    5580:	52 1e       	adc	r5, r18
    5582:	96 1e       	adc	r9, r22
    5584:	c8 1e       	adc	r12, r24
    5586:	94 1f       	adc	r25, r20
    5588:	48 20       	and	r4, r8
    558a:	b7 21       	and	r27, r7
    558c:	33 22       	and	r3, r19
    558e:	d9 22       	and	r13, r25
    5590:	75 23       	and	r23, r21
    5592:	66 24       	eor	r6, r6
    5594:	33 25       	eor	r19, r3
    5596:	ce 25       	eor	r28, r14
    5598:	c8 26       	eor	r12, r24
    559a:	76 11       	cpse	r23, r6
    559c:	25 82       	std	Z+5, r2	; 0x05
    559e:	01 76       	andi	r16, 0x61	; 97
    55a0:	fe 03       	fmulsu	r23, r22
    55a2:	02 82       	std	Z+2, r0	; 0x02
    55a4:	02 29       	or	r16, r2
    55a6:	82 11       	cpse	r24, r2
    55a8:	76 fd       	sbrc	r23, 6
    55aa:	53 69       	ori	r21, 0x93	; 147
    55ac:	42 85       	ldd	r20, Z+10	; 0x0a
    55ae:	01 54       	subi	r16, 0x41	; 65
    55b0:	53 32       	cpi	r21, 0x23	; 35
    55b2:	85 01       	movw	r16, r10
    55b4:	54 32       	cpi	r21, 0x24	; 36
    55b6:	82 e2       	ldi	r24, 0x22	; 34
    55b8:	fd 76       	andi	r31, 0x6D	; 109
    55ba:	fc 69       	ori	r31, 0x9C	; 156
    55bc:	40 32       	cpi	r20, 0x20	; 32
    55be:	06 05       	cpc	r16, r6
    55c0:	22 67       	ori	r18, 0x72	; 114
    55c2:	fb 53       	subi	r31, 0x3B	; 59
    55c4:	53 03       	mulsu	r21, r19
    55c6:	02 61       	ori	r16, 0x12	; 18
    55c8:	fa 76       	andi	r31, 0x6A	; 106
    55ca:	fb 08       	sbc	r15, r11
    55cc:	01 22       	and	r0, r17
    55ce:	67 f9       	bld	r22, 7
    55d0:	53 53       	subi	r21, 0x33	; 51
    55d2:	09 06       	cpc	r0, r25
    55d4:	76 fa       	bst	r7, 6
    55d6:	85 82       	std	Z+5, r8	; 0x05
    55d8:	11 54       	subi	r17, 0x41	; 65
    55da:	6e 01       	movw	r12, r28
    55dc:	02 07       	cpc	r16, r18
    55de:	54 82       	std	Z+4, r5	; 0x04
    55e0:	01 61       	ori	r16, 0x11	; 17
    55e2:	fe 76       	andi	r31, 0x6E	; 110
    55e4:	f9 04       	cpc	r15, r9
    55e6:	22 77       	andi	r18, 0x72	; 114
    55e8:	fc 32       	cpi	r31, 0x2C	; 44
    55ea:	69 43       	sbci	r22, 0x39	; 57
    55ec:	61 fe       	sbrs	r6, 1
    55ee:	76 12       	cpse	r7, r22
    55f0:	9b 02       	muls	r25, r27
    55f2:	05 05       	cpc	r16, r5
    55f4:	32 8b       	std	Z+18, r19	; 0x12
    55f6:	76 f8       	bld	r7, 6
    55f8:	69 40       	sbci	r22, 0x09	; 9
    55fa:	67 f8       	bld	r6, 7
    55fc:	66 61       	ori	r22, 0x16	; 22
    55fe:	f8 76       	andi	r31, 0x68	; 104
    5600:	17 9b       	sbis	0x02, 7	; 2
    5602:	02 05       	cpc	r16, r2
    5604:	05 32       	cpi	r16, 0x25	; 37
    5606:	9b 61       	ori	r25, 0x1B	; 27
    5608:	f8 76       	andi	r31, 0x68	; 104
    560a:	14 76       	andi	r17, 0x64	; 100
    560c:	24 60       	ori	r18, 0x04	; 4
    560e:	9b 22       	and	r9, r27
    5610:	58 22       	and	r5, r24
    5612:	57 69       	ori	r21, 0x97	; 151
    5614:	1d 69       	ori	r17, 0x9D	; 157
    5616:	00 69       	ori	r16, 0x90	; 144
    5618:	79 76       	andi	r23, 0x69	; 105
    561a:	13 76       	andi	r17, 0x63	; 99
    561c:	25 25       	eor	r18, r5
    561e:	22 47       	sbci	r18, 0x72	; 114
    5620:	92 76       	andi	r25, 0x62	; 98
    5622:	15 76       	andi	r17, 0x65	; 101
    5624:	95 71       	andi	r25, 0x15	; 21
    5626:	24 02       	muls	r18, r20
    5628:	69 53       	subi	r22, 0x39	; 57
    562a:	69 01       	movw	r12, r18
    562c:	00 93 05 69 	sts	0x6905, r16
    5630:	53 69       	ori	r21, 0x93	; 147
    5632:	02 69       	ori	r16, 0x92	; 146
    5634:	87 22       	and	r8, r23
    5636:	67 35       	cpi	r22, 0x57	; 87
    5638:	05 32       	cpi	r16, 0x25	; 37
    563a:	03 00       	.word	0x0003	; ????
    563c:	37 78       	andi	r19, 0x87	; 135
    563e:	22 37       	cpi	r18, 0x72	; 114
    5640:	78 69       	ori	r23, 0x98	; 152
    5642:	12 88       	ldd	r1, Z+18	; 0x12
    5644:	78 69       	ori	r23, 0x98	; 152
    5646:	11 22       	and	r1, r17
    5648:	88 22       	and	r8, r24
    564a:	78 69       	ori	r23, 0x98	; 152
    564c:	14 22       	and	r1, r20
    564e:	93 32       	cpi	r25, 0x23	; 35
    5650:	03 07       	cpc	r16, r19
    5652:	07 93       	.word	0x9307	; ????
    5654:	07 06       	cpc	r0, r23
    5656:	00 05       	cpc	r16, r0
    5658:	01 05       	cpc	r16, r1
    565a:	00 02       	muls	r16, r16
    565c:	01 00       	.word	0x0001	; ????
    565e:	09 67       	ori	r16, 0x79	; 121
    5660:	96 76       	andi	r25, 0x66	; 102
    5662:	35 01       	movw	r6, r10
    5664:	93 02       	muls	r25, r19
    5666:	69 53       	subi	r22, 0x39	; 57
    5668:	69 02       	muls	r22, r25
    566a:	00 35       	cpi	r16, 0x50	; 80
    566c:	61 78       	andi	r22, 0x81	; 129
    566e:	76 96       	adiw	r30, 0x16	; 22
    5670:	01 76       	andi	r16, 0x61	; 97
    5672:	78 69       	ori	r23, 0x98	; 152
    5674:	1f 69       	ori	r17, 0x9F	; 159
    5676:	1a 92       	st	-Y, r1
    5678:	76 18       	sub	r7, r6
    567a:	32 04       	cpc	r3, r2
    567c:	07 32       	cpi	r16, 0x27	; 39
    567e:	01 06       	cpc	r0, r17
    5680:	82 02       	muls	r24, r18
    5682:	69 86       	std	Y+9, r6	; 0x09
    5684:	82 01       	movw	r16, r4
    5686:	76 ed       	ldi	r23, 0xD6	; 214
    5688:	53 82       	std	Z+3, r5	; 0x03
    568a:	11 6e       	ori	r17, 0xE1	; 225
    568c:	01 85       	ldd	r16, Z+9	; 0x09
    568e:	01 06       	cpc	r0, r17
    5690:	54 69       	ori	r21, 0x94	; 148
    5692:	42 53       	subi	r20, 0x32	; 50
    5694:	32 75       	andi	r19, 0x52	; 82
    5696:	01 54       	subi	r16, 0x41	; 65
    5698:	32 53       	subi	r19, 0x32	; 50
    569a:	82 11       	cpse	r24, r2
    569c:	5c 01       	movw	r10, r24
    569e:	54 59       	subi	r21, 0x94	; 148
    56a0:	82 01       	movw	r16, r4
    56a2:	82 e2       	ldi	r24, 0x22	; 34
    56a4:	ed 69       	ori	r30, 0x9D	; 157
    56a6:	1f 92       	push	r1
    56a8:	76 19       	sub	r23, r6
    56aa:	32 00       	.word	0x0032	; ????
    56ac:	82 01       	movw	r16, r4
    56ae:	69 85       	ldd	r22, Y+9	; 0x09
    56b0:	82 02       	muls	r24, r18
    56b2:	32 76       	andi	r19, 0x62	; 98
    56b4:	ee 27       	eor	r30, r30
    56b6:	01 82       	std	Z+1, r0	; 0x01
    56b8:	71 82       	std	Z+1, r7	; 0x01
    56ba:	e2 ee       	ldi	r30, 0xE2	; 226
    56bc:	92 76       	andi	r25, 0x62	; 98
    56be:	16 25       	eor	r17, r6
    56c0:	9b 01       	movw	r18, r22
    56c2:	01 02       	muls	r16, r17
    56c4:	69 53       	subi	r22, 0x39	; 57
    56c6:	02 06       	cpc	r0, r18
    56c8:	69 03       	fmul	r22, r17
    56ca:	8b 69       	ori	r24, 0x9B	; 155
    56cc:	87 69       	ori	r24, 0x97	; 151
    56ce:	0e 69       	ori	r16, 0x9E	; 158
    56d0:	8a 69       	ori	r24, 0x9A	; 154
    56d2:	8a 9b       	sbis	0x11, 2	; 17
    56d4:	25 92       	.word	0x9225	; ????
    56d6:	76 10       	cpse	r7, r6
    56d8:	69 8b       	std	Y+17, r22	; 0x11
    56da:	92 76       	andi	r25, 0x62	; 98
    56dc:	11 82       	std	Z+1, r1	; 0x01
    56de:	07 92       	.word	0x9207	; ????
    56e0:	76 12       	cpse	r7, r22
    56e2:	75 32       	cpi	r23, 0x25	; 37
    56e4:	01 95       	neg	r16
    56e6:	65 82       	std	Z+5, r6	; 0x05
    56e8:	17 85       	ldd	r17, Z+15	; 0x0f
    56ea:	01 00       	.word	0x0001	; ????
    56ec:	95 82       	std	Z+5, r9	; 0x05
    56ee:	01 32       	cpi	r16, 0x21	; 33
    56f0:	76 50       	subi	r23, 0x06	; 6
    56f2:	92 27       	eor	r25, r18
    56f4:	01 82       	std	Z+1, r0	; 0x01
    56f6:	71 61       	ori	r23, 0x11	; 17
    56f8:	50 76       	andi	r21, 0x60	; 96
    56fa:	19 85       	ldd	r17, Y+9	; 0x09
    56fc:	53 24       	eor	r5, r3
    56fe:	75 01       	movw	r14, r10
    5700:	54 65       	ori	r21, 0x54	; 84
    5702:	82 17       	cp	r24, r18
    5704:	85 09       	sbc	r24, r5
    5706:	95 92       	.word	0x9295	; ????
    5708:	76 fe       	sbrs	r7, 6
    570a:	82 81       	ldd	r24, Z+2	; 0x02
    570c:	82 17       	cp	r24, r18
    570e:	82 52       	subi	r24, 0x22	; 34
    5710:	92 76       	andi	r25, 0x62	; 98
    5712:	fd 82       	std	Y+5, r15	; 0x05
    5714:	f5 fc       	sbrc	r15, 5
    5716:	75 82       	std	Z+5, r7	; 0x05
    5718:	71 82       	std	Z+1, r7	; 0x01
    571a:	17 82       	std	Z+7, r1	; 0x07
    571c:	32 27       	eor	r19, r18
    571e:	11 65       	ori	r17, 0x51	; 81
    5720:	27 12       	cpse	r2, r23
    5722:	61 fd       	sbrc	r22, 1
    5724:	76 fc       	sbrc	r7, 6
    5726:	92 76       	andi	r25, 0x62	; 98
    5728:	fb 82       	std	Y+3, r15	; 0x03
    572a:	f5 fa       	bst	r15, 5
    572c:	75 71       	andi	r23, 0x15	; 21
    572e:	fe 27       	eor	r31, r30
    5730:	11 65       	ori	r17, 0x51	; 81
    5732:	27 12       	cpse	r2, r23
    5734:	61 fb       	bst	r22, 1
    5736:	76 fa       	bst	r7, 6
    5738:	92 76       	andi	r25, 0x62	; 98
    573a:	13 82       	std	Z+3, r1	; 0x03
    573c:	17 82       	std	Z+7, r1	; 0x07
    573e:	05 85       	ldd	r16, Z+13	; 0x0d
    5740:	33 85       	ldd	r19, Z+11	; 0x0b
    5742:	09 95       	icall
    5744:	82 01       	movw	r16, r4
    5746:	76 f7       	brtc	.-36     	; 0x5724 <Module+0x1f2>
    5748:	82 15       	cp	r24, r2
    574a:	27 01       	movw	r4, r14
    574c:	82 81       	ldd	r24, Z+2	; 0x02
    574e:	82 e5       	ldi	r24, 0x52	; 82
    5750:	f7 01       	movw	r30, r14
    5752:	82 04       	cpc	r8, r2
    5754:	82 06       	cpc	r8, r18
    5756:	76 f6       	brtc	.-100    	; 0x56f4 <Module+0x1c2>
    5758:	82 14       	cp	r8, r2
    575a:	85 09       	sbc	r24, r5
    575c:	95 82       	std	Z+5, r9	; 0x05
    575e:	03 75       	andi	r16, 0x53	; 83
    5760:	82 17       	cp	r24, r18
    5762:	75 01       	movw	r14, r10
    5764:	00 95       	com	r16
    5766:	82 05       	cpc	r24, r2
    5768:	82 14       	cp	r8, r2
    576a:	19 82       	std	Y+1, r1	; 0x01
    576c:	02 27       	eor	r16, r18
    576e:	12 50       	subi	r17, 0x02	; 2
    5770:	32 76       	andi	r19, 0x62	; 98
    5772:	f5 82       	std	Z+5, r15	; 0x05
    5774:	f5 f4       	brhc	.+60     	; 0x57b2 <Module+0x280>
    5776:	82 72       	andi	r24, 0x22	; 34
    5778:	27 12       	cpse	r2, r23
    577a:	50 22       	and	r5, r16
    577c:	77 f5       	brid	.+92     	; 0x57da <Module+0x2a8>
    577e:	32 82       	std	Z+2, r3	; 0x02
    5780:	17 85       	ldd	r17, Z+15	; 0x0f
    5782:	82 15       	cp	r24, r2
    5784:	85 01       	movw	r16, r10
    5786:	00 95       	com	r16
    5788:	82 03       	fmuls	r16, r18
    578a:	61 f5       	brne	.+88     	; 0x57e4 <Module+0x2b2>
    578c:	76 f4       	brtc	.+28     	; 0x57aa <Module+0x278>
    578e:	82 13       	cpse	r24, r18
    5790:	32 82       	std	Z+2, r3	; 0x02
    5792:	14 85       	ldd	r17, Z+12	; 0x0c
    5794:	09 95       	icall
    5796:	67 f2       	brie	.-104    	; 0x5730 <Module+0x1fe>
    5798:	82 02       	muls	r24, r18
    579a:	01 94       	neg	r0
    579c:	82 46       	sbci	r24, 0x62	; 98
    579e:	82 17       	cp	r24, r18
    57a0:	85 01       	movw	r16, r10
    57a2:	95 82       	std	Z+5, r9	; 0x05
    57a4:	05 76       	andi	r16, 0x65	; 101
    57a6:	f3 27       	eor	r31, r19
    57a8:	12 27       	eor	r17, r18
    57aa:	93 27       	eor	r25, r19
    57ac:	02 82       	std	Z+2, r0	; 0x02
    57ae:	17 82       	std	Z+7, r1	; 0x07
    57b0:	32 82       	std	Z+2, r3	; 0x02
    57b2:	33 82       	std	Z+3, r3	; 0x03
    57b4:	e5 f3       	brhs	.-8      	; 0x57ae <Module+0x27c>
    57b6:	76 f2       	brts	.-100    	; 0x5754 <Module+0x222>
    57b8:	82 14       	cp	r8, r2
    57ba:	19 82       	std	Y+1, r1	; 0x01
    57bc:	01 27       	eor	r16, r17
    57be:	11 82       	std	Z+1, r1	; 0x01
    57c0:	46 29       	or	r20, r6
    57c2:	67 ec       	ldi	r22, 0xC7	; 199
    57c4:	82 17       	cp	r24, r18
    57c6:	82 05       	cpc	r24, r2
    57c8:	76 f1       	brts	.+92     	; 0x5826 <Module+0x2f4>
    57ca:	82 14       	cp	r8, r2
    57cc:	19 82       	std	Y+1, r1	; 0x01
    57ce:	02 85       	ldd	r16, Z+10	; 0x0a
    57d0:	82 15       	cp	r24, r2
    57d2:	75 82       	std	Z+5, r7	; 0x05
    57d4:	14 95       	.word	0x9514	; ????
    57d6:	82 03       	fmuls	r16, r18
    57d8:	27 13       	cpse	r18, r23
    57da:	55 27       	eor	r21, r21
    57dc:	12 95       	swap	r17
    57de:	82 01       	movw	r16, r4
    57e0:	27 03       	mulsu	r18, r23
    57e2:	76 f0       	brts	.+28     	; 0x5800 <Module+0x2ce>
    57e4:	82 17       	cp	r24, r18
    57e6:	82 32       	cpi	r24, 0x22	; 34
    57e8:	82 33       	cpi	r24, 0x32	; 50
    57ea:	33 85       	ldd	r19, Z+11	; 0x0b
    57ec:	01 00       	.word	0x0001	; ????
    57ee:	95 32       	cpi	r25, 0x25	; 37
    57f0:	82 13       	cpse	r24, r18
    57f2:	77 ef       	ldi	r23, 0xF7	; 247
    57f4:	82 11       	cpse	r24, r2
    57f6:	94 65       	ori	r25, 0x54	; 84
    57f8:	27 12       	cpse	r2, r23
    57fa:	95 27       	eor	r25, r21
    57fc:	33 61       	ori	r19, 0x13	; 19
    57fe:	f0 76       	andi	r31, 0x60	; 96
    5800:	ef 82       	std	Y+7, r14	; 0x07
    5802:	85 82       	std	Z+5, r8	; 0x05
    5804:	15 32       	cpi	r17, 0x25	; 37
    5806:	82 14       	cp	r8, r2
    5808:	67 ee       	ldi	r22, 0xE7	; 231
    580a:	61 f1       	breq	.+88     	; 0x5864 <Module+0x332>
    580c:	76 ee       	ldi	r23, 0xE6	; 230
    580e:	82 74       	andi	r24, 0x42	; 66
    5810:	82 17       	cp	r24, r18
    5812:	32 82       	std	Z+2, r3	; 0x02
    5814:	14 67       	ori	r17, 0x74	; 116
    5816:	ed 61       	ori	r30, 0x1D	; 29
    5818:	f6 76       	andi	r31, 0x66	; 102
    581a:	ed 19       	sub	r30, r13
    581c:	82 01       	movw	r16, r4
    581e:	27 11       	cpse	r18, r7
    5820:	76 ec       	ldi	r23, 0xC6	; 198
    5822:	82 46       	sbci	r24, 0x62	; 98
    5824:	82 16       	cp	r8, r18
    5826:	92 76       	andi	r25, 0x62	; 98
    5828:	14 82       	std	Z+4, r1	; 0x04
    582a:	05 76       	andi	r16, 0x65	; 101
    582c:	eb 92       	.word	0x92eb	; ????
    582e:	82 03       	fmuls	r16, r18
    5830:	82 17       	cp	r24, r18
    5832:	33 85       	ldd	r19, Z+11	; 0x0b
    5834:	09 95       	icall
    5836:	82 01       	movw	r16, r4
    5838:	82 15       	cp	r24, r2
    583a:	32 82       	std	Z+2, r3	; 0x02
    583c:	17 22       	and	r1, r23
    583e:	77 eb       	ldi	r23, 0xB7	; 183
    5840:	76 e9       	ldi	r23, 0x96	; 150
    5842:	82 71       	andi	r24, 0x12	; 18
    5844:	27 11       	cpse	r18, r7
    5846:	22 67       	ori	r18, 0x72	; 114
    5848:	e9 82       	std	Y+1, r14	; 0x01
    584a:	17 82       	std	Z+7, r1	; 0x07
    584c:	31 82       	std	Z+1, r3	; 0x01
    584e:	75 82       	std	Z+5, r7	; 0x05
    5850:	13 27       	eor	r17, r19
    5852:	01 61       	ori	r16, 0x11	; 17
    5854:	eb 76       	andi	r30, 0x6B	; 107
    5856:	15 25       	eor	r17, r5
    5858:	01 82       	std	Z+1, r0	; 0x01
    585a:	04 76       	andi	r16, 0x64	; 100
    585c:	e7 82       	std	Z+7, r14	; 0x07
    585e:	17 85       	ldd	r17, Z+15	; 0x0f
    5860:	33 85       	ldd	r19, Z+11	; 0x0b
    5862:	09 95       	icall
    5864:	82 01       	movw	r16, r4
    5866:	82 14       	cp	r8, r2
    5868:	82 05       	cpc	r24, r2
    586a:	75 82       	std	Z+5, r7	; 0x05
    586c:	17 85       	ldd	r17, Z+15	; 0x0f
    586e:	09 95       	icall
    5870:	82 02       	muls	r24, r18
    5872:	00 71       	andi	r16, 0x10	; 16
    5874:	fd 85       	ldd	r31, Y+13	; 0x0d
    5876:	82 71       	andi	r24, 0x12	; 18
    5878:	27 11       	cpse	r18, r7
    587a:	95 27       	eor	r25, r21
    587c:	01 82       	std	Z+1, r0	; 0x01
    587e:	74 82       	std	Z+4, r7	; 0x04
    5880:	14 32       	cpi	r17, 0x24	; 36
    5882:	82 17       	cp	r24, r18
    5884:	77 e7       	ldi	r23, 0x77	; 119
    5886:	01 82       	std	Z+1, r0	; 0x01
    5888:	04 76       	andi	r16, 0x64	; 100
    588a:	e6 09       	sbc	r30, r6
    588c:	85 53       	subi	r24, 0x35	; 53
    588e:	82 17       	cp	r24, r18
    5890:	85 01       	movw	r16, r10
    5892:	54 33       	cpi	r21, 0x34	; 52
    5894:	95 82       	std	Z+5, r9	; 0x05
    5896:	01 75       	andi	r16, 0x51	; 81
    5898:	82 17       	cp	r24, r18
    589a:	75 82       	std	Z+5, r7	; 0x05
    589c:	14 82       	std	Z+4, r1	; 0x04
    589e:	05 95       	asr	r16
    58a0:	82 02       	muls	r24, r18
    58a2:	00 71       	andi	r16, 0x10	; 16
    58a4:	fb 85       	ldd	r31, Y+11	; 0x0b
    58a6:	71 fe       	sbrs	r7, 1
    58a8:	27 11       	cpse	r18, r7
    58aa:	95 55       	subi	r25, 0x55	; 85
    58ac:	27 12       	cpse	r2, r23
    58ae:	95 27       	eor	r25, r21
    58b0:	01 82       	std	Z+1, r0	; 0x01
    58b2:	74 82       	std	Z+4, r7	; 0x04
    58b4:	14 32       	cpi	r17, 0x24	; 36
    58b6:	82 17       	cp	r24, r18
    58b8:	77 e6       	ldi	r23, 0x67	; 103
    58ba:	01 32       	cpi	r16, 0x21	; 33
    58bc:	32 92       	st	-Z, r3
    58be:	76 16       	cp	r7, r22
    58c0:	85 32       	cpi	r24, 0x25	; 37
    58c2:	09 85       	ldd	r16, Y+9	; 0x09
    58c4:	82 17       	cp	r24, r18
    58c6:	65 53       	subi	r22, 0x35	; 53
    58c8:	24 85       	ldd	r18, Z+12	; 0x0c
    58ca:	01 54       	subi	r16, 0x41	; 65
    58cc:	95 82       	std	Z+5, r9	; 0x05
    58ce:	01 32       	cpi	r16, 0x21	; 33
    58d0:	76 e5       	ldi	r23, 0x56	; 86
    58d2:	92 27       	eor	r25, r18
    58d4:	11 82       	std	Z+1, r1	; 0x01
    58d6:	71 61       	ori	r23, 0x11	; 17
    58d8:	e5 76       	andi	r30, 0x65	; 101
    58da:	17 25       	eor	r17, r7
    58dc:	01 82       	std	Z+1, r0	; 0x01
    58de:	04 76       	andi	r16, 0x64	; 100
    58e0:	e4 82       	std	Z+4, r14	; 0x04
    58e2:	14 19       	sub	r17, r4
    58e4:	82 01       	movw	r16, r4
    58e6:	27 11       	cpse	r18, r7
    58e8:	35 27       	eor	r19, r21
    58ea:	01 82       	std	Z+1, r0	; 0x01
    58ec:	74 82       	std	Z+4, r7	; 0x04
    58ee:	14 32       	cpi	r17, 0x24	; 36
    58f0:	82 17       	cp	r24, r18
    58f2:	77 e4       	ldi	r23, 0x47	; 71
    58f4:	82 84       	ldd	r8, Z+10	; 0x0a
    58f6:	01 82       	std	Z+1, r0	; 0x01
    58f8:	03 76       	andi	r16, 0x63	; 99
    58fa:	e2 82       	std	Z+2, r14	; 0x02
    58fc:	14 19       	sub	r17, r4
    58fe:	82 01       	movw	r16, r4
    5900:	75 82       	std	Z+5, r7	; 0x05
    5902:	13 82       	std	Z+3, r1	; 0x03
    5904:	05 95       	asr	r16
    5906:	82 02       	muls	r24, r18
    5908:	27 11       	cpse	r18, r7
    590a:	65 27       	eor	r22, r21
    590c:	12 94       	swap	r1
    590e:	71 fb       	bst	r23, 1
    5910:	85 00       	.word	0x0085	; ????
    5912:	95 65       	ori	r25, 0x55	; 85
    5914:	71 fe       	sbrs	r7, 1
    5916:	27 12       	cpse	r2, r23
    5918:	95 27       	eor	r25, r21
    591a:	01 82       	std	Z+1, r0	; 0x01
    591c:	73 82       	std	Z+3, r7	; 0x03
    591e:	14 32       	cpi	r17, 0x24	; 36
    5920:	82 13       	cpse	r24, r18
    5922:	22 67       	ori	r18, 0x72	; 114
    5924:	e2 01       	movw	r28, r4
    5926:	82 03       	fmuls	r16, r18
    5928:	82 84       	ldd	r8, Z+10	; 0x0a
    592a:	82 14       	cp	r8, r2
    592c:	32 01       	movw	r6, r4
    592e:	22 67       	ori	r18, 0x72	; 114
    5930:	e2 76       	andi	r30, 0x62	; 98
    5932:	e1 82       	std	Z+1, r14	; 0x01
    5934:	14 19       	sub	r17, r4
    5936:	82 01       	movw	r16, r4
    5938:	85 82       	std	Z+5, r8	; 0x05
    593a:	13 82       	std	Z+3, r1	; 0x03
    593c:	05 95       	asr	r16
    593e:	82 02       	muls	r24, r18
    5940:	27 12       	cpse	r2, r23
    5942:	94 71       	andi	r25, 0x14	; 20
    5944:	fd 65       	ori	r31, 0x5D	; 93
    5946:	01 82       	std	Z+1, r0	; 0x01
    5948:	31 95       	neg	r19
    594a:	27 01       	movw	r4, r14
    594c:	82 73       	andi	r24, 0x32	; 50
    594e:	82 13       	cpse	r24, r18
    5950:	32 82       	std	Z+2, r3	; 0x02
    5952:	17 75       	andi	r17, 0x57	; 87
    5954:	82 14       	cp	r8, r2
    5956:	95 77       	andi	r25, 0x75	; 117
    5958:	e1 01       	movw	r28, r2
    595a:	82 34       	cpi	r24, 0x42	; 66
    595c:	82 03       	fmuls	r16, r18
    595e:	82 17       	cp	r24, r18
    5960:	32 82       	std	Z+2, r3	; 0x02
    5962:	14 22       	and	r1, r20
    5964:	67 e1       	ldi	r22, 0x17	; 23
    5966:	01 82       	std	Z+1, r0	; 0x01
    5968:	04 76       	andi	r16, 0x64	; 100
    596a:	e0 82       	st	Z, r14
    596c:	14 82       	std	Z+4, r1	; 0x04
    596e:	05 19       	sub	r16, r5
    5970:	82 03       	fmuls	r16, r18
    5972:	76 df       	rcall	.-276    	; 0x5860 <Module+0x32e>
    5974:	82 15       	cp	r24, r2
    5976:	19 82       	std	Y+1, r1	; 0x01
    5978:	01 82       	std	Z+1, r0	; 0x01
    597a:	13 82       	std	Z+3, r1	; 0x03
    597c:	02 82       	std	Z+2, r0	; 0x02
    597e:	17 75       	andi	r17, 0x57	; 87
    5980:	82 15       	cp	r24, r2
    5982:	85 01       	movw	r16, r10
    5984:	95 82       	std	Z+5, r9	; 0x05
    5986:	95 32       	cpi	r25, 0x25	; 37
    5988:	27 13       	cpse	r18, r23
    598a:	94 71       	andi	r25, 0x14	; 20
    598c:	fd 85       	ldd	r31, Y+13	; 0x0d
    598e:	00 95       	com	r16
    5990:	94 27       	eor	r25, r20
    5992:	03 82       	std	Z+3, r0	; 0x03
    5994:	17 82       	std	Z+7, r1	; 0x07
    5996:	33 32       	cpi	r19, 0x23	; 35
    5998:	85 01       	movw	r16, r10
    599a:	95 82       	std	Z+5, r9	; 0x05
    599c:	05 32       	cpi	r16, 0x25	; 37
    599e:	77 df       	rcall	.-274    	; 0x588e <Module+0x35c>
    59a0:	32 82       	std	Z+2, r3	; 0x02
    59a2:	14 67       	ori	r17, 0x74	; 116
    59a4:	dd 85       	ldd	r29, Y+13	; 0x0d
    59a6:	01 95       	neg	r16
    59a8:	82 05       	cpc	r24, r2
    59aa:	82 14       	cp	r8, r2
    59ac:	19 85       	ldd	r17, Y+9	; 0x09
    59ae:	01 95       	neg	r16
    59b0:	82 03       	fmuls	r16, r18
    59b2:	76 de       	rcall	.-788    	; 0x56a0 <Module+0x16e>
    59b4:	82 15       	cp	r24, r2
    59b6:	19 82       	std	Y+1, r1	; 0x01
    59b8:	02 82       	std	Z+2, r0	; 0x02
    59ba:	13 82       	std	Z+3, r1	; 0x03
    59bc:	01 82       	std	Z+1, r0	; 0x01
    59be:	17 75       	andi	r17, 0x57	; 87
    59c0:	82 15       	cp	r24, r2
    59c2:	85 01       	movw	r16, r10
    59c4:	95 82       	std	Z+5, r9	; 0x05
    59c6:	95 32       	cpi	r25, 0x25	; 37
    59c8:	27 11       	cpse	r18, r7
    59ca:	65 27       	eor	r22, r21
    59cc:	12 94       	swap	r1
    59ce:	71 fd       	sbrc	r23, 1
    59d0:	85 00       	.word	0x0085	; ????
    59d2:	95 94       	asr	r9
    59d4:	27 03       	mulsu	r18, r23
    59d6:	01 82       	std	Z+1, r0	; 0x01
    59d8:	33 85       	ldd	r19, Z+11	; 0x0b
    59da:	32 95       	swap	r19
    59dc:	82 05       	cpc	r24, r2
    59de:	32 82       	std	Z+2, r3	; 0x02
    59e0:	17 77       	andi	r17, 0x77	; 119
    59e2:	de 82       	std	Y+6, r13	; 0x06
    59e4:	74 61       	ori	r23, 0x14	; 20
    59e6:	e0 76       	andi	r30, 0x60	; 96
    59e8:	dd 01       	movw	r26, r26
    59ea:	32 32       	cpi	r19, 0x22	; 34
    59ec:	76 dc       	rcall	.-1812   	; 0x52da <CalcMantSbc0+0x2>
    59ee:	92 76       	andi	r25, 0x62	; 98
    59f0:	18 82       	st	Y, r1
    59f2:	03 32       	cpi	r16, 0x23	; 35
    59f4:	82 17       	cp	r24, r18
    59f6:	22 77       	andi	r18, 0x72	; 114
    59f8:	dc 85       	ldd	r29, Y+12	; 0x0c
    59fa:	82 05       	cpc	r24, r2
    59fc:	33 85       	ldd	r19, Z+11	; 0x0b
    59fe:	09 95       	icall
    5a00:	82 01       	movw	r16, r4
    5a02:	00 82       	st	Z, r0
    5a04:	04 76       	andi	r16, 0x64	; 100
    5a06:	da 27       	eor	r29, r26
    5a08:	11 67       	ori	r17, 0x71	; 113
    5a0a:	d9 82       	std	Y+1, r13	; 0x01
    5a0c:	81 82       	std	Z+1, r8	; 0x01
    5a0e:	e5 da       	rcall	.-2614   	; 0x4fda <CalcBit2+0x48>
    5a10:	76 d9       	rcall	.-3348   	; 0x4cfe <CalcPrepMul+0x8>
    5a12:	82 15       	cp	r24, r2
    5a14:	75 01       	movw	r14, r10
    5a16:	95 65       	ori	r25, 0x55	; 85
    5a18:	82 17       	cp	r24, r18
    5a1a:	85 09       	sbc	r24, r5
    5a1c:	95 82       	std	Z+5, r9	; 0x05
    5a1e:	01 32       	cpi	r16, 0x21	; 33
    5a20:	92 76       	andi	r25, 0x62	; 98
    5a22:	d8 82       	st	Y, r13
    5a24:	71 82       	std	Z+1, r7	; 0x01
    5a26:	74 27       	eor	r23, r20
    5a28:	11 92       	st	Z+, r1
    5a2a:	82 14       	cp	r8, r2
    5a2c:	32 82       	std	Z+2, r3	; 0x02
    5a2e:	17 22       	and	r1, r23
    5a30:	67 d8       	rcall	.-3890   	; 0x4b00 <CalcHir+0x4e>
    5a32:	01 85       	ldd	r16, Z+9	; 0x09
    5a34:	82 13       	cpse	r24, r18
    5a36:	95 18       	sub	r9, r5
    5a38:	61 d8       	rcall	.-3902   	; 0x4afc <CalcHir+0x4a>
    5a3a:	76 10       	cpse	r7, r6
    5a3c:	13 29       	or	r17, r3
    5a3e:	67 d6       	rcall	.+3278   	; 0x670e <Module+0x11dc>
    5a40:	17 76       	andi	r17, 0x67	; 103
    5a42:	d6 82       	std	Z+6, r13	; 0x06
    5a44:	16 92       	.word	0x9216	; ????
    5a46:	76 78       	andi	r23, 0x86	; 134
    5a48:	69 53       	subi	r22, 0x39	; 57
    5a4a:	69 01       	movw	r12, r18
    5a4c:	05 09       	sbc	r16, r5
    5a4e:	32 82       	std	Z+2, r3	; 0x02
    5a50:	11 32       	cpi	r17, 0x21	; 33
    5a52:	69 54       	subi	r22, 0x49	; 73
    5a54:	01 02       	muls	r16, r17
    5a56:	32 82       	std	Z+2, r3	; 0x02
    5a58:	12 32       	cpi	r17, 0x22	; 34
    5a5a:	69 54       	subi	r22, 0x49	; 73
    5a5c:	06 01       	movw	r0, r12
    5a5e:	00 00       	nop
    5a60:	69 02       	muls	r22, r25
    5a62:	61 61       	ori	r22, 0x11	; 17
    5a64:	76 68       	ori	r23, 0x86	; 134
    5a66:	69 00       	.word	0x0069	; ????
    5a68:	04 07       	cpc	r16, r20
    5a6a:	69 53       	subi	r22, 0x39	; 57
    5a6c:	69 01       	movw	r12, r18
    5a6e:	76 61       	ori	r23, 0x16	; 22
    5a70:	69 1f       	adc	r22, r25
    5a72:	69 1a       	sub	r6, r25
    5a74:	92 76       	andi	r25, 0x62	; 98
    5a76:	81 69       	ori	r24, 0x91	; 145
    5a78:	53 69       	ori	r21, 0x93	; 147
    5a7a:	01 05       	cpc	r16, r1
    5a7c:	09 32       	cpi	r16, 0x29	; 41
    5a7e:	82 11       	cpse	r24, r2
    5a80:	32 69       	ori	r19, 0x92	; 146
    5a82:	54 01       	movw	r10, r8
    5a84:	02 07       	cpc	r16, r18
    5a86:	04 06       	cpc	r0, r20
    5a88:	01 00       	.word	0x0001	; ????
    5a8a:	00 69       	ori	r16, 0x90	; 144
    5a8c:	02 61       	ori	r16, 0x12	; 18
    5a8e:	61 76       	andi	r22, 0x61	; 97
    5a90:	11 82       	std	Z+1, r1	; 0x01
    5a92:	94 82       	std	Z+4, r9	; 0x04
    5a94:	03 32       	cpi	r16, 0x23	; 35
    5a96:	01 01       	movw	r0, r2
    5a98:	69 53       	subi	r22, 0x39	; 57
    5a9a:	69 01       	movw	r12, r18
    5a9c:	00 69       	ori	r16, 0x90	; 144
    5a9e:	54 08       	sbc	r5, r4
    5aa0:	08 32       	cpi	r16, 0x28	; 40
    5aa2:	82 14       	cp	r8, r2
    5aa4:	32 69       	ori	r19, 0x92	; 146
    5aa6:	54 00       	.word	0x0054	; ????
    5aa8:	00 00       	nop
    5aaa:	00 69       	ori	r16, 0x90	; 144
    5aac:	02 82       	std	Z+2, r0	; 0x02
    5aae:	14 61       	ori	r17, 0x14	; 20
    5ab0:	61 76       	andi	r22, 0x61	; 97
    5ab2:	65 75       	andi	r22, 0x55	; 85
    5ab4:	01 82       	std	Z+1, r0	; 0x01
    5ab6:	01 95       	neg	r16
    5ab8:	65 82       	std	Z+5, r6	; 0x05
    5aba:	13 85       	ldd	r17, Z+11	; 0x0b
    5abc:	01 00       	.word	0x0001	; ????
    5abe:	95 82       	std	Z+5, r9	; 0x05
    5ac0:	07 92       	.word	0x9207	; ????
    5ac2:	76 12       	cpse	r7, r22
    5ac4:	82 00       	.word	0x0082	; ????
    5ac6:	82 02       	muls	r24, r18
    5ac8:	76 32       	cpi	r23, 0x26	; 38
    5aca:	71 65       	ori	r23, 0x51	; 81
    5acc:	76 50       	subi	r23, 0x06	; 6
    5ace:	05 71       	andi	r16, 0x15	; 21
    5ad0:	78 76       	andi	r23, 0x68	; 104
    5ad2:	94 82       	std	Z+4, r9	; 0x04
    5ad4:	10 92 82 00 	sts	0x0082, r1
    5ad8:	27 07       	cpc	r18, r23
    5ada:	7a 91       	ld	r23, -Y
    5adc:	03 34       	cpi	r16, 0x43	; 67
    5ade:	8a b1       	in	r24, 0x0a	; 10
    5ae0:	00 82       	st	Z, r0
    5ae2:	72 7a       	andi	r23, 0xA2	; 162
    5ae4:	b2 04       	cpc	r11, r2
    5ae6:	34 71       	andi	r19, 0x14	; 20
    5ae8:	68 61       	ori	r22, 0x18	; 24
    5aea:	94 76       	andi	r25, 0x64	; 100
    5aec:	34 82       	std	Z+4, r3	; 0x04
    5aee:	71 82       	std	Z+1, r7	; 0x01
    5af0:	77 61       	ori	r23, 0x17	; 23
    5af2:	50 76       	andi	r21, 0x60	; 96
    5af4:	13 82       	std	Z+3, r1	; 0x03
    5af6:	00 82       	st	Z, r0
    5af8:	02 85       	ldd	r16, Z+10	; 0x0a
    5afa:	82 14       	cp	r8, r2
    5afc:	61 32       	cpi	r22, 0x21	; 33
    5afe:	76 14       	cp	r7, r6
    5b00:	82 96       	adiw	r24, 0x22	; 34
    5b02:	82 05       	cpc	r24, r2
    5b04:	32 04       	cpc	r3, r2
    5b06:	08 69       	ori	r16, 0x98	; 152
    5b08:	53 69       	ori	r21, 0x93	; 147
    5b0a:	01 00       	.word	0x0001	; ????
    5b0c:	69 54       	subi	r22, 0x49	; 73
    5b0e:	01 02       	muls	r16, r17
    5b10:	32 82       	std	Z+2, r3	; 0x02
    5b12:	16 32       	cpi	r17, 0x26	; 38
    5b14:	69 54       	subi	r22, 0x49	; 73
    5b16:	69 02       	muls	r22, r25
    5b18:	82 16       	cp	r8, r18
    5b1a:	61 61       	ori	r22, 0x11	; 17
    5b1c:	76 15       	cp	r23, r6
    5b1e:	82 00       	.word	0x0082	; ????
    5b20:	01 00       	.word	0x0001	; ????
    5b22:	82 01       	movw	r16, r4
    5b24:	85 53       	subi	r24, 0x35	; 53
    5b26:	82 13       	cpse	r24, r18
    5b28:	65 82       	std	Z+5, r6	; 0x05
    5b2a:	14 54       	subi	r17, 0x44	; 68
    5b2c:	82 07       	cpc	r24, r18
    5b2e:	95 82       	std	Z+5, r9	; 0x05
    5b30:	02 76       	andi	r16, 0x62	; 98
    5b32:	33 82       	std	Z+3, r3	; 0x03
    5b34:	15 65       	ori	r17, 0x55	; 85
    5b36:	27 11       	cpse	r18, r7
    5b38:	85 82       	std	Z+5, r8	; 0x05
    5b3a:	16 65       	ori	r17, 0x56	; 86
    5b3c:	27 12       	cpse	r2, r23
    5b3e:	95 27       	eor	r25, r21
    5b40:	01 82       	std	Z+1, r0	; 0x01
    5b42:	71 82       	std	Z+1, r7	; 0x01
    5b44:	72 82       	std	Z+2, r7	; 0x02
    5b46:	e7 33       	cpi	r30, 0x37	; 55
    5b48:	71 68       	ori	r23, 0x81	; 129
    5b4a:	82 10       	cpse	r8, r2
    5b4c:	92 76       	andi	r25, 0x62	; 98
    5b4e:	16 82       	std	Z+6, r1	; 0x06
    5b50:	02 71       	andi	r16, 0x12	; 18
    5b52:	65 76       	andi	r22, 0x65	; 101
    5b54:	45 03       	mulsu	r20, r21
    5b56:	71 78       	andi	r23, 0x81	; 129
    5b58:	76 85       	ldd	r23, Z+14	; 0x0e
    5b5a:	27 17       	cp	r18, r23
    5b5c:	92 7a       	andi	r25, 0xA2	; 162
    5b5e:	91 03       	fmuls	r17, r17
    5b60:	35 8a       	std	Z+21, r3	; 0x15
    5b62:	b1 00       	.word	0x00b1	; ????
    5b64:	82 72       	andi	r24, 0x22	; 34
    5b66:	7a b2       	in	r7, 0x1a	; 26
    5b68:	04 35       	cpi	r16, 0x54	; 84
    5b6a:	71 68       	ori	r23, 0x81	; 129
    5b6c:	61 85       	ldd	r22, Z+9	; 0x09
    5b6e:	76 35       	cpi	r23, 0x56	; 86
    5b70:	82 71       	andi	r24, 0x12	; 18
    5b72:	82 77       	andi	r24, 0x72	; 114
    5b74:	61 45       	sbci	r22, 0x51	; 81
    5b76:	76 17       	cp	r23, r22
    5b78:	82 00       	.word	0x0082	; ????
    5b7a:	82 01       	movw	r16, r4
    5b7c:	85 82       	std	Z+5, r8	; 0x05
    5b7e:	13 65       	ori	r17, 0x53	; 83
    5b80:	53 82       	std	Z+3, r5	; 0x03
    5b82:	14 85       	ldd	r17, Z+12	; 0x0c
    5b84:	01 54       	subi	r16, 0x41	; 65
    5b86:	85 09       	sbc	r24, r5
    5b88:	95 82       	std	Z+5, r9	; 0x05
    5b8a:	07 76       	andi	r16, 0x67	; 103
    5b8c:	60 05       	cpc	r22, r0
    5b8e:	71 81       	ldd	r23, Z+1	; 0x01
    5b90:	76 70       	andi	r23, 0x06	; 6
    5b92:	82 10       	cpse	r8, r2
    5b94:	92 82       	std	Z+2, r9	; 0x02
    5b96:	00 27       	eor	r16, r16
    5b98:	07 7a       	andi	r16, 0xA7	; 167
    5b9a:	91 04       	cpc	r9, r1
    5b9c:	80 71       	andi	r24, 0x10	; 16
    5b9e:	68 61       	ori	r22, 0x18	; 24
    5ba0:	70 76       	andi	r23, 0x60	; 96
    5ba2:	80 82       	st	Z, r8
    5ba4:	71 82       	std	Z+1, r7	; 0x01
    5ba6:	77 61       	ori	r23, 0x17	; 23
    5ba8:	60 76       	andi	r22, 0x60	; 96
    5baa:	18 25       	eor	r17, r8
    5bac:	01 00       	.word	0x0001	; ????
    5bae:	75 82       	std	Z+5, r7	; 0x05
    5bb0:	13 82       	std	Z+3, r1	; 0x03
    5bb2:	00 95       	com	r16
    5bb4:	82 01       	movw	r16, r4
    5bb6:	76 52       	subi	r23, 0x26	; 38
    5bb8:	82 13       	cpse	r24, r18
    5bba:	65 53       	subi	r22, 0x35	; 53
    5bbc:	82 14       	cp	r8, r2
    5bbe:	82 07       	cpc	r24, r18
    5bc0:	85 01       	movw	r16, r10
    5bc2:	54 85       	ldd	r21, Z+12	; 0x0c
    5bc4:	09 95       	icall
    5bc6:	82 02       	muls	r24, r18
    5bc8:	25 76       	andi	r18, 0x65	; 101
    5bca:	59 85       	ldd	r21, Y+9	; 0x09
    5bcc:	82 13       	cpse	r24, r18
    5bce:	82 31       	cpi	r24, 0x12	; 18
    5bd0:	82 72       	andi	r24, 0x22	; 34
    5bd2:	27 11       	cpse	r18, r7
    5bd4:	65 27       	eor	r22, r21
    5bd6:	12 82       	std	Z+2, r1	; 0x02
    5bd8:	e7 59       	subi	r30, 0x97	; 151
    5bda:	95 82       	std	Z+5, r9	; 0x05
    5bdc:	93 82       	std	Z+3, r9	; 0x03
    5bde:	31 82       	std	Z+1, r3	; 0x01
    5be0:	93 27       	eor	r25, r19
    5be2:	01 82       	std	Z+1, r0	; 0x01
    5be4:	10 75       	andi	r17, 0x50	; 80
    5be6:	01 95       	neg	r16
    5be8:	82 01       	movw	r16, r4
    5bea:	29 67       	ori	r18, 0x79	; 121
    5bec:	25 94       	asr	r2
    5bee:	85 01       	movw	r16, r10
    5bf0:	00 95       	com	r16
    5bf2:	82 91       	ld	r24, -Z
    5bf4:	82 00       	.word	0x0082	; ????
    5bf6:	61 52       	subi	r22, 0x21	; 33
    5bf8:	76 25       	eor	r23, r6
    5bfa:	92 76       	andi	r25, 0x62	; 98
    5bfc:	19 82       	std	Y+1, r1	; 0x01
    5bfe:	01 85       	ldd	r16, Z+9	; 0x09
    5c00:	09 85       	ldd	r16, Y+9	; 0x09
    5c02:	82 13       	cpse	r24, r18
    5c04:	65 82       	std	Z+5, r6	; 0x05
    5c06:	14 95       	.word	0x9514	; ????
    5c08:	82 07       	cpc	r24, r18
    5c0a:	76 57       	subi	r23, 0x76	; 118
    5c0c:	03 71       	andi	r16, 0x13	; 19
    5c0e:	81 76       	andi	r24, 0x61	; 97
    5c10:	54 27       	eor	r21, r20
    5c12:	17 92       	.word	0x9217	; ????
    5c14:	7a 91       	ld	r23, -Y
    5c16:	03 53       	subi	r16, 0x33	; 51
    5c18:	71 68       	ori	r23, 0x81	; 129
    5c1a:	61 54       	subi	r22, 0x41	; 65
    5c1c:	76 53       	subi	r23, 0x36	; 54
    5c1e:	82 71       	andi	r24, 0x12	; 18
    5c20:	82 77       	andi	r24, 0x72	; 114
    5c22:	61 57       	subi	r22, 0x71	; 113
    5c24:	76 11       	cpse	r23, r6
    5c26:	69 57       	subi	r22, 0x79	; 121
    5c28:	92 76       	andi	r25, 0x62	; 98
    5c2a:	16 69       	ori	r17, 0x96	; 150
    5c2c:	1e 25       	eor	r17, r14
    5c2e:	01 00       	.word	0x0001	; ????
    5c30:	32 01       	movw	r6, r4
    5c32:	00 69       	ori	r16, 0x90	; 144
    5c34:	55 25       	eor	r21, r5
    5c36:	29 92       	st	Y+, r2
    5c38:	76 12       	cpse	r7, r22
    5c3a:	69 5c       	subi	r22, 0xC9	; 201
    5c3c:	76 95       	lsr	r23
    5c3e:	69 58       	subi	r22, 0x89	; 137
    5c40:	92 76       	andi	r25, 0x62	; 98
    5c42:	17 69       	ori	r17, 0x97	; 151
    5c44:	5d 61       	ori	r21, 0x1D	; 29
    5c46:	95 76       	andi	r25, 0x65	; 101
    5c48:	13 69       	ori	r17, 0x93	; 147
    5c4a:	5e 61       	ori	r21, 0x1E	; 30
    5c4c:	95 76       	andi	r25, 0x65	; 101
    5c4e:	18 69       	ori	r17, 0x98	; 152
    5c50:	5f 61       	ori	r21, 0x1F	; 31
    5c52:	95 76       	andi	r25, 0x65	; 101
    5c54:	14 69       	ori	r17, 0x94	; 148
    5c56:	60 61       	ori	r22, 0x10	; 16
    5c58:	95 76       	andi	r25, 0x65	; 101
    5c5a:	19 69       	ori	r17, 0x99	; 153
    5c5c:	62 61       	ori	r22, 0x12	; 18
    5c5e:	95 76       	andi	r25, 0x65	; 101
    5c60:	15 69       	ori	r17, 0x95	; 149
    5c62:	61 61       	ori	r22, 0x11	; 17
    5c64:	95 76       	andi	r25, 0x65	; 101
    5c66:	10 69       	ori	r17, 0x90	; 144
    5c68:	5a 61       	ori	r21, 0x1A	; 26
    5c6a:	95 76       	andi	r25, 0x65	; 101
    5c6c:	11 69       	ori	r17, 0x91	; 145
    5c6e:	57 92       	.word	0x9257	; ????
    5c70:	76 16       	cp	r7, r22
    5c72:	36 04       	cpc	r3, r6
    5c74:	16 92       	.word	0x9216	; ????
    5c76:	76 12       	cpse	r7, r22
    5c78:	69 67       	ori	r22, 0x79	; 121
    5c7a:	76 95       	lsr	r23
    5c7c:	69 58       	subi	r22, 0x89	; 137
    5c7e:	92 76       	andi	r25, 0x62	; 98
    5c80:	17 69       	ori	r17, 0x97	; 151
    5c82:	66 61       	ori	r22, 0x16	; 22
    5c84:	95 76       	andi	r25, 0x65	; 101
    5c86:	13 69       	ori	r17, 0x93	; 147
    5c88:	64 61       	ori	r22, 0x14	; 20
    5c8a:	95 76       	andi	r25, 0x65	; 101
    5c8c:	18 69       	ori	r17, 0x98	; 152
    5c8e:	63 61       	ori	r22, 0x13	; 19
    5c90:	95 76       	andi	r25, 0x65	; 101
    5c92:	14 69       	ori	r17, 0x94	; 148
    5c94:	6e 61       	ori	r22, 0x1E	; 30
    5c96:	95 76       	andi	r25, 0x65	; 101
    5c98:	19 69       	ori	r17, 0x99	; 153
    5c9a:	6f 61       	ori	r22, 0x1F	; 31
    5c9c:	95 76       	andi	r25, 0x65	; 101
    5c9e:	15 69       	ori	r17, 0x95	; 149
    5ca0:	65 61       	ori	r22, 0x15	; 21
    5ca2:	95 76       	andi	r25, 0x65	; 101
    5ca4:	10 69       	ori	r17, 0x90	; 144
    5ca6:	59 69       	ori	r21, 0x99	; 153
    5ca8:	56 92       	.word	0x9256	; ????
    5caa:	76 11       	cpse	r23, r6
    5cac:	69 57       	subi	r22, 0x79	; 121
    5cae:	92 76       	andi	r25, 0x62	; 98
    5cb0:	16 36       	cpi	r17, 0x66	; 102
    5cb2:	04 16       	cp	r0, r20
    5cb4:	92 76       	andi	r25, 0x62	; 98
    5cb6:	12 69       	ori	r17, 0x92	; 146
    5cb8:	68 76       	andi	r22, 0x68	; 104
    5cba:	95 69       	ori	r25, 0x95	; 149
    5cbc:	58 92       	.word	0x9258	; ????
    5cbe:	76 17       	cp	r23, r22
    5cc0:	69 6b       	ori	r22, 0xB9	; 185
    5cc2:	61 95       	neg	r22
    5cc4:	76 13       	cpse	r23, r22
    5cc6:	69 69       	ori	r22, 0x99	; 153
    5cc8:	61 95       	neg	r22
    5cca:	76 18       	sub	r7, r6
    5ccc:	69 6c       	ori	r22, 0xC9	; 201
    5cce:	61 95       	neg	r22
    5cd0:	76 14       	cp	r7, r6
    5cd2:	69 6a       	ori	r22, 0xA9	; 169
    5cd4:	61 95       	neg	r22
    5cd6:	76 19       	sub	r23, r6
    5cd8:	69 6d       	ori	r22, 0xD9	; 217
    5cda:	61 95       	neg	r22
    5cdc:	76 15       	cp	r23, r6
    5cde:	69 58       	subi	r22, 0x89	; 137
    5ce0:	69 59       	subi	r22, 0x99	; 153
    5ce2:	94 32       	cpi	r25, 0x24	; 36
    5ce4:	94 32       	cpi	r25, 0x24	; 36
    5ce6:	69 57       	subi	r22, 0x79	; 121
    5ce8:	92 76       	andi	r25, 0x62	; 98
    5cea:	10 69       	ori	r17, 0x90	; 144
    5cec:	6e 69       	ori	r22, 0x9E	; 158
    5cee:	58 69       	ori	r21, 0x98	; 152
    5cf0:	59 00       	.word	0x0059	; ????
    5cf2:	69 57       	subi	r22, 0x79	; 121
    5cf4:	92 76       	andi	r25, 0x62	; 98
    5cf6:	11 82       	std	Z+1, r1	; 0x01
    5cf8:	04 32       	cpi	r16, 0x24	; 36
    5cfa:	04 09       	sbc	r16, r4
    5cfc:	69 53       	subi	r22, 0x39	; 57
    5cfe:	69 01       	movw	r12, r18
    5d00:	06 05       	cpc	r16, r6
    5d02:	01 06       	cpc	r0, r17
    5d04:	01 04       	cpc	r0, r1
    5d06:	01 04       	cpc	r0, r1
    5d08:	06 05       	cpc	r16, r6
    5d0a:	69 54       	subi	r22, 0x49	; 73
    5d0c:	69 02       	muls	r22, r25
    5d0e:	69 1f       	adc	r22, r25
    5d10:	69 1a       	sub	r6, r25
    5d12:	32 92       	st	-Z, r3
    5d14:	76 12       	cpse	r7, r22
    5d16:	82 02       	muls	r24, r18
    5d18:	53 82       	std	Z+3, r5	; 0x03
    5d1a:	05 85       	ldd	r16, Z+13	; 0x0d
    5d1c:	01 00       	.word	0x0001	; ????
    5d1e:	54 82       	std	Z+4, r5	; 0x04
    5d20:	01 76       	andi	r16, 0x61	; 97
    5d22:	50 82       	st	Z, r5
    5d24:	12 32       	cpi	r17, 0x22	; 34
    5d26:	05 69       	ori	r16, 0x95	; 149
    5d28:	53 69       	ori	r21, 0x93	; 147
    5d2a:	01 06       	cpc	r0, r17
    5d2c:	05 69       	ori	r16, 0x95	; 149
    5d2e:	54 00       	.word	0x0054	; ????
    5d30:	00 00       	nop
    5d32:	00 00       	nop
    5d34:	00 69       	ori	r16, 0x90	; 144
    5d36:	02 69       	ori	r16, 0x92	; 146
    5d38:	1f 69       	ori	r17, 0x9F	; 159
    5d3a:	1a 76       	andi	r17, 0x6A	; 106
    5d3c:	94 82       	std	Z+4, r9	; 0x04
    5d3e:	15 92       	.word	0x9215	; ????
    5d40:	82 05       	cpc	r24, r2
    5d42:	27 01       	movw	r4, r14
    5d44:	7a 92       	st	-Y, r7
    5d46:	04 34       	cpi	r16, 0x44	; 68
    5d48:	36 03       	mulsu	r19, r22
    5d4a:	71 68       	ori	r23, 0x81	; 129
    5d4c:	61 94       	neg	r6
    5d4e:	76 34       	cpi	r23, 0x46	; 70
    5d50:	82 71       	andi	r24, 0x12	; 18
    5d52:	82 72       	andi	r24, 0x22	; 34
    5d54:	61 50       	subi	r22, 0x01	; 1
    5d56:	76 13       	cpse	r23, r22
    5d58:	82 03       	fmuls	r16, r18
    5d5a:	53 82       	std	Z+3, r5	; 0x03
    5d5c:	14 82       	std	Z+4, r1	; 0x04
    5d5e:	02 85       	ldd	r16, Z+10	; 0x0a
    5d60:	01 00       	.word	0x0001	; ????
    5d62:	54 82       	std	Z+4, r5	; 0x04
    5d64:	01 82       	std	Z+1, r0	; 0x01
    5d66:	72 27       	eor	r23, r18
    5d68:	11 76       	andi	r17, 0x61	; 97
    5d6a:	60 82       	st	Z, r6
    5d6c:	f2 70       	andi	r31, 0x02	; 2
    5d6e:	82 81       	ldd	r24, Z+2	; 0x02
    5d70:	53 24       	eor	r5, r3
    5d72:	65 82       	std	Z+5, r6	; 0x05
    5d74:	13 85       	ldd	r17, Z+11	; 0x0b
    5d76:	27 11       	cpse	r18, r7
    5d78:	54 61       	ori	r21, 0x14	; 20
    5d7a:	60 76       	andi	r22, 0x60	; 96
    5d7c:	70 92 76 11 	sts	0x1176, r7
    5d80:	69 70       	andi	r22, 0x09	; 9
    5d82:	92 76       	andi	r25, 0x62	; 98
    5d84:	14 36       	cpi	r17, 0x64	; 100
    5d86:	00 16       	cp	r0, r16
    5d88:	92 76       	andi	r25, 0x62	; 98
    5d8a:	15 82       	std	Z+5, r1	; 0x05
    5d8c:	01 32       	cpi	r16, 0x21	; 33
    5d8e:	82 02       	muls	r24, r18
    5d90:	32 25       	eor	r19, r2
    5d92:	01 52       	subi	r16, 0x21	; 33
    5d94:	99 82       	std	Y+1, r9	; 0x01
    5d96:	04 01       	movw	r0, r8
    5d98:	52 99       	sbic	0x0a, 2	; 10
    5d9a:	94 82       	std	Z+4, r9	; 0x04
    5d9c:	05 22       	and	r0, r21
    5d9e:	52 82       	std	Z+2, r5	; 0x02
    5da0:	12 75       	andi	r17, 0x52	; 82
    5da2:	82 11       	cpse	r24, r2
    5da4:	82 07       	cpc	r24, r18
    5da6:	95 55       	subi	r25, 0x55	; 85
    5da8:	01 06       	cpc	r0, r17
    5daa:	95 82       	std	Z+5, r9	; 0x05
    5dac:	06 55       	subi	r16, 0x56	; 86
    5dae:	02 95       	swap	r16
    5db0:	82 31       	cpi	r24, 0x12	; 18
    5db2:	82 37       	cpi	r24, 0x72	; 114
    5db4:	01 06       	cpc	r0, r17
    5db6:	82 03       	fmuls	r16, r18
    5db8:	76 25       	eor	r23, r6
    5dba:	82 17       	cp	r24, r18
    5dbc:	36 00       	.word	0x0036	; ????
    5dbe:	16 32       	cpi	r17, 0x26	; 38
    5dc0:	82 14       	cp	r8, r2
    5dc2:	69 78       	andi	r22, 0x89	; 137
    5dc4:	82 04       	cpc	r8, r2
    5dc6:	82 15       	cp	r24, r2
    5dc8:	69 77       	andi	r22, 0x79	; 121
    5dca:	82 05       	cpc	r24, r2
    5dcc:	8a 97       	sbiw	r24, 0x2a	; 42
    5dce:	06 82       	std	Z+6, r0	; 0x06
    5dd0:	e3 25       	eor	r30, r3
    5dd2:	8a 87       	std	Y+10, r24	; 0x0a
    5dd4:	01 8a       	std	Z+17, r0	; 0x11
    5dd6:	b3 16       	cp	r11, r19
    5dd8:	7a d4       	rcall	.+2292   	; 0x66ce <Module+0x119c>
    5dda:	05 71       	andi	r16, 0x15	; 21
    5ddc:	82 75       	andi	r24, 0x52	; 82
    5dde:	8a 95       	dec	r24
    5de0:	05 76       	andi	r16, 0x65	; 101
    5de2:	71 01       	movw	r14, r2
    5de4:	06 75       	andi	r16, 0x56	; 86
    5de6:	82 13       	cpse	r24, r18
    5de8:	95 32       	cpi	r25, 0x25	; 37
    5dea:	82 17       	cp	r24, r18
    5dec:	36 00       	.word	0x0036	; ????
    5dee:	16 75       	andi	r17, 0x56	; 86
    5df0:	82 14       	cp	r8, r2
    5df2:	95 55       	subi	r25, 0x55	; 85
    5df4:	53 82       	std	Z+3, r5	; 0x03
    5df6:	15 75       	andi	r17, 0x55	; 85
    5df8:	82 14       	cp	r8, r2
    5dfa:	54 95       	.word	0x9554	; ????
    5dfc:	65 01       	movw	r12, r10
    5dfe:	06 95       	lsr	r16
    5e00:	5d 69       	ori	r21, 0x9D	; 157
    5e02:	4b 8a       	std	Y+19, r4	; 0x13
    5e04:	97 06       	cpc	r9, r23
    5e06:	82 e3       	ldi	r24, 0x32	; 50
    5e08:	71 02       	muls	r23, r17
    5e0a:	05 05       	cpc	r16, r5
    5e0c:	32 76       	andi	r19, 0x62	; 98
    5e0e:	76 69       	ori	r23, 0x96	; 150
    5e10:	40 67       	ori	r20, 0x70	; 112
    5e12:	76 25       	eor	r23, r6
    5e14:	82 12       	cpse	r8, r18
    5e16:	32 82       	std	Z+2, r3	; 0x02
    5e18:	11 75       	andi	r17, 0x51	; 81
    5e1a:	82 16       	cp	r8, r18
    5e1c:	55 02       	muls	r21, r21
    5e1e:	95 92       	.word	0x9295	; ????
    5e20:	76 11       	cpse	r23, r6
    5e22:	82 01       	movw	r16, r4
    5e24:	92 76       	andi	r25, 0x62	; 98
    5e26:	16 36       	cpi	r17, 0x66	; 102
    5e28:	00 16       	cp	r0, r16
    5e2a:	92 76       	andi	r25, 0x62	; 98
    5e2c:	12 82       	std	Z+2, r1	; 0x02
    5e2e:	02 92       	st	-Z, r0
    5e30:	76 13       	cpse	r23, r22
    5e32:	82 03       	fmuls	r16, r18
    5e34:	92 76       	andi	r25, 0x62	; 98
    5e36:	14 69       	ori	r17, 0x94	; 148
    5e38:	71 92       	st	Z+, r7
    5e3a:	76 15       	cp	r23, r6
    5e3c:	82 12       	cpse	r8, r18
    5e3e:	32 82       	std	Z+2, r3	; 0x02
    5e40:	11 36       	cpi	r17, 0x61	; 97
    5e42:	08 15       	cp	r16, r8
    5e44:	76 11       	cpse	r23, r6
    5e46:	53 50       	subi	r21, 0x03	; 3
    5e48:	82 05       	cpc	r24, r2
    5e4a:	55 02       	muls	r21, r21
    5e4c:	54 82       	std	Z+4, r5	; 0x04
    5e4e:	02 22       	and	r0, r18
    5e50:	59 29       	or	r21, r9
    5e52:	22 67       	ori	r18, 0x72	; 114
    5e54:	52 82       	std	Z+2, r5	; 0x02
    5e56:	15 92       	.word	0x9215	; ????
    5e58:	76 12       	cpse	r7, r22
    5e5a:	82 03       	fmuls	r16, r18
    5e5c:	92 76       	andi	r25, 0x62	; 98
    5e5e:	13 53       	subi	r17, 0x33	; 51
    5e60:	82 06       	cpc	r8, r18
    5e62:	82 04       	cpc	r8, r2
    5e64:	85 01       	movw	r16, r10
    5e66:	00 54       	subi	r16, 0x40	; 64
    5e68:	82 01       	movw	r16, r4
    5e6a:	76 50       	subi	r23, 0x06	; 6
    5e6c:	82 14       	cp	r8, r2
    5e6e:	32 05       	cpc	r19, r2
    5e70:	69 53       	subi	r22, 0x39	; 57
    5e72:	69 01       	movw	r12, r18
    5e74:	08 09       	sbc	r16, r8
    5e76:	69 54       	subi	r22, 0x49	; 73
    5e78:	00 00       	nop
    5e7a:	00 00       	nop
    5e7c:	00 00       	nop
    5e7e:	69 02       	muls	r22, r25
    5e80:	69 1f       	adc	r22, r25
    5e82:	69 1a       	sub	r6, r25
    5e84:	76 94       	lsr	r7
    5e86:	82 16       	cp	r8, r18
    5e88:	92 82       	std	Z+2, r9	; 0x02
    5e8a:	06 27       	eor	r16, r22
    5e8c:	01 7a       	andi	r16, 0xA1	; 161
    5e8e:	94 05       	cpc	r25, r4
    5e90:	34 36       	cpi	r19, 0x64	; 100
    5e92:	03 71       	andi	r16, 0x13	; 19
    5e94:	68 61       	ori	r22, 0x18	; 24
    5e96:	94 76       	andi	r25, 0x64	; 100
    5e98:	34 82       	std	Z+4, r3	; 0x04
    5e9a:	71 82       	std	Z+1, r7	; 0x01
    5e9c:	74 61       	ori	r23, 0x14	; 20
    5e9e:	50 76       	andi	r21, 0x60	; 96
    5ea0:	14 53       	subi	r17, 0x34	; 52
    5ea2:	82 15       	cp	r24, r2
    5ea4:	85 01       	movw	r16, r10
    5ea6:	00 54       	subi	r16, 0x40	; 64
    5ea8:	82 01       	movw	r16, r4
    5eaa:	27 11       	cpse	r18, r7
    5eac:	82 04       	cpc	r8, r2
    5eae:	76 45       	sbci	r23, 0x56	; 86
    5eb0:	82 81       	ldd	r24, Z+2	; 0x02
    5eb2:	53 27       	eor	r21, r19
    5eb4:	11 65       	ori	r17, 0x51	; 81
    5eb6:	04 54       	subi	r16, 0x44	; 68
    5eb8:	82 34       	cpi	r24, 0x42	; 66
    5eba:	82 81       	ldd	r24, Z+2	; 0x02
    5ebc:	82 f2       	brmi	.-96     	; 0x5e5e <Module+0x92c>
    5ebe:	33 53       	subi	r19, 0x33	; 51
    5ec0:	27 11       	cpse	r18, r7
    5ec2:	65 02       	muls	r22, r21
    5ec4:	54 82       	std	Z+4, r5	; 0x04
    5ec6:	34 61       	ori	r19, 0x14	; 20
    5ec8:	45 76       	andi	r20, 0x65	; 101
    5eca:	33 27       	eor	r19, r19
    5ecc:	11 82       	std	Z+1, r1	; 0x01
    5ece:	34 53       	subi	r19, 0x34	; 52
    5ed0:	82 13       	cpse	r24, r18
    5ed2:	55 03       	mulsu	r21, r21
    5ed4:	54 82       	std	Z+4, r5	; 0x04
    5ed6:	44 82       	std	Z+4, r4	; 0x04
    5ed8:	14 92       	.word	0x9214	; ????
    5eda:	76 52       	subi	r23, 0x26	; 38
    5edc:	25 35       	cpi	r18, 0x55	; 85
    5ede:	92 76       	andi	r25, 0x62	; 98
    5ee0:	f1 82       	std	Z+1, r15	; 0x01
    5ee2:	07 00       	.word	0x0007	; ????
    5ee4:	61 f0       	breq	.+24     	; 0x5efe <Module+0x9cc>
    5ee6:	76 f2       	brts	.-100    	; 0x5e84 <Module+0x952>
    5ee8:	82 07       	cpc	r24, r18
    5eea:	01 61       	ori	r16, 0x11	; 17
    5eec:	f0 76       	andi	r31, 0x60	; 96
    5eee:	f3 82       	std	Z+3, r15	; 0x03
    5ef0:	07 02       	muls	r16, r23
    5ef2:	76 f0       	brts	.+28     	; 0x5f10 <Module+0x9de>
    5ef4:	53 32       	cpi	r21, 0x23	; 35
    5ef6:	05 01       	movw	r0, r10
    5ef8:	69 53       	subi	r22, 0x39	; 57
    5efa:	00 00       	nop
    5efc:	06 05       	cpc	r16, r6
    5efe:	61 f8       	bld	r6, 1
    5f00:	76 f5       	brtc	.+92     	; 0x5f5e <Module+0xa2c>
    5f02:	82 07       	cpc	r24, r18
    5f04:	00 61       	ori	r16, 0x10	; 16
    5f06:	f4 76       	andi	r31, 0x64	; 100
    5f08:	f6 82       	std	Z+6, r15	; 0x06
    5f0a:	07 01       	movw	r0, r14
    5f0c:	61 f4       	brne	.+24     	; 0x5f26 <Module+0x9f4>
    5f0e:	76 f7       	brtc	.-36     	; 0x5eec <Module+0x9ba>
    5f10:	82 07       	cpc	r24, r18
    5f12:	02 76       	andi	r16, 0x62	; 98
    5f14:	f4 53       	subi	r31, 0x34	; 52
    5f16:	32 05       	cpc	r19, r2
    5f18:	00 69       	ori	r16, 0x90	; 144
    5f1a:	53 00       	.word	0x0053	; ????
    5f1c:	00 03       	mulsu	r16, r16
    5f1e:	03 76       	andi	r16, 0x63	; 99
    5f20:	f8 85       	ldd	r31, Y+8	; 0x08
    5f22:	32 54       	subi	r19, 0x42	; 66
    5f24:	69 02       	muls	r22, r25
    5f26:	05 76       	andi	r16, 0x65	; 101
    5f28:	f9 69       	ori	r31, 0x99	; 153
    5f2a:	53 69       	ori	r21, 0x93	; 147
    5f2c:	01 69       	ori	r16, 0x91	; 145
    5f2e:	1f 69       	ori	r17, 0x9F	; 159
    5f30:	1a 82       	std	Y+2, r1	; 0x02
    5f32:	17 92       	.word	0x9217	; ????
    5f34:	76 e1       	ldi	r23, 0x16	; 22
    5f36:	82 11       	cpse	r24, r2
    5f38:	82 07       	cpc	r24, r18
    5f3a:	00 61       	ori	r16, 0x10	; 16
    5f3c:	e0 76       	andi	r30, 0x60	; 96
    5f3e:	e2 82       	std	Z+2, r14	; 0x02
    5f40:	12 82       	std	Z+2, r1	; 0x02
    5f42:	07 01       	movw	r0, r14
    5f44:	61 e0       	ldi	r22, 0x01	; 1
    5f46:	76 e3       	ldi	r23, 0x36	; 54
    5f48:	82 13       	cpse	r24, r18
    5f4a:	82 07       	cpc	r24, r18
    5f4c:	02 76       	andi	r16, 0x62	; 98
    5f4e:	e0 53       	subi	r30, 0x30	; 48
    5f50:	32 05       	cpc	r19, r2
    5f52:	01 69       	ori	r16, 0x91	; 145
    5f54:	53 00       	.word	0x0053	; ????
    5f56:	00 06       	cpc	r0, r16
    5f58:	05 61       	ori	r16, 0x15	; 21
    5f5a:	e8 76       	andi	r30, 0x68	; 104
    5f5c:	e5 82       	std	Z+5, r14	; 0x05
    5f5e:	14 82       	std	Z+4, r1	; 0x04
    5f60:	07 00       	.word	0x0007	; ????
    5f62:	61 e4       	ldi	r22, 0x41	; 65
    5f64:	76 e6       	ldi	r23, 0x66	; 102
    5f66:	82 15       	cp	r24, r2
    5f68:	82 07       	cpc	r24, r18
    5f6a:	01 61       	ori	r16, 0x11	; 17
    5f6c:	e4 76       	andi	r30, 0x64	; 100
    5f6e:	e7 82       	std	Z+7, r14	; 0x07
    5f70:	16 82       	std	Z+6, r1	; 0x06
    5f72:	07 02       	muls	r16, r23
    5f74:	76 e4       	ldi	r23, 0x46	; 70
    5f76:	53 32       	cpi	r21, 0x23	; 35
    5f78:	05 00       	.word	0x0005	; ????
    5f7a:	69 53       	subi	r22, 0x39	; 57
    5f7c:	00 00       	nop
    5f7e:	03 03       	mulsu	r16, r19
    5f80:	76 e8       	ldi	r23, 0x86	; 134
    5f82:	85 32       	cpi	r24, 0x25	; 37
    5f84:	54 69       	ori	r21, 0x94	; 148
    5f86:	02 03       	mulsu	r16, r18
    5f88:	61 f9       	bld	r22, 1
    5f8a:	76 70       	andi	r23, 0x06	; 6
    5f8c:	71 60       	ori	r23, 0x01	; 1
    5f8e:	71 5c       	subi	r23, 0xC1	; 193
    5f90:	71 60       	ori	r23, 0x01	; 1
    5f92:	71 5c       	subi	r23, 0xC1	; 193
    5f94:	71 60       	ori	r23, 0x01	; 1
    5f96:	76 5c       	subi	r23, 0xC6	; 198
    5f98:	82 11       	cpse	r24, r2
    5f9a:	82 92       	st	-Z, r8
    5f9c:	82 93       	st	-Z, r24
    5f9e:	82 01       	movw	r16, r4
    5fa0:	82 14       	cp	r8, r2
    5fa2:	82 95       	swap	r24
    5fa4:	82 96       	adiw	r24, 0x22	; 34
    5fa6:	82 04       	cpc	r8, r2
    5fa8:	92 76       	andi	r25, 0x62	; 98
    5faa:	60 53       	subi	r22, 0x30	; 48
    5fac:	53 82       	std	Z+3, r5	; 0x03
    5fae:	11 33       	cpi	r17, 0x31	; 49
    5fb0:	85 82       	std	Z+5, r8	; 0x05
    5fb2:	12 33       	cpi	r17, 0x32	; 50
    5fb4:	75 82       	std	Z+5, r7	; 0x05
    5fb6:	13 33       	cpi	r17, 0x33	; 51
    5fb8:	54 55       	subi	r21, 0x54	; 84
    5fba:	02 55       	subi	r16, 0x52	; 82
    5fbc:	82 11       	cpse	r24, r2
    5fbe:	55 82       	std	Z+5, r5	; 0x05
    5fc0:	12 54       	subi	r17, 0x42	; 66
    5fc2:	22 39       	cpi	r18, 0x92	; 146
    5fc4:	82 06       	cpc	r8, r18
    5fc6:	92 76       	andi	r25, 0x62	; 98
    5fc8:	80 53       	subi	r24, 0x30	; 48
    5fca:	53 82       	std	Z+3, r5	; 0x03
    5fcc:	14 38       	cpi	r17, 0x84	; 132
    5fce:	65 82       	std	Z+5, r6	; 0x05
    5fd0:	12 55       	subi	r17, 0x52	; 82
    5fd2:	82 11       	cpse	r24, r2
    5fd4:	54 22       	and	r5, r20
    5fd6:	38 82       	st	Y, r3
    5fd8:	05 92       	.word	0x9205	; ????
    5fda:	76 45       	sbci	r23, 0x56	; 86
    5fdc:	53 53       	subi	r21, 0x33	; 51
    5fde:	82 15       	cp	r24, r2
    5fe0:	38 65       	ori	r19, 0x58	; 88
    5fe2:	82 11       	cpse	r24, r2
    5fe4:	55 82       	std	Z+5, r5	; 0x05
    5fe6:	12 54       	subi	r17, 0x42	; 66
    5fe8:	22 38       	cpi	r18, 0x82	; 130
    5fea:	82 04       	cpc	r8, r2
    5fec:	92 76       	andi	r25, 0x62	; 98
    5fee:	38 53       	subi	r19, 0x38	; 56
    5ff0:	01 94       	neg	r0
    5ff2:	22 39       	cpi	r18, 0x92	; 146
    5ff4:	75 82       	std	Z+5, r7	; 0x05
    5ff6:	14 75       	andi	r17, 0x54	; 84
    5ff8:	82 15       	cp	r24, r2
    5ffa:	54 82       	std	Z+4, r5	; 0x04
    5ffc:	06 92       	.word	0x9206	; ????
    5ffe:	76 39       	cpi	r23, 0x96	; 150
    6000:	53 82       	std	Z+3, r5	; 0x03
    6002:	11 33       	cpi	r17, 0x31	; 49
    6004:	85 82       	std	Z+5, r8	; 0x05
    6006:	12 33       	cpi	r17, 0x32	; 50
    6008:	75 02       	muls	r23, r21
    600a:	65 82       	std	Z+5, r6	; 0x05
    600c:	11 65       	ori	r17, 0x51	; 81
    600e:	82 12       	cpse	r8, r18
    6010:	65 82       	std	Z+5, r6	; 0x05
    6012:	16 39       	cpi	r17, 0x96	; 150
    6014:	54 34       	cpi	r21, 0x44	; 68
    6016:	82 03       	fmuls	r16, r18
    6018:	92 76       	andi	r25, 0x62	; 98
    601a:	11 71       	andi	r17, 0x11	; 17
    601c:	f1 92       	st	Z+, r15
    601e:	82 01       	movw	r16, r4
    6020:	71 f2       	breq	.-100    	; 0x5fbe <Module+0xa8c>
    6022:	92 82       	std	Z+2, r9	; 0x02
    6024:	02 71       	andi	r16, 0x12	; 18
    6026:	f3 92       	.word	0x92f3	; ????
    6028:	82 03       	fmuls	r16, r18
    602a:	71 70       	andi	r23, 0x01	; 1
    602c:	71 e5       	ldi	r23, 0x51	; 81
    602e:	92 71       	andi	r25, 0x12	; 18
    6030:	e6 92       	.word	0x92e6	; ????
    6032:	71 e7       	ldi	r23, 0x71	; 113
    6034:	92 61       	ori	r25, 0x12	; 18
    6036:	15 76       	andi	r17, 0x65	; 101
    6038:	12 71       	andi	r17, 0x12	; 18
    603a:	f1 92       	st	Z+, r15
    603c:	82 01       	movw	r16, r4
    603e:	71 f2       	breq	.-100    	; 0x5fdc <Module+0xaaa>
    6040:	92 82       	std	Z+2, r9	; 0x02
    6042:	02 71       	andi	r16, 0x12	; 18
    6044:	f5 92       	.word	0x92f5	; ????
    6046:	82 04       	cpc	r8, r2
    6048:	71 80       	ldd	r7, Z+1	; 0x01
    604a:	71 38       	cpi	r23, 0x81	; 129
    604c:	71 39       	cpi	r23, 0x91	; 145
    604e:	71 e3       	ldi	r23, 0x31	; 49
    6050:	92 71       	andi	r25, 0x12	; 18
    6052:	e6 92       	.word	0x92e6	; ????
    6054:	71 e7       	ldi	r23, 0x71	; 113
    6056:	92 61       	ori	r25, 0x12	; 18
    6058:	15 76       	andi	r17, 0x65	; 101
    605a:	13 71       	andi	r17, 0x13	; 19
    605c:	f6 92       	.word	0x92f6	; ????
    605e:	82 05       	cpc	r24, r2
    6060:	71 f1       	breq	.+92     	; 0x60be <Module+0xb8c>
    6062:	92 82       	std	Z+2, r9	; 0x02
    6064:	01 71       	andi	r16, 0x11	; 17
    6066:	f2 92       	st	-Z, r15
    6068:	82 02       	muls	r24, r18
    606a:	71 45       	sbci	r23, 0x51	; 81
    606c:	71 38       	cpi	r23, 0x81	; 129
    606e:	71 39       	cpi	r23, 0x91	; 145
    6070:	71 e3       	ldi	r23, 0x31	; 49
    6072:	92 71       	andi	r25, 0x12	; 18
    6074:	e5 92       	.word	0x92e5	; ????
    6076:	71 e7       	ldi	r23, 0x71	; 113
    6078:	92 61       	ori	r25, 0x12	; 18
    607a:	15 76       	andi	r17, 0x65	; 101
    607c:	14 71       	andi	r17, 0x14	; 20
    607e:	f1 92       	st	Z+, r15
    6080:	82 01       	movw	r16, r4
    6082:	71 f7       	brne	.-36     	; 0x6060 <Module+0xb2e>
    6084:	92 82       	std	Z+2, r9	; 0x02
    6086:	06 71       	andi	r16, 0x16	; 22
    6088:	f2 92       	st	-Z, r15
    608a:	82 02       	muls	r24, r18
    608c:	71 39       	cpi	r23, 0x91	; 145
    608e:	71 70       	andi	r23, 0x01	; 1
    6090:	71 e3       	ldi	r23, 0x31	; 49
    6092:	92 71       	andi	r25, 0x12	; 18
    6094:	e5 92       	.word	0x92e5	; ????
    6096:	71 e6       	ldi	r23, 0x61	; 97
    6098:	92 76       	andi	r25, 0x62	; 98
    609a:	15 53       	subi	r17, 0x35	; 53
    609c:	05 02       	muls	r16, r21
    609e:	69 53       	subi	r22, 0x39	; 57
    60a0:	69 01       	movw	r12, r18
    60a2:	05 03       	mulsu	r16, r21
    60a4:	69 53       	subi	r22, 0x39	; 57
    60a6:	00 00       	nop
    60a8:	69 02       	muls	r22, r25
    60aa:	54 69       	ori	r21, 0x94	; 148
    60ac:	1f 69       	ori	r17, 0x9F	; 159
    60ae:	1a 53       	subi	r17, 0x3A	; 58
    60b0:	53 82       	std	Z+3, r5	; 0x03
    60b2:	11 85       	ldd	r17, Z+9	; 0x09
    60b4:	82 12       	cpse	r8, r18
    60b6:	85 82       	std	Z+5, r8	; 0x05
    60b8:	13 54       	subi	r17, 0x43	; 67
    60ba:	55 02       	muls	r21, r21
    60bc:	54 82       	std	Z+4, r5	; 0x04
    60be:	07 53       	subi	r16, 0x37	; 55
    60c0:	82 17       	cp	r24, r18
    60c2:	65 53       	subi	r22, 0x35	; 53
    60c4:	82 17       	cp	r24, r18
    60c6:	75 82       	std	Z+5, r7	; 0x05
    60c8:	11 54       	subi	r17, 0x41	; 65
    60ca:	65 53       	subi	r22, 0x35	; 53
    60cc:	82 17       	cp	r24, r18
    60ce:	75 82       	std	Z+5, r7	; 0x05
    60d0:	12 54       	subi	r17, 0x42	; 66
    60d2:	65 53       	subi	r22, 0x35	; 53
    60d4:	82 17       	cp	r24, r18
    60d6:	75 82       	std	Z+5, r7	; 0x05
    60d8:	13 54       	subi	r17, 0x43	; 67
    60da:	54 34       	cpi	r21, 0x44	; 68
    60dc:	92 76       	andi	r25, 0x62	; 98
    60de:	10 53       	subi	r17, 0x30	; 48
    60e0:	05 02       	muls	r16, r21
    60e2:	69 53       	subi	r22, 0x39	; 57
    60e4:	69 01       	movw	r12, r18
    60e6:	05 04       	cpc	r0, r5
    60e8:	69 53       	subi	r22, 0x39	; 57
    60ea:	69 02       	muls	r22, r25
    60ec:	54 69       	ori	r21, 0x94	; 148
    60ee:	1f 69       	ori	r17, 0x9F	; 159
    60f0:	1a 53       	subi	r17, 0x3A	; 58
    60f2:	82 11       	cpse	r24, r2
    60f4:	85 82       	std	Z+5, r8	; 0x05
    60f6:	12 85       	ldd	r17, Z+10	; 0x0a
    60f8:	82 13       	cpse	r24, r18
    60fa:	54 92       	.word	0x9254	; ????
    60fc:	25 92       	.word	0x9225	; ????
    60fe:	76 30       	cpi	r23, 0x06	; 6
    6100:	53 01       	movw	r10, r6
    6102:	94 22       	and	r9, r20
    6104:	39 75       	andi	r19, 0x59	; 89
    6106:	82 15       	cp	r24, r2
    6108:	75 82       	std	Z+5, r7	; 0x05
    610a:	16 54       	subi	r17, 0x46	; 70
    610c:	82 04       	cpc	r8, r2
    610e:	92 76       	andi	r25, 0x62	; 98
    6110:	48 53       	subi	r20, 0x38	; 56
    6112:	01 94       	neg	r0
    6114:	22 39       	cpi	r18, 0x92	; 146
    6116:	75 82       	std	Z+5, r7	; 0x05
    6118:	14 75       	andi	r17, 0x54	; 84
    611a:	82 16       	cp	r8, r18
    611c:	54 82       	std	Z+4, r5	; 0x04
    611e:	05 92       	.word	0x9205	; ????
    6120:	76 23       	and	r23, r22
    6122:	53 82       	std	Z+3, r5	; 0x03
    6124:	15 38       	cpi	r17, 0x85	; 133
    6126:	65 82       	std	Z+5, r6	; 0x05
    6128:	11 55       	subi	r17, 0x51	; 81
    612a:	82 14       	cp	r8, r2
    612c:	38 54       	subi	r19, 0x48	; 72
    612e:	82 02       	muls	r24, r18
    6130:	92 76       	andi	r25, 0x62	; 98
    6132:	33 53       	subi	r19, 0x33	; 51
    6134:	82 16       	cp	r8, r18
    6136:	38 65       	ori	r19, 0x58	; 88
    6138:	82 11       	cpse	r24, r2
    613a:	55 82       	std	Z+5, r5	; 0x05
    613c:	14 38       	cpi	r17, 0x84	; 132
    613e:	54 82       	std	Z+4, r5	; 0x04
    6140:	03 92       	.word	0x9203	; ????
    6142:	76 11       	cpse	r23, r6
    6144:	36 11       	cpse	r19, r6
    6146:	71 f1       	breq	.+92     	; 0x61a4 <Module+0xc72>
    6148:	92 82       	std	Z+2, r9	; 0x02
    614a:	01 36       	cpi	r16, 0x61	; 97
    614c:	11 71       	andi	r17, 0x11	; 17
    614e:	f5 92       	.word	0x92f5	; ????
    6150:	82 04       	cpc	r8, r2
    6152:	36 11       	cpse	r19, r6
    6154:	71 f6       	brne	.-100    	; 0x60f2 <Module+0xbc0>
    6156:	92 82       	std	Z+2, r9	; 0x02
    6158:	05 36       	cpi	r16, 0x65	; 101
    615a:	11 71       	andi	r17, 0x11	; 17
    615c:	38 71       	andi	r19, 0x18	; 24
    615e:	23 71       	andi	r18, 0x13	; 19
    6160:	33 36       	cpi	r19, 0x63	; 99
    6162:	11 71       	andi	r17, 0x11	; 17
    6164:	e2 92       	st	-Z, r14
    6166:	36 11       	cpse	r19, r6
    6168:	71 e3       	ldi	r23, 0x31	; 49
    616a:	92 36       	cpi	r25, 0x62	; 98
    616c:	11 71       	andi	r17, 0x11	; 17
    616e:	e7 92       	.word	0x92e7	; ????
    6170:	61 14       	cp	r6, r1
    6172:	76 12       	cpse	r7, r22
    6174:	36 11       	cpse	r19, r6
    6176:	71 f5       	brne	.+92     	; 0x61d4 <Module+0xca2>
    6178:	92 82       	std	Z+2, r9	; 0x02
    617a:	04 36       	cpi	r16, 0x64	; 100
    617c:	11 71       	andi	r17, 0x11	; 17
    617e:	f7 92       	.word	0x92f7	; ????
    6180:	82 06       	cpc	r8, r18
    6182:	36 11       	cpse	r19, r6
    6184:	71 f1       	breq	.+92     	; 0x61e2 <Module+0xcb0>
    6186:	92 82       	std	Z+2, r9	; 0x02
    6188:	01 71       	andi	r16, 0x11	; 17
    618a:	48 71       	andi	r20, 0x18	; 24
    618c:	23 71       	andi	r18, 0x13	; 19
    618e:	33 36       	cpi	r19, 0x63	; 99
    6190:	11 71       	andi	r17, 0x11	; 17
    6192:	e2 92       	st	-Z, r14
    6194:	36 11       	cpse	r19, r6
    6196:	71 e3       	ldi	r23, 0x31	; 49
    6198:	92 36       	cpi	r25, 0x62	; 98
    619a:	11 71       	andi	r17, 0x11	; 17
    619c:	e6 92       	.word	0x92e6	; ????
    619e:	61 14       	cp	r6, r1
    61a0:	76 13       	cpse	r23, r22
    61a2:	36 11       	cpse	r19, r6
    61a4:	71 f6       	brne	.-100    	; 0x6142 <Module+0xc10>
    61a6:	92 82       	std	Z+2, r9	; 0x02
    61a8:	05 36       	cpi	r16, 0x65	; 101
    61aa:	11 71       	andi	r17, 0x11	; 17
    61ac:	f1 92       	st	Z+, r15
    61ae:	82 01       	movw	r16, r4
    61b0:	36 11       	cpse	r19, r6
    61b2:	71 f7       	brne	.-36     	; 0x6190 <Module+0xc5e>
    61b4:	92 82       	std	Z+2, r9	; 0x02
    61b6:	06 71       	andi	r16, 0x16	; 22
    61b8:	30 71       	andi	r19, 0x10	; 16
    61ba:	23 71       	andi	r18, 0x13	; 19
    61bc:	33 36       	cpi	r19, 0x63	; 99
    61be:	11 71       	andi	r17, 0x11	; 17
    61c0:	e2 92       	st	-Z, r14
    61c2:	36 11       	cpse	r19, r6
    61c4:	71 e3       	ldi	r23, 0x31	; 49
    61c6:	92 36       	cpi	r25, 0x62	; 98
    61c8:	11 71       	andi	r17, 0x11	; 17
    61ca:	e5 92       	.word	0x92e5	; ????
    61cc:	76 14       	cp	r7, r6
    61ce:	36 11       	cpse	r19, r6
    61d0:	15 92       	.word	0x9215	; ????
    61d2:	76 15       	cp	r23, r6
    61d4:	36 11       	cpse	r19, r6
    61d6:	10 92 25 92 	sts	0x9225, r1
    61da:	76 f1       	brts	.+92     	; 0x6238 <Module+0xd06>
    61dc:	32 05       	cpc	r19, r2
    61de:	00 69       	ori	r16, 0x90	; 144
    61e0:	53 00       	.word	0x0053	; ????
    61e2:	00 08       	sbc	r0, r0
    61e4:	04 07       	cpc	r16, r20
    61e6:	02 76       	andi	r16, 0x62	; 98
    61e8:	f0 69       	ori	r31, 0x90	; 144
    61ea:	02 92       	st	-Z, r0
    61ec:	76 f2       	brts	.-100    	; 0x618a <Module+0xc58>
    61ee:	32 05       	cpc	r19, r2
    61f0:	05 69       	ori	r16, 0x95	; 149
    61f2:	53 00       	.word	0x0053	; ????
    61f4:	00 08       	sbc	r0, r0
    61f6:	02 61       	ori	r16, 0x12	; 18
    61f8:	f0 76       	andi	r31, 0x60	; 96
    61fa:	f3 32       	cpi	r31, 0x23	; 35
    61fc:	05 06       	cpc	r0, r21
    61fe:	69 53       	subi	r22, 0x39	; 57
    6200:	00 00       	nop
    6202:	08 03       	fmul	r16, r16
    6204:	61 f0       	breq	.+24     	; 0x621e <Module+0xcec>
    6206:	76 f4       	brtc	.+28     	; 0x6224 <Module+0xcf2>
    6208:	32 05       	cpc	r19, r2
    620a:	07 69       	ori	r16, 0x97	; 151
    620c:	53 00       	.word	0x0053	; ????
    620e:	00 06       	cpc	r0, r16
    6210:	07 61       	ori	r16, 0x17	; 23
    6212:	f0 76       	andi	r31, 0x60	; 96
    6214:	f5 32       	cpi	r31, 0x25	; 37
    6216:	05 03       	mulsu	r16, r21
    6218:	69 53       	subi	r22, 0x39	; 57
    621a:	00 00       	nop
    621c:	03 03       	mulsu	r16, r19
    621e:	61 f0       	breq	.+24     	; 0x6238 <Module+0xd06>
    6220:	76 f6       	brtc	.-100    	; 0x61be <Module+0xc8c>
    6222:	32 05       	cpc	r19, r2
    6224:	08 69       	ori	r16, 0x98	; 152
    6226:	53 00       	.word	0x0053	; ????
    6228:	00 06       	cpc	r0, r16
    622a:	05 61       	ori	r16, 0x15	; 21
    622c:	f0 76       	andi	r31, 0x60	; 96
    622e:	f7 32       	cpi	r31, 0x27	; 39
    6230:	01 01       	movw	r0, r2
    6232:	00 69       	ori	r16, 0x90	; 144
    6234:	53 00       	.word	0x0053	; ????
    6236:	00 07       	cpc	r16, r16
    6238:	02 61       	ori	r16, 0x12	; 18
    623a:	f0 76       	andi	r31, 0x60	; 96
    623c:	e1 71       	andi	r30, 0x11	; 17
    623e:	f1 61       	ori	r31, 0x11	; 17
    6240:	e0 76       	andi	r30, 0x60	; 96
    6242:	e2 71       	andi	r30, 0x12	; 18
    6244:	f2 61       	ori	r31, 0x12	; 18
    6246:	e0 76       	andi	r30, 0x60	; 96
    6248:	e3 71       	andi	r30, 0x13	; 19
    624a:	f3 61       	ori	r31, 0x13	; 19
    624c:	e0 76       	andi	r30, 0x60	; 96
    624e:	e4 71       	andi	r30, 0x14	; 20
    6250:	f4 76       	andi	r31, 0x64	; 100
    6252:	e0 05       	cpc	r30, r0
    6254:	76 ef       	ldi	r23, 0xF6	; 246
    6256:	69 53       	subi	r22, 0x39	; 57
    6258:	00 00       	nop
    625a:	69 01       	movw	r12, r18
    625c:	69 1f       	adc	r22, r25
    625e:	69 1a       	sub	r6, r25
    6260:	32 92       	st	-Z, r3
    6262:	76 d1       	rcall	.+748    	; 0x6550 <Module+0x101e>
    6264:	82 11       	cpse	r24, r2
    6266:	69 73       	andi	r22, 0x39	; 57
    6268:	71 f1       	breq	.+92     	; 0x62c6 <Module+0xd94>
    626a:	61 d0       	rcall	.+194    	; 0x632e <Module+0xdfc>
    626c:	76 d2       	rcall	.+1260   	; 0x675a <Module+0x1228>
    626e:	82 12       	cpse	r8, r18
    6270:	71 f2       	breq	.-100    	; 0x620e <Module+0xcdc>
    6272:	61 d0       	rcall	.+194    	; 0x6336 <Module+0xe04>
    6274:	76 d3       	rcall	.+1772   	; 0x6962 <Module+0x1430>
    6276:	82 13       	cpse	r24, r18
    6278:	71 f3       	breq	.-36     	; 0x6256 <Module+0xd24>
    627a:	61 d0       	rcall	.+194    	; 0x633e <Module+0xe0c>
    627c:	76 d4       	rcall	.+2284   	; 0x6b6a <Module+0x1638>
    627e:	82 14       	cp	r8, r2
    6280:	71 f4       	brne	.+28     	; 0x629e <Module+0xd6c>
    6282:	61 d0       	rcall	.+194    	; 0x6346 <Module+0xe14>
    6284:	76 d5       	rcall	.+2796   	; 0x6d72 <Module+0x1840>
    6286:	53 82       	std	Z+3, r5	; 0x03
    6288:	12 33       	cpi	r17, 0x32	; 50
    628a:	65 82       	std	Z+5, r6	; 0x05
    628c:	11 55       	subi	r17, 0x51	; 81
    628e:	02 54       	subi	r16, 0x42	; 66
    6290:	71 f5       	brne	.+92     	; 0x62ee <Module+0xdbc>
    6292:	61 d0       	rcall	.+194    	; 0x6356 <Module+0xe24>
    6294:	76 d6       	rcall	.+3308   	; 0x6f82 <Module+0x1a50>
    6296:	53 53       	subi	r21, 0x33	; 51
    6298:	82 11       	cpse	r24, r2
    629a:	75 69       	ori	r23, 0x95	; 149
    629c:	73 38       	cpi	r23, 0x83	; 131
    629e:	54 55       	subi	r21, 0x54	; 84
    62a0:	02 65       	ori	r16, 0x52	; 82
    62a2:	82 12       	cpse	r8, r18
    62a4:	33 54       	subi	r19, 0x43	; 67
    62a6:	71 f6       	brne	.-100    	; 0x6244 <Module+0xd12>
    62a8:	76 d0       	rcall	.+236    	; 0x6396 <Module+0xe64>
    62aa:	03 61       	ori	r16, 0x13	; 19
    62ac:	ef 76       	andi	r30, 0x6F	; 111
    62ae:	69 53       	subi	r22, 0x39	; 57
    62b0:	82 11       	cpse	r24, r2
    62b2:	55 02       	muls	r21, r21
    62b4:	54 53       	subi	r21, 0x34	; 52
    62b6:	69 73       	andi	r22, 0x39	; 57
    62b8:	38 65       	ori	r19, 0x58	; 88
    62ba:	02 92       	st	-Z, r0
    62bc:	76 60       	ori	r23, 0x06	; 6
    62be:	53 82       	std	Z+3, r5	; 0x03
    62c0:	11 65       	ori	r17, 0x51	; 81
    62c2:	82 12       	cpse	r8, r18
    62c4:	54 82       	std	Z+4, r5	; 0x04
    62c6:	03 92       	.word	0x9203	; ????
    62c8:	76 70       	andi	r23, 0x06	; 6
    62ca:	53 82       	std	Z+3, r5	; 0x03
    62cc:	12 65       	ori	r17, 0x52	; 82
    62ce:	53 01       	movw	r10, r6
    62d0:	75 53       	subi	r23, 0x35	; 53
    62d2:	82 11       	cpse	r24, r2
    62d4:	55 02       	muls	r21, r21
    62d6:	54 69       	ori	r21, 0x94	; 148
    62d8:	73 39       	cpi	r23, 0x93	; 147
    62da:	54 54       	subi	r21, 0x44	; 68
    62dc:	71 f7       	brne	.-36     	; 0x62ba <Module+0xd88>
    62de:	61 d0       	rcall	.+194    	; 0x63a2 <Module+0xe70>
    62e0:	76 11       	cpse	r23, r6
    62e2:	71 e1       	ldi	r23, 0x11	; 17
    62e4:	92 69       	ori	r25, 0x92	; 146
    62e6:	72 82       	std	Z+2, r7	; 0x02
    62e8:	01 69       	ori	r16, 0x91	; 145
    62ea:	73 71       	andi	r23, 0x13	; 19
    62ec:	e2 92       	st	-Z, r14
    62ee:	82 02       	muls	r24, r18
    62f0:	71 60       	ori	r23, 0x01	; 1
    62f2:	71 d3       	rcall	.+1762   	; 0x69d6 <Module+0x14a4>
    62f4:	76 85       	ldd	r23, Z+14	; 0x0e
    62f6:	92 71       	andi	r25, 0x12	; 18
    62f8:	69 65       	ori	r22, 0x59	; 89
    62fa:	82 12       	cpse	r8, r18
    62fc:	54 82       	std	Z+4, r5	; 0x04
    62fe:	04 71       	andi	r16, 0x14	; 20
    6300:	d4 76       	andi	r29, 0x64	; 100
    6302:	75 92       	.word	0x9275	; ????
    6304:	71 d5       	rcall	.+2786   	; 0x6de8 <Module+0x18b6>
    6306:	92 71       	andi	r25, 0x12	; 18
    6308:	d6 92       	.word	0x92d6	; ????
    630a:	71 70       	andi	r23, 0x01	; 1
    630c:	92 25       	eor	r25, r2
    630e:	92 76       	andi	r25, 0x62	; 98
    6310:	12 71       	andi	r17, 0x12	; 18
    6312:	e1 92       	st	Z+, r14
    6314:	69 72       	andi	r22, 0x29	; 41
    6316:	82 01       	movw	r16, r4
    6318:	69 73       	andi	r22, 0x39	; 57
    631a:	71 e3       	ldi	r23, 0x31	; 49
    631c:	92 82       	std	Z+2, r9	; 0x02
    631e:	03 53       	subi	r16, 0x33	; 51
    6320:	82 13       	cpse	r24, r18
    6322:	55 82       	std	Z+5, r5	; 0x05
    6324:	11 54       	subi	r17, 0x41	; 65
    6326:	82 02       	muls	r24, r18
    6328:	71 d2       	rcall	.+1250   	; 0x680c <Module+0x12da>
    632a:	61 85       	ldd	r22, Z+9	; 0x09
    632c:	76 13       	cpse	r23, r22
    632e:	71 e1       	ldi	r23, 0x11	; 17
    6330:	92 69       	ori	r25, 0x92	; 146
    6332:	72 82       	std	Z+2, r7	; 0x02
    6334:	01 69       	ori	r16, 0x91	; 145
    6336:	73 71       	andi	r23, 0x13	; 19
    6338:	e4 92       	.word	0x92e4	; ????
    633a:	82 04       	cpc	r8, r2
    633c:	53 82       	std	Z+3, r5	; 0x03
    633e:	14 55       	subi	r17, 0x54	; 84
    6340:	71 69       	ori	r23, 0x91	; 145
    6342:	54 54       	subi	r21, 0x44	; 68
    6344:	82 02       	muls	r24, r18
    6346:	71 d2       	rcall	.+1250   	; 0x682a <Module+0x12f8>
    6348:	92 71       	andi	r25, 0x12	; 18
    634a:	60 71       	andi	r22, 0x10	; 16
    634c:	d3 61       	ori	r29, 0x13	; 19
    634e:	75 76       	andi	r23, 0x65	; 101
    6350:	14 71       	andi	r17, 0x14	; 20
    6352:	e2 92       	st	-Z, r14
    6354:	82 02       	muls	r24, r18
    6356:	71 e3       	ldi	r23, 0x31	; 49
    6358:	92 82       	std	Z+2, r9	; 0x02
    635a:	03 53       	subi	r16, 0x33	; 51
    635c:	82 13       	cpse	r24, r18
    635e:	55 82       	std	Z+5, r5	; 0x05
    6360:	12 54       	subi	r17, 0x42	; 66
    6362:	82 01       	movw	r16, r4
    6364:	71 d1       	rcall	.+738    	; 0x6648 <Module+0x1116>
    6366:	61 85       	ldd	r22, Z+9	; 0x09
    6368:	76 15       	cp	r23, r6
    636a:	71 e2       	ldi	r23, 0x21	; 33
    636c:	92 82       	std	Z+2, r9	; 0x02
    636e:	02 71       	andi	r16, 0x12	; 18
    6370:	e4 92       	.word	0x92e4	; ????
    6372:	82 04       	cpc	r8, r2
    6374:	53 53       	subi	r21, 0x33	; 51
    6376:	82 14       	cp	r8, r2
    6378:	55 02       	muls	r21, r21
    637a:	55 82       	std	Z+5, r5	; 0x05
    637c:	12 54       	subi	r17, 0x42	; 66
    637e:	22 38       	cpi	r18, 0x82	; 130
    6380:	69 72       	andi	r22, 0x29	; 41
    6382:	65 02       	muls	r22, r21
    6384:	54 82       	std	Z+4, r5	; 0x04
    6386:	01 71       	andi	r16, 0x11	; 17
    6388:	d1 92       	st	Z+, r13
    638a:	71 60       	ori	r23, 0x01	; 1
    638c:	71 d3       	rcall	.+1762   	; 0x6a70 <Module+0x153e>
    638e:	61 75       	andi	r22, 0x51	; 81
    6390:	76 11       	cpse	r23, r6
    6392:	69 74       	andi	r22, 0x49	; 73
    6394:	92 76       	andi	r25, 0x62	; 98
    6396:	12 69       	ori	r17, 0x92	; 146
    6398:	75 92       	.word	0x9275	; ????
    639a:	76 13       	cpse	r23, r22
    639c:	69 76       	andi	r22, 0x69	; 105
    639e:	92 76       	andi	r25, 0x62	; 98
    63a0:	16 25       	eor	r17, r6
    63a2:	01 01       	movw	r0, r2
    63a4:	06 42       	sbci	r16, 0x26	; 38
    63a6:	01 04       	cpc	r0, r1
    63a8:	00 61       	ori	r16, 0x10	; 16
    63aa:	69 76       	andi	r22, 0x69	; 105
    63ac:	17 25       	eor	r17, r7
    63ae:	01 01       	movw	r0, r2
    63b0:	07 42       	sbci	r16, 0x27	; 39
    63b2:	01 61       	ori	r16, 0x11	; 17
    63b4:	60 76       	andi	r22, 0x60	; 96
    63b6:	18 25       	eor	r17, r8
    63b8:	01 01       	movw	r0, r2
    63ba:	08 42       	sbci	r16, 0x28	; 40
    63bc:	01 76       	andi	r16, 0x61	; 97
    63be:	60 01       	movw	r12, r0
    63c0:	07 76       	andi	r16, 0x67	; 103
    63c2:	69 82       	std	Y+1, r6	; 0x01
    63c4:	03 01       	movw	r0, r6
    63c6:	05 82       	std	Z+5, r0	; 0x05
    63c8:	02 76       	andi	r16, 0x62	; 98
    63ca:	70 82       	st	Z, r7
    63cc:	12 75       	andi	r17, 0x52	; 82
    63ce:	32 07       	cpc	r19, r18
    63d0:	93 05       	cpc	r25, r3
    63d2:	95 55       	subi	r25, 0x55	; 85
    63d4:	03 95       	inc	r16
    63d6:	84 01       	movw	r16, r8
    63d8:	65 82       	std	Z+5, r6	; 0x05
    63da:	13 95       	inc	r17
    63dc:	69 4b       	sbci	r22, 0xB9	; 185
    63de:	82 82       	std	Z+2, r8	; 0x02
    63e0:	82 12       	cpse	r8, r18
    63e2:	29 77       	andi	r18, 0x79	; 121
    63e4:	70 02       	muls	r23, r16
    63e6:	05 05       	cpc	r16, r5
    63e8:	32 76       	andi	r19, 0x62	; 98
    63ea:	76 69       	ori	r23, 0x96	; 150
    63ec:	40 67       	ori	r20, 0x70	; 112
    63ee:	76 25       	eor	r23, r6
    63f0:	92 76       	andi	r25, 0x62	; 98
    63f2:	11 82       	std	Z+1, r1	; 0x01
    63f4:	01 92       	st	Z+, r0
    63f6:	76 12       	cpse	r7, r22
    63f8:	82 02       	muls	r24, r18
    63fa:	92 76       	andi	r25, 0x62	; 98
    63fc:	13 53       	subi	r17, 0x33	; 51
    63fe:	2d 65       	ori	r18, 0x5D	; 93
    6400:	53 82       	std	Z+3, r5	; 0x03
    6402:	12 75       	andi	r17, 0x52	; 82
    6404:	82 11       	cpse	r24, r2
    6406:	54 85       	ldd	r21, Z+12	; 0x0c
    6408:	82 11       	cpse	r24, r2
    640a:	54 92       	.word	0x9254	; ????
    640c:	76 14       	cp	r7, r6
    640e:	13 59       	subi	r17, 0x93	; 147
    6410:	92 76       	andi	r25, 0x62	; 98
    6412:	15 53       	subi	r17, 0x35	; 53
    6414:	53 2d       	mov	r21, r3
    6416:	65 02       	muls	r22, r21
    6418:	65 89       	ldd	r22, Z+21	; 0x15
    641a:	54 69       	ori	r21, 0x94	; 148
    641c:	73 39       	cpi	r23, 0x93	; 147
    641e:	65 53       	subi	r22, 0x35	; 53
    6420:	2d 23       	and	r18, r29
    6422:	65 02       	muls	r22, r21
    6424:	94 54       	subi	r25, 0x44	; 68
    6426:	34 65       	ori	r19, 0x54	; 84
    6428:	82 12       	cpse	r8, r18
    642a:	85 82       	std	Z+5, r8	; 0x05
    642c:	11 54       	subi	r17, 0x41	; 65
    642e:	92 76       	andi	r25, 0x62	; 98
    6430:	11 82       	std	Z+1, r1	; 0x01
    6432:	01 92       	st	Z+, r0
    6434:	76 12       	cpse	r7, r22
    6436:	82 02       	muls	r24, r18
    6438:	92 76       	andi	r25, 0x62	; 98
    643a:	13 53       	subi	r17, 0x33	; 51
    643c:	82 11       	cpse	r24, r2
    643e:	4c 75       	andi	r20, 0x5C	; 92
    6440:	53 82       	std	Z+3, r5	; 0x03
    6442:	11 75       	andi	r17, 0x51	; 81
    6444:	82 12       	cpse	r8, r18
    6446:	54 4c       	sbci	r21, 0xC4	; 196
    6448:	54 22       	and	r5, r20
    644a:	23 5d       	subi	r18, 0xD3	; 211
    644c:	92 76       	andi	r25, 0x62	; 98
    644e:	14 82       	std	Z+4, r1	; 0x04
    6450:	11 4b       	sbci	r17, 0xB1	; 177
    6452:	92 76       	andi	r25, 0x62	; 98
    6454:	15 53       	subi	r17, 0x35	; 53
    6456:	82 11       	cpse	r24, r2
    6458:	4c 75       	andi	r20, 0x5C	; 92
    645a:	53 82       	std	Z+3, r5	; 0x03
    645c:	11 75       	andi	r17, 0x51	; 81
    645e:	82 12       	cpse	r8, r18
    6460:	54 4c       	sbci	r21, 0xC4	; 196
    6462:	75 82       	std	Z+5, r7	; 0x05
    6464:	12 4c       	sbci	r17, 0xC2	; 194
    6466:	54 22       	and	r5, r20
    6468:	23 5d       	subi	r18, 0xD3	; 211
    646a:	92 76       	andi	r25, 0x62	; 98
    646c:	16 4b       	sbci	r17, 0xB6	; 182
    646e:	92 76       	andi	r25, 0x62	; 98
    6470:	17 4c       	sbci	r17, 0xC7	; 199
    6472:	92 76       	andi	r25, 0x62	; 98
    6474:	18 53       	subi	r17, 0x38	; 56
    6476:	82 11       	cpse	r24, r2
    6478:	45 82       	std	Z+5, r4	; 0x05
    647a:	12 54       	subi	r17, 0x42	; 66
    647c:	5d 92       	st	X+, r5
    647e:	76 19       	sub	r23, r6
    6480:	53 82       	std	Z+3, r5	; 0x03
    6482:	11 45       	sbci	r17, 0x51	; 81
    6484:	82 11       	cpse	r24, r2
    6486:	54 5d       	subi	r21, 0xD4	; 212
    6488:	92 76       	andi	r25, 0x62	; 98
    648a:	10 53       	subi	r17, 0x30	; 48
    648c:	53 82       	std	Z+3, r5	; 0x03
    648e:	12 85       	ldd	r17, Z+10	; 0x0a
    6490:	82 11       	cpse	r24, r2
    6492:	75 01       	movw	r14, r10
    6494:	54 4c       	sbci	r21, 0xC4	; 196
    6496:	75 53       	subi	r23, 0x35	; 53
    6498:	82 11       	cpse	r24, r2
    649a:	75 01       	movw	r14, r10
    649c:	54 4c       	sbci	r21, 0xC4	; 196
    649e:	75 82       	std	Z+5, r7	; 0x05
    64a0:	12 4c       	sbci	r17, 0xC2	; 194
    64a2:	54 22       	and	r5, r20
    64a4:	23 5d       	subi	r18, 0xD3	; 211
    64a6:	92 76       	andi	r25, 0x62	; 98
    64a8:	1a 4d       	sbci	r17, 0xDA	; 218
    64aa:	76 4d       	sbci	r23, 0xD6	; 214
    64ac:	53 24       	eor	r5, r3
    64ae:	85 22       	and	r8, r21
    64b0:	59 22       	and	r5, r25
    64b2:	28 32       	cpi	r18, 0x28	; 40
    64b4:	00 54       	subi	r16, 0x40	; 64
    64b6:	59 69       	ori	r21, 0x99	; 153
    64b8:	1e 92       	st	-X, r1
    64ba:	76 1b       	sub	r23, r22
    64bc:	4d 92       	st	X+, r4
    64be:	76 1c       	adc	r7, r6
    64c0:	5d 82       	std	Y+5, r5	; 0x05
    64c2:	03 00       	.word	0x0003	; ????
    64c4:	76 4c       	sbci	r23, 0xC6	; 198
    64c6:	53 24       	eor	r5, r3
    64c8:	85 82       	std	Z+5, r8	; 0x05
    64ca:	13 4d       	sbci	r17, 0xD3	; 211
    64cc:	54 82       	std	Z+4, r5	; 0x04
    64ce:	e3 4c       	sbci	r30, 0xC3	; 195
    64d0:	61 4d       	sbci	r22, 0xD1	; 209
    64d2:	76 1d       	adc	r23, r6
    64d4:	5d 82       	std	Y+5, r5	; 0x05
    64d6:	03 00       	.word	0x0003	; ????
    64d8:	76 4b       	sbci	r23, 0xB6	; 182
    64da:	53 24       	eor	r5, r3
    64dc:	85 82       	std	Z+5, r8	; 0x05
    64de:	13 24       	eor	r1, r3
    64e0:	65 28       	or	r6, r5
    64e2:	54 82       	std	Z+4, r5	; 0x04
    64e4:	e3 4b       	sbci	r30, 0xB3	; 179
    64e6:	61 4d       	sbci	r22, 0xD1	; 209
    64e8:	76 1e       	adc	r7, r22
    64ea:	25 69       	ori	r18, 0x95	; 149
    64ec:	1d 92       	st	X+, r1
    64ee:	76 11       	cpse	r23, r6
    64f0:	82 02       	muls	r24, r18
    64f2:	01 00       	.word	0x0001	; ????
    64f4:	82 01       	movw	r16, r4
    64f6:	00 82       	st	Z, r0
    64f8:	03 82       	std	Z+3, r0	; 0x03
    64fa:	04 82       	std	Z+4, r0	; 0x04
    64fc:	05 82       	std	Z+5, r0	; 0x05
    64fe:	12 92       	st	-Z, r1
    6500:	76 12       	cpse	r7, r22
    6502:	7a e3       	ldi	r23, 0x3A	; 58
    6504:	02 87       	std	Z+10, r16	; 0x0a
    6506:	82 73       	andi	r24, 0x32	; 50
    6508:	76 79       	andi	r23, 0x96	; 150
    650a:	27 01       	movw	r4, r14
    650c:	82 71       	andi	r24, 0x12	; 18
    650e:	82 75       	andi	r24, 0x52	; 82
    6510:	82 34       	cpi	r24, 0x42	; 66
    6512:	53 82       	std	Z+3, r5	; 0x03
    6514:	14 55       	subi	r17, 0x54	; 84
    6516:	82 13       	cpse	r24, r18
    6518:	54 92       	.word	0x9254	; ????
    651a:	76 87       	std	Z+14, r23	; 0x0e
    651c:	32 7a       	andi	r19, 0xA2	; 162
    651e:	95 02       	muls	r25, r21
    6520:	86 01       	movw	r16, r12
    6522:	00 82       	st	Z, r0
    6524:	01 00       	.word	0x0001	; ????
    6526:	82 05       	cpc	r24, r2
    6528:	76 86       	std	Z+14, r7	; 0x0e
    652a:	27 11       	cpse	r18, r7
    652c:	82 54       	subi	r24, 0x42	; 66
    652e:	32 61       	ori	r19, 0x12	; 18
    6530:	79 76       	andi	r23, 0x69	; 105
    6532:	11 29       	or	r17, r1
    6534:	67 25       	eor	r22, r7
    6536:	82 01       	movw	r16, r4
    6538:	92 76       	andi	r25, 0x62	; 98
    653a:	25 53       	subi	r18, 0x35	; 53
    653c:	71 71       	andi	r23, 0x11	; 17
    653e:	23 55       	subi	r18, 0x53	; 83
    6540:	82 19       	sub	r24, r2
    6542:	23 54       	subi	r18, 0x43	; 67
    6544:	82 01       	movw	r16, r4
    6546:	92 76       	andi	r25, 0x62	; 98
    6548:	22 53       	subi	r18, 0x32	; 50
    654a:	01 00       	.word	0x0001	; ????
    654c:	00 75       	andi	r16, 0x50	; 80
    654e:	24 65       	ori	r18, 0x54	; 84
    6550:	71 71       	andi	r23, 0x11	; 17
    6552:	22 45       	sbci	r18, 0x52	; 82
    6554:	82 11       	cpse	r24, r2
    6556:	54 94       	.word	0x9454	; ????
    6558:	29 67       	ori	r18, 0x79	; 121
    655a:	15 76       	andi	r17, 0x65	; 101
    655c:	12 29       	or	r17, r2
    655e:	67 22       	and	r6, r23
    6560:	76 15       	cp	r23, r6
    6562:	82 02       	muls	r24, r18
    6564:	53 24       	eor	r5, r3
    6566:	55 01       	movw	r10, r10
    6568:	00 00       	nop
    656a:	85 82       	std	Z+5, r8	; 0x05
    656c:	08 01       	movw	r0, r16
    656e:	54 82       	std	Z+4, r5	; 0x04
    6570:	09 82       	std	Y+1, r0	; 0x01
    6572:	12 92       	st	-Z, r1
    6574:	76 13       	cpse	r23, r22
    6576:	29 67       	ori	r18, 0x79	; 121
    6578:	23 82       	std	Z+3, r2	; 0x03
    657a:	03 92       	.word	0x9203	; ????
    657c:	76 23       	and	r23, r22
    657e:	53 82       	std	Z+3, r5	; 0x03
    6580:	14 55       	subi	r17, 0x54	; 84
    6582:	82 19       	sub	r24, r2
    6584:	45 82       	std	Z+5, r4	; 0x05
    6586:	11 54       	subi	r17, 0x41	; 65
    6588:	82 03       	fmuls	r16, r18
    658a:	92 76       	andi	r25, 0x62	; 98
    658c:	14 29       	or	r17, r4
    658e:	67 24       	eor	r6, r7
    6590:	82 04       	cpc	r8, r2
    6592:	92 76       	andi	r25, 0x62	; 98
    6594:	24 53       	subi	r18, 0x34	; 52
    6596:	82 13       	cpse	r24, r18
    6598:	65 82       	std	Z+5, r6	; 0x05
    659a:	19 45       	sbci	r17, 0x59	; 89
    659c:	82 11       	cpse	r24, r2
    659e:	54 82       	std	Z+4, r5	; 0x04
    65a0:	04 92       	.word	0x9204	; ????
    65a2:	76 16       	cp	r7, r22
    65a4:	53 53       	subi	r21, 0x33	; 51
    65a6:	82 19       	sub	r24, r2
    65a8:	45 82       	std	Z+5, r4	; 0x05
    65aa:	11 75       	andi	r17, 0x51	; 81
    65ac:	82 0c       	add	r8, r2
    65ae:	01 54       	subi	r16, 0x41	; 65
    65b0:	55 82       	std	Z+5, r5	; 0x05
    65b2:	18 54       	subi	r17, 0x48	; 72
    65b4:	92 76       	andi	r25, 0x62	; 98
    65b6:	17 53       	subi	r17, 0x37	; 55
    65b8:	16 65       	ori	r17, 0x56	; 86
    65ba:	82 19       	sub	r24, r2
    65bc:	54 92       	.word	0x9254	; ????
    65be:	76 18       	sub	r7, r6
    65c0:	53 16       	cp	r5, r19
    65c2:	55 82       	std	Z+5, r5	; 0x05
    65c4:	1c 54       	subi	r17, 0x4C	; 76
    65c6:	92 76       	andi	r25, 0x62	; 98
    65c8:	19 18       	sub	r1, r9
    65ca:	53 24       	eor	r5, r3
    65cc:	65 82       	std	Z+5, r6	; 0x05
    65ce:	19 54       	subi	r17, 0x49	; 73
    65d0:	92 76       	andi	r25, 0x62	; 98
    65d2:	10 29       	or	r17, r0
    65d4:	58 02       	muls	r21, r24
    65d6:	92 76       	andi	r25, 0x62	; 98
    65d8:	71 53       	subi	r23, 0x31	; 49
    65da:	82 14       	cp	r8, r2
    65dc:	55 82       	std	Z+5, r5	; 0x05
    65de:	13 54       	subi	r17, 0x43	; 67
    65e0:	92 76       	andi	r25, 0x62	; 98
    65e2:	f0 01       	movw	r30, r0
    65e4:	82 09       	sbc	r24, r2
    65e6:	07 94       	ror	r0
    65e8:	22 28       	or	r2, r2
    65ea:	32 53       	subi	r19, 0x32	; 50
    65ec:	82 14       	cp	r8, r2
    65ee:	55 82       	std	Z+5, r5	; 0x05
    65f0:	13 54       	subi	r17, 0x43	; 67
    65f2:	82 0a       	sbc	r8, r18
    65f4:	87 03       	fmuls	r16, r23
    65f6:	f4 87       	std	Z+12, r31	; 0x0c
    65f8:	04 f4       	brge	.+0      	; 0x65fa <Module+0x10c8>
    65fa:	53 24       	eor	r5, r3
    65fc:	55 82       	std	Z+5, r5	; 0x05
    65fe:	11 33       	cpi	r17, 0x31	; 49
    6600:	75 82       	std	Z+5, r7	; 0x05
    6602:	1a 35       	cpi	r17, 0x5A	; 90
    6604:	54 82       	std	Z+4, r5	; 0x04
    6606:	08 82       	st	Y, r0
    6608:	39 76       	andi	r19, 0x69	; 105
    660a:	f1 36       	cpi	r31, 0x61	; 97
    660c:	18 16       	cp	r1, r24
    660e:	82 0e       	add	r8, r18
    6610:	87 01       	movw	r16, r14
    6612:	f2 53       	subi	r31, 0x32	; 50
    6614:	24 65       	ori	r18, 0x54	; 84
    6616:	82 19       	sub	r24, r2
    6618:	54 76       	andi	r21, 0x64	; 100
    661a:	f2 53       	subi	r31, 0x32	; 50
    661c:	24 75       	andi	r18, 0x54	; 84
    661e:	82 1a       	sub	r8, r18
    6620:	54 82       	std	Z+4, r5	; 0x04
    6622:	0d 53       	subi	r16, 0x3D	; 61
    6624:	82 1e       	adc	r8, r18
    6626:	55 82       	std	Z+5, r5	; 0x05
    6628:	18 75       	andi	r17, 0x58	; 88
    662a:	82 11       	cpse	r24, r2
    662c:	65 82       	std	Z+5, r6	; 0x05
    662e:	1c 55       	subi	r17, 0x5C	; 92
    6630:	82 19       	sub	r24, r2
    6632:	55 82       	std	Z+5, r5	; 0x05
    6634:	18 54       	subi	r17, 0x48	; 72
    6636:	87 01       	movw	r16, r14
    6638:	f3 53       	subi	r31, 0x33	; 51
    663a:	24 65       	ori	r18, 0x54	; 84
    663c:	82 19       	sub	r24, r2
    663e:	75 82       	std	Z+5, r7	; 0x05
    6640:	1e 54       	subi	r17, 0x4E	; 78
    6642:	76 f3       	brts	.-36     	; 0x6620 <Module+0x10ee>
    6644:	82 6d       	ori	r24, 0xD2	; 210
    6646:	82 1d       	adc	r24, r2
    6648:	82 38       	cpi	r24, 0x82	; 130
    664a:	82 39       	cpi	r24, 0x92	; 146
    664c:	50 77       	andi	r21, 0x70	; 112
    664e:	f1 61       	ori	r31, 0x11	; 17
    6650:	f9 76       	andi	r31, 0x69	; 105
    6652:	f4 53       	subi	r31, 0x34	; 52
    6654:	82 15       	cp	r24, r2
    6656:	55 82       	std	Z+5, r5	; 0x05
    6658:	13 85       	ldd	r17, Z+11	; 0x0b
    665a:	82 0e       	add	r8, r18
    665c:	82 11       	cpse	r24, r2
    665e:	82 4e       	sbci	r24, 0xE2	; 226
    6660:	75 82       	std	Z+5, r7	; 0x05
    6662:	1a 54       	subi	r17, 0x4A	; 74
    6664:	82 08       	sbc	r8, r2
    6666:	53 82       	std	Z+3, r5	; 0x03
    6668:	11 85       	ldd	r17, Z+9	; 0x09
    666a:	33 55       	subi	r19, 0x53	; 83
    666c:	02 85       	ldd	r16, Z+10	; 0x0a
    666e:	82 1e       	adc	r8, r18
    6670:	55 82       	std	Z+5, r5	; 0x05
    6672:	11 54       	subi	r17, 0x41	; 65
    6674:	87 03       	fmuls	r16, r23
    6676:	f5 53       	subi	r31, 0x35	; 53
    6678:	82 1b       	sub	r24, r18
    667a:	85 33       	cpi	r24, 0x35	; 53
    667c:	55 02       	muls	r21, r21
    667e:	85 82       	std	Z+5, r8	; 0x05
    6680:	1e 54       	subi	r17, 0x4E	; 78
    6682:	76 f5       	brtc	.+92     	; 0x66e0 <Module+0x11ae>
    6684:	82 68       	ori	r24, 0x82	; 130
    6686:	82 18       	sub	r8, r2
    6688:	82 39       	cpi	r24, 0x92	; 146
    668a:	76 f6       	brtc	.-100    	; 0x6628 <Module+0x10f6>
    668c:	36 18       	sub	r3, r6
    668e:	18 82       	st	Y, r1
    6690:	06 87       	std	Z+14, r16	; 0x0e
    6692:	03 f7       	brvc	.-64     	; 0x6654 <Module+0x1122>
    6694:	53 24       	eor	r5, r3
    6696:	65 82       	std	Z+5, r6	; 0x05
    6698:	19 54       	subi	r17, 0x49	; 73
    669a:	76 f7       	brtc	.-36     	; 0x6678 <Module+0x1146>
    669c:	53 24       	eor	r5, r3
    669e:	85 82       	std	Z+5, r8	; 0x05
    66a0:	1e 55       	subi	r17, 0x5E	; 94
    66a2:	82 11       	cpse	r24, r2
    66a4:	55 82       	std	Z+5, r5	; 0x05
    66a6:	1c 75       	andi	r17, 0x5C	; 92
    66a8:	82 1a       	sub	r8, r18
    66aa:	54 82       	std	Z+4, r5	; 0x04
    66ac:	0d 53       	subi	r16, 0x3D	; 61
    66ae:	82 16       	cp	r8, r18
    66b0:	55 82       	std	Z+5, r5	; 0x05
    66b2:	18 75       	andi	r17, 0x58	; 88
    66b4:	82 11       	cpse	r24, r2
    66b6:	55 82       	std	Z+5, r5	; 0x05
    66b8:	1c 55       	subi	r17, 0x5C	; 92
    66ba:	82 19       	sub	r24, r2
    66bc:	55 82       	std	Z+5, r5	; 0x05
    66be:	18 54       	subi	r17, 0x48	; 72
    66c0:	87 03       	fmuls	r16, r23
    66c2:	f8 53       	subi	r31, 0x38	; 56
    66c4:	24 65       	ori	r18, 0x54	; 84
    66c6:	82 19       	sub	r24, r2
    66c8:	85 82       	std	Z+5, r8	; 0x05
    66ca:	16 54       	subi	r17, 0x46	; 70
    66cc:	76 f8       	bld	r7, 6
    66ce:	53 24       	eor	r5, r3
    66d0:	85 82       	std	Z+5, r8	; 0x05
    66d2:	1e 55       	subi	r17, 0x5E	; 94
    66d4:	82 1c       	adc	r8, r2
    66d6:	55 82       	std	Z+5, r5	; 0x05
    66d8:	19 54       	subi	r17, 0x49	; 73
    66da:	82 6d       	ori	r24, 0xD2	; 210
    66dc:	82 1d       	adc	r24, r2
    66de:	82 38       	cpi	r24, 0x82	; 130
    66e0:	82 39       	cpi	r24, 0x92	; 146
    66e2:	50 77       	andi	r21, 0x70	; 112
    66e4:	f6 76       	andi	r31, 0x66	; 102
    66e6:	f9 53       	subi	r31, 0x39	; 57
    66e8:	82 18       	sub	r8, r2
    66ea:	65 01       	movw	r12, r10
    66ec:	00 00       	nop
    66ee:	54 29       	or	r21, r4
    66f0:	67 fa       	bst	r6, 7
    66f2:	76 12       	cpse	r7, r22
    66f4:	29 67       	ori	r18, 0x79	; 121
    66f6:	f0 76       	andi	r31, 0x60	; 96
    66f8:	fa 58       	subi	r31, 0x8A	; 138
    66fa:	04 36       	cpi	r16, 0x64	; 100
    66fc:	18 15       	cp	r17, r8
    66fe:	92 76       	andi	r25, 0x62	; 98
    6700:	fb 82       	std	Y+3, r15	; 0x03
    6702:	13 82       	std	Z+3, r1	; 0x03
    6704:	0b 82       	std	Y+3, r0	; 0x03
    6706:	0a 82       	std	Y+2, r0	; 0x02
    6708:	19 87       	std	Y+9, r17	; 0x09
    670a:	02 fc       	sbrc	r0, 2
    670c:	87 04       	cpc	r8, r7
    670e:	fc 01       	movw	r30, r24
    6710:	76 fc       	sbrc	r7, 6
    6712:	82 4b       	sbci	r24, 0xB2	; 178
    6714:	82 4a       	sbci	r24, 0xA2	; 162
    6716:	53 82       	std	Z+3, r5	; 0x03
    6718:	14 65       	ori	r17, 0x54	; 84
    671a:	82 18       	sub	r8, r2
    671c:	54 87       	std	Z+12, r21	; 0x0c
    671e:	01 fd       	sbrc	r16, 1
    6720:	87 02       	muls	r24, r23
    6722:	fd 94 82 3a 	jmp	0x3e7504	; 0x3e7504 <_etext+0x3df902>
    6726:	53 82       	std	Z+3, r5	; 0x03
    6728:	15 65       	ori	r17, 0x55	; 85
    672a:	82 18       	sub	r8, r2
    672c:	54 94       	.word	0x9454	; ????
    672e:	82 3b       	cpi	r24, 0xB2	; 178
    6730:	61 fe       	sbrs	r6, 1
    6732:	76 fd       	sbrc	r23, 6
    6734:	82 3b       	cpi	r24, 0xB2	; 178
    6736:	76 fe       	sbrs	r7, 6
    6738:	82 1b       	sub	r24, r18
    673a:	23 82       	std	Z+3, r2	; 0x03
    673c:	0b 82       	std	Y+3, r0	; 0x03
    673e:	1a 23       	and	r17, r26
    6740:	94 82       	std	Z+4, r9	; 0x04
    6742:	3b 82       	std	Y+3, r3	; 0x03
    6744:	19 23       	and	r17, r25
    6746:	35 82       	std	Z+5, r3	; 0x05
    6748:	4b 82       	std	Y+3, r4	; 0x03
    674a:	1b 29       	or	r17, r11
    674c:	67 e0       	ldi	r22, 0x07	; 7
    674e:	76 11       	cpse	r23, r6
    6750:	29 67       	ori	r18, 0x79	; 121
    6752:	fb 76       	andi	r31, 0x6B	; 107
    6754:	e0 82       	st	Z, r14
    6756:	01 94       	neg	r0
    6758:	82 0b       	sbc	r24, r18
    675a:	94 22       	and	r9, r20
    675c:	58 92       	.word	0x9258	; ????
    675e:	76 e1       	ldi	r23, 0x16	; 22
    6760:	87 01       	movw	r16, r14
    6762:	e4 87       	std	Z+12, r30	; 0x0c
    6764:	02 e3       	ldi	r16, 0x32	; 50
    6766:	87 03       	fmuls	r16, r23
    6768:	e2 36       	cpi	r30, 0x62	; 98
    676a:	18 19       	sub	r17, r8
    676c:	61 e5       	ldi	r22, 0x51	; 81
    676e:	76 e2       	ldi	r23, 0x26	; 38
    6770:	36 18       	sub	r3, r6
    6772:	18 61       	ori	r17, 0x18	; 24
    6774:	e5 76       	andi	r30, 0x65	; 101
    6776:	e3 36       	cpi	r30, 0x63	; 99
    6778:	18 17       	cp	r17, r24
    677a:	61 e5       	ldi	r22, 0x51	; 81
    677c:	76 e4       	ldi	r23, 0x46	; 70
    677e:	36 18       	sub	r3, r6
    6780:	16 76       	andi	r17, 0x66	; 102
    6782:	e5 53       	subi	r30, 0x35	; 53
    6784:	24 55       	subi	r18, 0x54	; 84
    6786:	53 82       	std	Z+3, r5	; 0x03
    6788:	14 75       	andi	r17, 0x54	; 84
    678a:	82 15       	cp	r24, r2
    678c:	55 82       	std	Z+5, r5	; 0x05
    678e:	1c 54       	subi	r17, 0x4C	; 76
    6790:	54 35       	cpi	r21, 0x54	; 84
    6792:	29 67       	ori	r18, 0x79	; 121
    6794:	e6 76       	andi	r30, 0x66	; 102
    6796:	13 29       	or	r17, r3
    6798:	67 e1       	ldi	r22, 0x17	; 23
    679a:	76 e6       	ldi	r23, 0x66	; 102
    679c:	82 03       	fmuls	r16, r18
    679e:	58 02       	muls	r21, r24
    67a0:	92 76       	andi	r25, 0x62	; 98
    67a2:	e7 87       	std	Z+15, r30	; 0x0f
    67a4:	01 ea       	ldi	r16, 0xA1	; 161
    67a6:	87 02       	muls	r24, r23
    67a8:	e9 87       	std	Y+9, r30	; 0x09
    67aa:	03 e8       	ldi	r16, 0x83	; 131
    67ac:	36 18       	sub	r3, r6
    67ae:	19 61       	ori	r17, 0x19	; 25
    67b0:	eb 76       	andi	r30, 0x6B	; 107
    67b2:	e8 36       	cpi	r30, 0x68	; 104
    67b4:	18 18       	sub	r1, r8
    67b6:	61 eb       	ldi	r22, 0xB1	; 177
    67b8:	76 e9       	ldi	r23, 0x96	; 150
    67ba:	36 18       	sub	r3, r6
    67bc:	17 61       	ori	r17, 0x17	; 23
    67be:	eb 76       	andi	r30, 0x6B	; 107
    67c0:	ea 36       	cpi	r30, 0x6A	; 106
    67c2:	18 16       	cp	r1, r24
    67c4:	76 eb       	ldi	r23, 0xB6	; 182
    67c6:	53 24       	eor	r5, r3
    67c8:	65 82       	std	Z+5, r6	; 0x05
    67ca:	13 85       	ldd	r17, Z+11	; 0x0b
    67cc:	82 15       	cp	r24, r2
    67ce:	55 82       	std	Z+5, r5	; 0x05
    67d0:	1c 54       	subi	r17, 0x4C	; 76
    67d2:	29 67       	ori	r18, 0x79	; 121
    67d4:	ec 76       	andi	r30, 0x6C	; 108
    67d6:	14 29       	or	r17, r4
    67d8:	67 e7       	ldi	r22, 0x77	; 119
    67da:	76 ec       	ldi	r23, 0xC6	; 198
    67dc:	82 04       	cpc	r8, r2
    67de:	58 02       	muls	r21, r24
    67e0:	92 76       	andi	r25, 0x62	; 98
    67e2:	ed 36       	cpi	r30, 0x6D	; 109
    67e4:	18 19       	sub	r17, r8
    67e6:	87 04       	cpc	r8, r7
    67e8:	ee 36       	cpi	r30, 0x6E	; 110
    67ea:	18 18       	sub	r1, r8
    67ec:	76 ee       	ldi	r23, 0xE6	; 230
    67ee:	53 53       	subi	r21, 0x33	; 51
    67f0:	24 65       	ori	r18, 0x54	; 84
    67f2:	82 13       	cpse	r24, r18
    67f4:	75 82       	std	Z+5, r7	; 0x05
    67f6:	14 54       	subi	r17, 0x44	; 68
    67f8:	94 65       	ori	r25, 0x54	; 84
    67fa:	82 1c       	adc	r8, r2
    67fc:	54 29       	or	r21, r4
    67fe:	67 ef       	ldi	r22, 0xF7	; 247
    6800:	76 15       	cp	r23, r6
    6802:	29 67       	ori	r18, 0x79	; 121
    6804:	ed 76       	andi	r30, 0x6D	; 109
    6806:	ef 82       	std	Y+7, r14	; 0x07
    6808:	05 58       	subi	r16, 0x85	; 133
    680a:	02 92       	st	-Z, r0
    680c:	76 16       	cp	r7, r22
    680e:	86 01       	movw	r16, r12
    6810:	92 76       	andi	r25, 0x62	; 98
    6812:	17 86       	std	Z+15, r1	; 0x0f
    6814:	02 92       	st	-Z, r0
    6816:	76 18       	sub	r7, r6
    6818:	86 03       	fmuls	r16, r22
    681a:	92 76       	andi	r25, 0x62	; 98
    681c:	19 86       	std	Y+9, r1	; 0x09
    681e:	04 92       	.word	0x9204	; ????
    6820:	76 10       	cpse	r7, r6
    6822:	22 86       	std	Z+10, r2	; 0x0a
    6824:	01 22       	and	r0, r17
    6826:	86 02       	muls	r24, r22
    6828:	22 86       	std	Z+10, r2	; 0x0a
    682a:	03 22       	and	r0, r19
    682c:	86 04       	cpc	r8, r6
    682e:	00 82       	st	Z, r0
    6830:	05 22       	and	r0, r21
    6832:	58 29       	or	r21, r8
    6834:	92 76       	andi	r25, 0x62	; 98
    6836:	78 53       	subi	r23, 0x38	; 56
    6838:	93 04       	cpc	r9, r3
    683a:	65 82       	std	Z+5, r6	; 0x05
    683c:	11 85       	ldd	r17, Z+9	; 0x09
    683e:	02 93       	st	-Z, r16
    6840:	03 54       	subi	r16, 0x43	; 67
    6842:	59 94       	.word	0x9459	; ????
    6844:	85 61       	ori	r24, 0x15	; 21
    6846:	77 76       	andi	r23, 0x67	; 103
    6848:	79 00       	.word	0x0079	; ????
    684a:	35 92       	.word	0x9235	; ????
    684c:	76 15       	cp	r23, r6
    684e:	10 53       	subi	r17, 0x30	; 48
    6850:	24 85       	ldd	r18, Z+12	; 0x0c
    6852:	01 07       	cpc	r16, r17
    6854:	02 01       	movw	r0, r4
    6856:	00 05       	cpc	r16, r0
    6858:	09 54       	subi	r16, 0x49	; 73
    685a:	92 76       	andi	r25, 0x62	; 98
    685c:	10 53       	subi	r17, 0x30	; 48
    685e:	82 01       	movw	r16, r4
    6860:	29 22       	and	r2, r25
    6862:	77 79       	andi	r23, 0x97	; 151
    6864:	22 59       	subi	r18, 0x92	; 146
    6866:	82 51       	subi	r24, 0x12	; 18
    6868:	65 04       	cpc	r6, r5
    686a:	22 28       	or	r2, r2
    686c:	54 5d       	subi	r21, 0xD4	; 212
    686e:	82 03       	fmuls	r16, r18
    6870:	32 01       	movw	r6, r4
    6872:	05 08       	sbc	r0, r5
    6874:	02 77       	andi	r16, 0x72	; 114
    6876:	79 03       	fmul	r23, r17
    6878:	02 32       	cpi	r16, 0x22	; 34
    687a:	53 53       	subi	r21, 0x33	; 51
    687c:	82 11       	cpse	r24, r2
    687e:	55 01       	movw	r10, r10
    6880:	00 00       	nop
    6882:	54 82       	std	Z+4, r5	; 0x04
    6884:	01 22       	and	r0, r17
    6886:	59 82       	std	Y+1, r5	; 0x01
    6888:	51 65       	ori	r21, 0x51	; 81
    688a:	01 00       	.word	0x0001	; ????
    688c:	00 54       	subi	r16, 0x40	; 64
    688e:	82 02       	muls	r24, r18
    6890:	77 79       	andi	r23, 0x97	; 151
    6892:	01 03       	mulsu	r16, r17
    6894:	32 82       	std	Z+2, r3	; 0x02
    6896:	11 77       	andi	r17, 0x71	; 113
    6898:	79 53       	subi	r23, 0x39	; 57
    689a:	03 06       	cpc	r0, r19
    689c:	05 65       	ori	r16, 0x55	; 85
    689e:	82 13       	cpse	r24, r18
    68a0:	85 82       	std	Z+5, r8	; 0x05
    68a2:	12 85       	ldd	r17, Z+10	; 0x0a
    68a4:	03 01       	movw	r0, r6
    68a6:	65 82       	std	Z+5, r6	; 0x05
    68a8:	11 75       	andi	r17, 0x51	; 81
    68aa:	03 01       	movw	r0, r6
    68ac:	85 03       	fmuls	r16, r21
    68ae:	32 82       	std	Z+2, r3	; 0x02
    68b0:	11 77       	andi	r17, 0x71	; 113
    68b2:	78 01       	movw	r14, r16
    68b4:	82 53       	subi	r24, 0x32	; 50
    68b6:	76 77       	andi	r23, 0x76	; 118
    68b8:	53 82       	std	Z+3, r5	; 0x03
    68ba:	13 55       	subi	r17, 0x53	; 83
    68bc:	04 54       	subi	r16, 0x44	; 68
    68be:	59 75       	andi	r21, 0x59	; 89
    68c0:	53 93       	.word	0x9353	; ????
    68c2:	07 05       	cpc	r16, r7
    68c4:	85 53       	subi	r24, 0x35	; 53
    68c6:	82 13       	cpse	r24, r18
    68c8:	55 01       	movw	r10, r10
    68ca:	00 00       	nop
    68cc:	54 59       	subi	r21, 0x94	; 148
    68ce:	65 93       	.word	0x9365	; ????
    68d0:	07 05       	cpc	r16, r7
    68d2:	54 59       	subi	r21, 0x94	; 148
    68d4:	54 5d       	subi	r21, 0xD4	; 212
    68d6:	92 76       	andi	r25, 0x62	; 98
    68d8:	11 10       	cpse	r1, r1
    68da:	82 04       	cpc	r8, r2
    68dc:	00 92 76 12 	sts	0x1276, r0
    68e0:	10 82       	st	Z, r1
    68e2:	05 00       	.word	0x0005	; ????
    68e4:	92 76       	andi	r25, 0x62	; 98
    68e6:	13 53       	subi	r17, 0x33	; 51
    68e8:	82 15       	cp	r24, r2
    68ea:	75 82       	std	Z+5, r7	; 0x05
    68ec:	14 54       	subi	r17, 0x44	; 68
    68ee:	92 76       	andi	r25, 0x62	; 98
    68f0:	14 53       	subi	r17, 0x34	; 52
    68f2:	53 10       	cpse	r5, r3
    68f4:	82 01       	movw	r16, r4
    68f6:	94 55       	subi	r25, 0x54	; 84
    68f8:	07 54       	subi	r16, 0x47	; 71
    68fa:	59 65       	ori	r21, 0x59	; 89
    68fc:	07 85       	ldd	r16, Z+15	; 0x0f
    68fe:	82 11       	cpse	r24, r2
    6900:	54 5d       	subi	r21, 0xD4	; 212
    6902:	92 76       	andi	r25, 0x62	; 98
    6904:	68 06       	cpc	r6, r24
    6906:	04 69       	ori	r16, 0x94	; 148
    6908:	53 69       	ori	r21, 0x93	; 147
    690a:	01 04       	cpc	r0, r1
    690c:	07 69       	ori	r16, 0x97	; 151
    690e:	53 00       	.word	0x0053	; ????
    6910:	00 00       	nop
    6912:	00 69       	ori	r16, 0x90	; 144
    6914:	02 69       	ori	r16, 0x92	; 146
    6916:	1f 69       	ori	r17, 0x9F	; 159
    6918:	1a 92       	st	-Y, r1
    691a:	76 11       	cpse	r23, r6
    691c:	53 2d       	mov	r21, r3
    691e:	65 01       	movw	r12, r10
    6920:	00 02       	muls	r16, r16
    6922:	03 85       	ldd	r16, Z+11	; 0x0b
    6924:	01 54       	subi	r16, 0x41	; 65
    6926:	59 82       	std	Y+1, r5	; 0x01
    6928:	03 71       	andi	r16, 0x13	; 19
    692a:	68 00       	.word	0x0068	; ????
    692c:	82 04       	cpc	r8, r2
    692e:	92 76       	andi	r25, 0x62	; 98
    6930:	12 82       	std	Z+2, r1	; 0x02
    6932:	74 53       	subi	r23, 0x34	; 52
    6934:	24 75       	andi	r18, 0x54	; 84
    6936:	82 13       	cpse	r24, r18
    6938:	54 22       	and	r5, r20
    693a:	50 29       	or	r21, r0
    693c:	22 67       	ori	r18, 0x72	; 114
    693e:	50 35       	cpi	r21, 0x50	; 80
    6940:	00 76       	andi	r16, 0x60	; 96
    6942:	50 82       	st	Z, r5
    6944:	05 53       	subi	r16, 0x35	; 53
    6946:	69 00       	.word	0x0069	; ????
    6948:	85 06       	cpc	r8, r21
    694a:	02 54       	subi	r16, 0x42	; 66
    694c:	69 53       	subi	r22, 0x39	; 57
    694e:	69 01       	movw	r12, r18
    6950:	69 1f       	adc	r22, r25
    6952:	69 1a       	sub	r6, r25
    6954:	82 15       	cp	r24, r2
    6956:	92 76       	andi	r25, 0x62	; 98
    6958:	13 25       	eor	r17, r3
    695a:	82 14       	cp	r8, r2
    695c:	92 76       	andi	r25, 0x62	; 98
    695e:	16 25       	eor	r17, r6
    6960:	09 82       	std	Y+1, r0	; 0x01
    6962:	02 05       	cpc	r16, r2
    6964:	01 02       	muls	r16, r17
    6966:	92 76       	andi	r25, 0x62	; 98
    6968:	18 94       	sez
    696a:	76 17       	cp	r23, r22
    696c:	32 82       	std	Z+2, r3	; 0x02
    696e:	82 53       	subi	r24, 0x32	; 50
    6970:	02 45       	sbci	r16, 0x52	; 82
    6972:	82 12       	cpse	r8, r18
    6974:	85 32       	cpi	r24, 0x25	; 37
    6976:	54 50       	subi	r21, 0x04	; 4
    6978:	92 76       	andi	r25, 0x62	; 98
    697a:	19 53       	subi	r17, 0x39	; 57
    697c:	01 00       	.word	0x0001	; ????
    697e:	75 82       	std	Z+5, r7	; 0x05
    6980:	12 54       	subi	r17, 0x42	; 66
    6982:	92 76       	andi	r25, 0x62	; 98
    6984:	11 10       	cpse	r1, r1
    6986:	92 76       	andi	r25, 0x62	; 98
    6988:	13 94       	inc	r1
    698a:	76 12       	cpse	r7, r22
    698c:	53 24       	eor	r5, r3
    698e:	85 10       	cpse	r8, r5
    6990:	54 15       	cp	r21, r4
    6992:	92 76       	andi	r25, 0x62	; 98
    6994:	14 29       	or	r17, r4
    6996:	36 18       	sub	r3, r6
    6998:	11 82       	std	Z+1, r1	; 0x01
    699a:	16 82       	std	Z+6, r1	; 0x06
    699c:	03 29       	or	r16, r3
    699e:	36 18       	sub	r3, r6
    69a0:	71 24       	eor	r7, r1
    69a2:	82 06       	cpc	r8, r18
    69a4:	92 76       	andi	r25, 0x62	; 98
    69a6:	15 87       	std	Z+13, r17	; 0x0d
    69a8:	00 34       	cpi	r16, 0x40	; 64
    69aa:	82 05       	cpc	r24, r2
    69ac:	92 76       	andi	r25, 0x62	; 98
    69ae:	34 82       	std	Z+4, r3	; 0x04
    69b0:	06 92       	.word	0x9206	; ????
    69b2:	76 16       	cp	r7, r22
    69b4:	22 86       	std	Z+10, r2	; 0x0a
    69b6:	00 58       	subi	r16, 0x80	; 128
    69b8:	02 92       	st	-Z, r0
    69ba:	76 17       	cp	r23, r22
    69bc:	86 00       	.word	0x0086	; ????
    69be:	58 02       	muls	r21, r24
    69c0:	92 76       	andi	r25, 0x62	; 98
    69c2:	18 82       	st	Y, r1
    69c4:	07 92       	.word	0x9207	; ????
    69c6:	76 19       	sub	r23, r6
    69c8:	53 35       	cpi	r21, 0x53	; 83
    69ca:	65 82       	std	Z+5, r6	; 0x05
    69cc:	17 54       	subi	r17, 0x47	; 71
    69ce:	29 36       	cpi	r18, 0x69	; 105
    69d0:	18 12       	cpse	r1, r24
    69d2:	92 76       	andi	r25, 0x62	; 98
    69d4:	10 87       	std	Z+8, r17	; 0x08
    69d6:	00 45       	sbci	r16, 0x50	; 80
    69d8:	82 15       	cp	r24, r2
    69da:	92 76       	andi	r25, 0x62	; 98
    69dc:	45 82       	std	Z+5, r4	; 0x05
    69de:	16 92       	.word	0x9216	; ????
    69e0:	76 12       	cpse	r7, r22
    69e2:	53 88       	ldd	r5, Z+19	; 0x13
    69e4:	85 76       	andi	r24, 0x65	; 101
    69e6:	15 82       	std	Z+5, r1	; 0x05
    69e8:	11 54       	subi	r17, 0x41	; 65
    69ea:	53 24       	eor	r5, r3
    69ec:	85 53       	subi	r24, 0x35	; 53
    69ee:	24 55       	subi	r18, 0x54	; 84
    69f0:	50 54       	subi	r21, 0x40	; 64
    69f2:	24 65       	ori	r18, 0x54	; 84
    69f4:	05 94       	asr	r0
    69f6:	22 28       	or	r2, r2
    69f8:	54 22       	and	r5, r20
    69fa:	88 58       	subi	r24, 0x88	; 136
    69fc:	04 92       	.word	0x9204	; ????
    69fe:	76 13       	cpse	r23, r22
    6a00:	53 24       	eor	r5, r3
    6a02:	65 61       	ori	r22, 0x15	; 21
    6a04:	15 76       	andi	r17, 0x65	; 101
    6a06:	14 53       	subi	r17, 0x34	; 52
    6a08:	35 65       	ori	r19, 0x55	; 85
    6a0a:	61 15       	cp	r22, r1
    6a0c:	76 11       	cpse	r23, r6
    6a0e:	22 58       	subi	r18, 0x82	; 130
    6a10:	88 82       	st	Y, r8
    6a12:	01 92       	st	Z+, r0
    6a14:	76 11       	cpse	r23, r6
    6a16:	53 24       	eor	r5, r3
    6a18:	65 02       	muls	r22, r21
    6a1a:	93 05       	cpc	r25, r3
    6a1c:	04 54       	subi	r16, 0x44	; 68
    6a1e:	92 76       	andi	r25, 0x62	; 98
    6a20:	12 53       	subi	r17, 0x32	; 50
    6a22:	24 65       	ori	r18, 0x54	; 84
    6a24:	93 03       	fmuls	r17, r19
    6a26:	00 04       	cpc	r0, r0
    6a28:	08 54       	subi	r16, 0x48	; 72
    6a2a:	92 76       	andi	r25, 0x62	; 98
    6a2c:	13 53       	subi	r17, 0x33	; 51
    6a2e:	24 65       	ori	r18, 0x54	; 84
    6a30:	93 09       	sbc	r25, r3
    6a32:	01 04       	cpc	r0, r1
    6a34:	04 54       	subi	r16, 0x44	; 68
    6a36:	92 76       	andi	r25, 0x62	; 98
    6a38:	14 53       	subi	r17, 0x34	; 52
    6a3a:	24 65       	ori	r18, 0x54	; 84
    6a3c:	01 93       	st	Z+, r16
    6a3e:	06 00       	.word	0x0006	; ????
    6a40:	09 03       	fmul	r16, r17
    6a42:	04 04       	cpc	r0, r4
    6a44:	54 92       	.word	0x9254	; ????
    6a46:	76 15       	cp	r23, r6
    6a48:	53 24       	eor	r5, r3
    6a4a:	65 93       	.word	0x9365	; ????
    6a4c:	08 06       	cpc	r0, r24
    6a4e:	08 09       	sbc	r16, r8
    6a50:	07 06       	cpc	r0, r23
    6a52:	02 04       	cpc	r0, r2
    6a54:	54 92       	.word	0x9254	; ????
    6a56:	76 16       	cp	r7, r22
    6a58:	35 11       	cpse	r19, r5
    6a5a:	35 92       	.word	0x9235	; ????
    6a5c:	76 17       	cp	r23, r22
    6a5e:	35 12       	cpse	r3, r21
    6a60:	35 92       	.word	0x9235	; ????
    6a62:	76 18       	sub	r7, r6
    6a64:	35 13       	cpse	r19, r21
    6a66:	35 92       	.word	0x9235	; ????
    6a68:	76 19       	sub	r23, r6
    6a6a:	35 14       	cp	r3, r5
    6a6c:	35 92       	.word	0x9235	; ????
    6a6e:	76 10       	cpse	r7, r6
    6a70:	35 15       	cp	r19, r5
    6a72:	35 92       	.word	0x9235	; ????
    6a74:	76 11       	cpse	r23, r6
    6a76:	53 53       	subi	r21, 0x33	; 51
    6a78:	24 75       	andi	r18, 0x54	; 84
    6a7a:	03 02       	muls	r16, r19
    6a7c:	54 65       	ori	r21, 0x54	; 84
    6a7e:	05 55       	subi	r16, 0x55	; 85
    6a80:	09 54       	subi	r16, 0x49	; 73
    6a82:	92 76       	andi	r25, 0x62	; 98
    6a84:	12 53       	subi	r17, 0x32	; 50
    6a86:	24 65       	ori	r18, 0x54	; 84
    6a88:	93 00       	.word	0x0093	; ????
    6a8a:	02 09       	sbc	r16, r2
    6a8c:	05 07       	cpc	r16, r21
    6a8e:	03 05       	cpc	r16, r3
    6a90:	02 09       	sbc	r16, r2
    6a92:	06 54       	subi	r16, 0x46	; 70
    6a94:	92 76       	andi	r25, 0x62	; 98
    6a96:	13 53       	subi	r17, 0x33	; 51
    6a98:	24 65       	ori	r18, 0x54	; 84
    6a9a:	03 93       	.word	0x9303	; ????
    6a9c:	07 08       	sbc	r0, r7
    6a9e:	05 04       	cpc	r0, r5
    6aa0:	01 01       	movw	r0, r2
    6aa2:	07 08       	sbc	r0, r7
    6aa4:	04 54       	subi	r16, 0x44	; 68
    6aa6:	92 76       	andi	r25, 0x62	; 98
    6aa8:	14 53       	subi	r17, 0x34	; 52
    6aaa:	24 65       	ori	r18, 0x54	; 84
    6aac:	02 08       	sbc	r0, r2
    6aae:	93 03       	fmuls	r17, r19
    6ab0:	04 09       	sbc	r16, r4
    6ab2:	05 02       	muls	r16, r21
    6ab4:	03 01       	movw	r0, r6
    6ab6:	03 54       	subi	r16, 0x43	; 67
    6ab8:	92 76       	andi	r25, 0x62	; 98
    6aba:	15 53       	subi	r17, 0x35	; 53
    6abc:	24 65       	ori	r18, 0x54	; 84
    6abe:	93 04       	cpc	r9, r3
    6ac0:	05 03       	mulsu	r16, r21
    6ac2:	05 09       	sbc	r16, r5
    6ac4:	02 03       	mulsu	r16, r18
    6ac6:	07 54       	subi	r16, 0x47	; 71
    6ac8:	92 76       	andi	r25, 0x62	; 98
    6aca:	16 53       	subi	r17, 0x36	; 54
    6acc:	24 65       	ori	r18, 0x54	; 84
    6ace:	01 93       	st	Z+, r16
    6ad0:	08 85       	ldd	r16, Y+8	; 0x08
    6ad2:	03 02       	muls	r16, r19
    6ad4:	54 92       	.word	0x9254	; ????
    6ad6:	76 17       	cp	r23, r22
    6ad8:	35 12       	cpse	r3, r21
    6ada:	35 92       	.word	0x9235	; ????
    6adc:	76 18       	sub	r7, r6
    6ade:	35 13       	cpse	r19, r21
    6ae0:	35 92       	.word	0x9235	; ????
    6ae2:	76 19       	sub	r23, r6
    6ae4:	35 14       	cp	r3, r5
    6ae6:	35 92       	.word	0x9235	; ????
    6ae8:	76 10       	cpse	r7, r6
    6aea:	35 15       	cp	r19, r5
    6aec:	35 92       	.word	0x9235	; ????
    6aee:	76 35       	cpi	r23, 0x56	; 86
    6af0:	69 58       	subi	r22, 0x89	; 137
    6af2:	69 59       	subi	r22, 0x99	; 153
    6af4:	32 76       	andi	r19, 0x62	; 98
    6af6:	11 69       	ori	r17, 0x91	; 145
    6af8:	57 92       	.word	0x9257	; ????
    6afa:	76 16       	cp	r7, r22
    6afc:	36 04       	cpc	r3, r6
    6afe:	16 92       	.word	0x9216	; ????
    6b00:	76 12       	cpse	r7, r22
    6b02:	69 7a       	andi	r22, 0xA9	; 169
    6b04:	69 1e       	adc	r6, r25
    6b06:	92 76       	andi	r25, 0x62	; 98
    6b08:	17 69       	ori	r17, 0x97	; 151
    6b0a:	7b 69       	ori	r23, 0x9B	; 155
    6b0c:	1d 92       	st	X+, r1
    6b0e:	76 13       	cpse	r23, r22
    6b10:	69 7c       	andi	r22, 0xC9	; 201
    6b12:	76 95       	lsr	r23
    6b14:	69 58       	subi	r22, 0x89	; 137
    6b16:	92 76       	andi	r25, 0x62	; 98
    6b18:	18 69       	ori	r17, 0x98	; 152
    6b1a:	7d 61       	ori	r23, 0x1D	; 29
    6b1c:	95 76       	andi	r25, 0x65	; 101
    6b1e:	14 69       	ori	r17, 0x94	; 148
    6b20:	7e 61       	ori	r23, 0x1E	; 30
    6b22:	95 76       	andi	r25, 0x65	; 101
    6b24:	19 69       	ori	r17, 0x99	; 153
    6b26:	7f 61       	ori	r23, 0x1F	; 31
    6b28:	95 76       	andi	r25, 0x65	; 101
    6b2a:	15 69       	ori	r17, 0x95	; 149
    6b2c:	5a 61       	ori	r21, 0x1A	; 26
    6b2e:	95 76       	andi	r25, 0x65	; 101
    6b30:	94 69       	ori	r25, 0x94	; 148
    6b32:	58 69       	ori	r21, 0x98	; 152
    6b34:	59 32       	cpi	r21, 0x29	; 41
    6b36:	94 32       	cpi	r25, 0x24	; 36
    6b38:	61 11       	cpse	r22, r1
    6b3a:	76 10       	cpse	r7, r6
    6b3c:	69 59       	subi	r22, 0x99	; 153
    6b3e:	92 76       	andi	r25, 0x62	; 98
    6b40:	16 53       	subi	r17, 0x36	; 54
    6b42:	01 00       	.word	0x0001	; ????
    6b44:	00 00       	nop
    6b46:	55 02       	muls	r21, r21
    6b48:	23 55       	subi	r18, 0x53	; 83
    6b4a:	53 82       	std	Z+3, r5	; 0x03
    6b4c:	12 85       	ldd	r17, Z+10	; 0x0a
    6b4e:	02 65       	ori	r16, 0x52	; 82
    6b50:	82 13       	cpse	r24, r18
    6b52:	54 55       	subi	r21, 0x54	; 84
    6b54:	82 14       	cp	r8, r2
    6b56:	54 76       	andi	r21, 0x64	; 100
    6b58:	11 82       	std	Z+1, r1	; 0x01
    6b5a:	01 92       	st	Z+, r0
    6b5c:	76 17       	cp	r23, r22
    6b5e:	53 01       	movw	r10, r6
    6b60:	00 00       	nop
    6b62:	00 55       	subi	r16, 0x50	; 80
    6b64:	02 23       	and	r16, r18
    6b66:	55 82       	std	Z+5, r5	; 0x05
    6b68:	14 55       	subi	r17, 0x54	; 84
    6b6a:	82 11       	cpse	r24, r2
    6b6c:	75 02       	muls	r23, r21
    6b6e:	65 82       	std	Z+5, r6	; 0x05
    6b70:	13 54       	subi	r17, 0x43	; 67
    6b72:	76 12       	cpse	r7, r22
    6b74:	82 02       	muls	r24, r18
    6b76:	92 76       	andi	r25, 0x62	; 98
    6b78:	18 53       	subi	r17, 0x38	; 56
    6b7a:	05 00       	.word	0x0005	; ????
    6b7c:	00 55       	subi	r16, 0x50	; 80
    6b7e:	02 23       	and	r16, r18
    6b80:	55 82       	std	Z+5, r5	; 0x05
    6b82:	14 55       	subi	r17, 0x54	; 84
    6b84:	82 11       	cpse	r24, r2
    6b86:	75 82       	std	Z+5, r7	; 0x05
    6b88:	12 55       	subi	r17, 0x52	; 82
    6b8a:	02 54       	subi	r16, 0x42	; 66
    6b8c:	76 13       	cpse	r23, r22
    6b8e:	82 03       	fmuls	r16, r18
    6b90:	92 76       	andi	r25, 0x62	; 98
    6b92:	19 53       	subi	r17, 0x39	; 57
    6b94:	01 00       	.word	0x0001	; ????
    6b96:	00 00       	nop
    6b98:	55 02       	muls	r21, r21
    6b9a:	23 55       	subi	r18, 0x53	; 83
    6b9c:	53 82       	std	Z+3, r5	; 0x03
    6b9e:	12 85       	ldd	r17, Z+10	; 0x0a
    6ba0:	02 65       	ori	r16, 0x52	; 82
    6ba2:	82 13       	cpse	r24, r18
    6ba4:	54 55       	subi	r21, 0x54	; 84
    6ba6:	82 11       	cpse	r24, r2
    6ba8:	54 76       	andi	r21, 0x64	; 100
    6baa:	14 82       	std	Z+4, r1	; 0x04
    6bac:	04 92       	.word	0x9204	; ????
    6bae:	76 15       	cp	r23, r6
    6bb0:	53 02       	muls	r21, r19
    6bb2:	23 65       	ori	r18, 0x53	; 83
    6bb4:	53 82       	std	Z+3, r5	; 0x03
    6bb6:	12 85       	ldd	r17, Z+10	; 0x0a
    6bb8:	82 13       	cpse	r24, r18
    6bba:	54 65       	ori	r21, 0x54	; 84
    6bbc:	82 11       	cpse	r24, r2
    6bbe:	54 92       	.word	0x9254	; ????
    6bc0:	76 10       	cpse	r7, r6
    6bc2:	53 02       	muls	r21, r19
    6bc4:	23 65       	ori	r18, 0x53	; 83
    6bc6:	82 13       	cpse	r24, r18
    6bc8:	65 82       	std	Z+5, r6	; 0x05
    6bca:	11 54       	subi	r17, 0x41	; 65
    6bcc:	92 76       	andi	r25, 0x62	; 98
    6bce:	f9 53       	subi	r31, 0x39	; 57
    6bd0:	82 11       	cpse	r24, r2
    6bd2:	28 65       	ori	r18, 0x58	; 88
    6bd4:	01 00       	.word	0x0001	; ????
    6bd6:	54 82       	std	Z+4, r5	; 0x04
    6bd8:	04 92       	.word	0x9204	; ????
    6bda:	76 f8       	bld	r7, 6
    6bdc:	53 82       	std	Z+3, r5	; 0x03
    6bde:	11 23       	and	r17, r17
    6be0:	55 02       	muls	r21, r21
    6be2:	54 82       	std	Z+4, r5	; 0x04
    6be4:	03 92       	.word	0x9203	; ????
    6be6:	76 f7       	brtc	.-36     	; 0x6bc4 <Module+0x1692>
    6be8:	82 13       	cpse	r24, r18
    6bea:	22 23       	and	r18, r18
    6bec:	82 02       	muls	r24, r18
    6bee:	92 76       	andi	r25, 0x62	; 98
    6bf0:	f6 53       	subi	r31, 0x36	; 54
    6bf2:	82 14       	cp	r8, r2
    6bf4:	55 01       	movw	r10, r10
    6bf6:	00 54       	subi	r16, 0x40	; 64
    6bf8:	22 28       	or	r2, r2
    6bfa:	82 01       	movw	r16, r4
    6bfc:	92 76       	andi	r25, 0x62	; 98
    6bfe:	f5 53       	subi	r31, 0x35	; 53
    6c00:	82 12       	cpse	r8, r18
    6c02:	28 65       	ori	r18, 0x58	; 88
    6c04:	02 00       	.word	0x0002	; ????
    6c06:	54 82       	std	Z+4, r5	; 0x04
    6c08:	04 92       	.word	0x9204	; ????
    6c0a:	76 f4       	brtc	.+28     	; 0x6c28 <Module+0x16f6>
    6c0c:	82 12       	cpse	r8, r18
    6c0e:	23 82       	std	Z+3, r2	; 0x03
    6c10:	03 92       	.word	0x9203	; ????
    6c12:	76 f3       	brts	.-36     	; 0x6bf0 <Module+0x16be>
    6c14:	53 82       	std	Z+3, r5	; 0x03
    6c16:	13 65       	ori	r17, 0x53	; 83
    6c18:	02 54       	subi	r16, 0x42	; 66
    6c1a:	22 23       	and	r18, r18
    6c1c:	82 01       	movw	r16, r4
    6c1e:	92 76       	andi	r25, 0x62	; 98
    6c20:	11 82       	std	Z+1, r1	; 0x01
    6c22:	01 71       	andi	r16, 0x11	; 17
    6c24:	f9 71       	andi	r31, 0x19	; 25
    6c26:	f8 71       	andi	r31, 0x18	; 24
    6c28:	f7 76       	andi	r31, 0x67	; 103
    6c2a:	16 82       	std	Z+6, r1	; 0x06
    6c2c:	11 92       	st	Z+, r1
    6c2e:	76 12       	cpse	r7, r22
    6c30:	82 02       	muls	r24, r18
    6c32:	71 f5       	brne	.+92     	; 0x6c90 <Module+0x175e>
    6c34:	71 f6       	brne	.-100    	; 0x6bd2 <Module+0x16a0>
    6c36:	71 f4       	brne	.+28     	; 0x6c54 <Module+0x1722>
    6c38:	76 17       	cp	r23, r22
    6c3a:	82 12       	cpse	r8, r18
    6c3c:	92 76       	andi	r25, 0x62	; 98
    6c3e:	13 82       	std	Z+3, r1	; 0x03
    6c40:	03 71       	andi	r16, 0x13	; 19
    6c42:	f3 71       	andi	r31, 0x13	; 19
    6c44:	f9 71       	andi	r31, 0x19	; 25
    6c46:	f7 76       	andi	r31, 0x67	; 103
    6c48:	18 82       	st	Y, r1
    6c4a:	13 92       	.word	0x9213	; ????
    6c4c:	76 14       	cp	r7, r6
    6c4e:	82 04       	cpc	r8, r2
    6c50:	71 f6       	brne	.-100    	; 0x6bee <Module+0x16bc>
    6c52:	71 f8       	bld	r7, 1
    6c54:	71 f7       	brne	.-36     	; 0x6c32 <Module+0x1700>
    6c56:	76 19       	sub	r23, r6
    6c58:	82 14       	cp	r8, r2
    6c5a:	92 76       	andi	r25, 0x62	; 98
    6c5c:	16 53       	subi	r17, 0x36	; 54
    6c5e:	02 65       	ori	r16, 0x52	; 82
    6c60:	89 65       	ori	r24, 0x59	; 89
    6c62:	53 82       	std	Z+3, r5	; 0x03
    6c64:	12 65       	ori	r17, 0x52	; 82
    6c66:	82 13       	cpse	r24, r18
    6c68:	54 34       	cpi	r21, 0x44	; 68
    6c6a:	54 35       	cpi	r21, 0x54	; 84
    6c6c:	76 11       	cpse	r23, r6
    6c6e:	82 01       	movw	r16, r4
    6c70:	92 76       	andi	r25, 0x62	; 98
    6c72:	17 53       	subi	r17, 0x37	; 55
    6c74:	53 02       	muls	r21, r19
    6c76:	65 89       	ldd	r22, Z+21	; 0x15
    6c78:	65 82       	std	Z+5, r6	; 0x05
    6c7a:	11 54       	subi	r17, 0x41	; 65
    6c7c:	33 65       	ori	r19, 0x53	; 83
    6c7e:	82 13       	cpse	r24, r18
    6c80:	54 35       	cpi	r21, 0x54	; 84
    6c82:	76 12       	cpse	r7, r22
    6c84:	82 02       	muls	r24, r18
    6c86:	92 76       	andi	r25, 0x62	; 98
    6c88:	18 53       	subi	r17, 0x38	; 56
    6c8a:	53 02       	muls	r21, r19
    6c8c:	65 89       	ldd	r22, Z+21	; 0x15
    6c8e:	65 82       	std	Z+5, r6	; 0x05
    6c90:	11 54       	subi	r17, 0x41	; 65
    6c92:	33 65       	ori	r19, 0x53	; 83
    6c94:	82 12       	cpse	r8, r18
    6c96:	54 35       	cpi	r21, 0x54	; 84
    6c98:	76 13       	cpse	r23, r22
    6c9a:	82 03       	fmuls	r16, r18
    6c9c:	92 76       	andi	r25, 0x62	; 98
    6c9e:	14 53       	subi	r17, 0x34	; 52
    6ca0:	02 65       	ori	r16, 0x52	; 82
    6ca2:	89 65       	ori	r24, 0x59	; 89
    6ca4:	82 11       	cpse	r24, r2
    6ca6:	65 82       	std	Z+5, r6	; 0x05
    6ca8:	12 54       	subi	r17, 0x42	; 66
    6caa:	92 76       	andi	r25, 0x62	; 98
    6cac:	19 53       	subi	r17, 0x39	; 57
    6cae:	24 55       	subi	r18, 0x54	; 84
    6cb0:	53 02       	muls	r21, r19
    6cb2:	65 89       	ldd	r22, Z+21	; 0x15
    6cb4:	65 82       	std	Z+5, r6	; 0x05
    6cb6:	11 54       	subi	r17, 0x41	; 65
    6cb8:	54 61       	ori	r21, 0x14	; 20
    6cba:	12 76       	andi	r17, 0x62	; 98
    6cbc:	15 53       	subi	r17, 0x35	; 53
    6cbe:	02 65       	ori	r16, 0x52	; 82
    6cc0:	89 65       	ori	r24, 0x59	; 89
    6cc2:	82 11       	cpse	r24, r2
    6cc4:	65 82       	std	Z+5, r6	; 0x05
    6cc6:	13 54       	subi	r17, 0x43	; 67
    6cc8:	35 92       	.word	0x9235	; ????
    6cca:	76 10       	cpse	r7, r6
    6ccc:	53 24       	eor	r5, r3
    6cce:	65 02       	muls	r22, r21
    6cd0:	65 89       	ldd	r22, Z+21	; 0x15
    6cd2:	65 82       	std	Z+5, r6	; 0x05
    6cd4:	11 54       	subi	r17, 0x41	; 65
    6cd6:	35 61       	ori	r19, 0x15	; 21
    6cd8:	13 76       	andi	r17, 0x63	; 99
    6cda:	16 53       	subi	r17, 0x36	; 54
    6cdc:	82 13       	cpse	r24, r18
    6cde:	35 85       	ldd	r19, Z+13	; 0x0d
    6ce0:	82 13       	cpse	r24, r18
    6ce2:	55 82       	std	Z+5, r5	; 0x05
    6ce4:	14 33       	cpi	r17, 0x34	; 52
    6ce6:	54 35       	cpi	r21, 0x54	; 84
    6ce8:	76 11       	cpse	r23, r6
    6cea:	82 01       	movw	r16, r4
    6cec:	92 76       	andi	r25, 0x62	; 98
    6cee:	17 16       	cp	r1, r23
    6cf0:	53 24       	eor	r5, r3
    6cf2:	65 82       	std	Z+5, r6	; 0x05
    6cf4:	13 55       	subi	r17, 0x53	; 83
    6cf6:	82 14       	cp	r8, r2
    6cf8:	54 76       	andi	r21, 0x64	; 100
    6cfa:	12 82       	std	Z+2, r1	; 0x02
    6cfc:	02 92       	st	-Z, r0
    6cfe:	76 18       	sub	r7, r6
    6d00:	53 82       	std	Z+3, r5	; 0x03
    6d02:	11 85       	ldd	r17, Z+9	; 0x09
    6d04:	82 12       	cpse	r8, r18
    6d06:	33 55       	subi	r19, 0x53	; 83
    6d08:	82 11       	cpse	r24, r2
    6d0a:	54 76       	andi	r21, 0x64	; 100
    6d0c:	13 82       	std	Z+3, r1	; 0x03
    6d0e:	03 92       	.word	0x9203	; ????
    6d10:	76 19       	sub	r23, r6
    6d12:	18 53       	subi	r17, 0x38	; 56
    6d14:	24 65       	ori	r18, 0x54	; 84
    6d16:	82 11       	cpse	r24, r2
    6d18:	55 82       	std	Z+5, r5	; 0x05
    6d1a:	12 54       	subi	r17, 0x42	; 66
    6d1c:	76 14       	cp	r7, r6
    6d1e:	82 04       	cpc	r8, r2
    6d20:	92 76       	andi	r25, 0x62	; 98
    6d22:	11 82       	std	Z+1, r1	; 0x01
    6d24:	01 92       	st	Z+, r0
    6d26:	76 12       	cpse	r7, r22
    6d28:	53 82       	std	Z+3, r5	; 0x03
    6d2a:	02 55       	subi	r16, 0x52	; 82
    6d2c:	02 00       	.word	0x0002	; ????
    6d2e:	54 22       	and	r5, r20
    6d30:	28 82       	st	Y, r2
    6d32:	92 92       	st	-Z, r9
    6d34:	76 13       	cpse	r23, r22
    6d36:	53 82       	std	Z+3, r5	; 0x03
    6d38:	03 82       	std	Z+3, r0	; 0x03
    6d3a:	08 65       	ori	r16, 0x58	; 88
    6d3c:	02 65       	ori	r16, 0x52	; 82
    6d3e:	89 54       	subi	r24, 0x49	; 73
    6d40:	82 98       	cbi	0x10, 2	; 16
    6d42:	92 76       	andi	r25, 0x62	; 98
    6d44:	14 82       	std	Z+4, r1	; 0x04
    6d46:	07 92       	.word	0x9207	; ????
    6d48:	76 16       	cp	r7, r22
    6d4a:	82 04       	cpc	r8, r2
    6d4c:	92 76       	andi	r25, 0x62	; 98
    6d4e:	17 82       	std	Z+7, r1	; 0x07
    6d50:	05 92       	.word	0x9205	; ????
    6d52:	76 18       	sub	r7, r6
    6d54:	53 82       	std	Z+3, r5	; 0x03
    6d56:	13 55       	subi	r17, 0x53	; 83
    6d58:	82 17       	cp	r24, r18
    6d5a:	54 82       	std	Z+4, r5	; 0x04
    6d5c:	06 32       	cpi	r16, 0x26	; 38
    6d5e:	53 82       	std	Z+3, r5	; 0x03
    6d60:	12 55       	subi	r17, 0x52	; 82
    6d62:	02 54       	subi	r16, 0x42	; 66
    6d64:	34 22       	and	r3, r20
    6d66:	77 33       	cpi	r23, 0x37	; 55
    6d68:	00 35       	cpi	r16, 0x50	; 80
    6d6a:	92 76       	andi	r25, 0x62	; 98
    6d6c:	33 53       	subi	r19, 0x33	; 51
    6d6e:	82 16       	cp	r8, r18
    6d70:	55 82       	std	Z+5, r5	; 0x05
    6d72:	12 55       	subi	r17, 0x52	; 82
    6d74:	82 18       	sub	r8, r2
    6d76:	55 82       	std	Z+5, r5	; 0x05
    6d78:	14 54       	subi	r17, 0x44	; 68
    6d7a:	82 09       	sbc	r24, r2
    6d7c:	92 53       	subi	r25, 0x32	; 50
    6d7e:	53 82       	std	Z+3, r5	; 0x03
    6d80:	14 85       	ldd	r17, Z+12	; 0x0c
    6d82:	82 15       	cp	r24, r2
    6d84:	54 65       	ori	r21, 0x54	; 84
    6d86:	82 16       	cp	r8, r18
    6d88:	65 82       	std	Z+5, r6	; 0x05
    6d8a:	18 75       	andi	r17, 0x58	; 88
    6d8c:	82 19       	sub	r24, r2
    6d8e:	35 54       	subi	r19, 0x45	; 69
    6d90:	35 92       	.word	0x9235	; ????
    6d92:	53 53       	subi	r21, 0x33	; 51
    6d94:	82 14       	cp	r8, r2
    6d96:	35 85       	ldd	r19, Z+13	; 0x0d
    6d98:	82 15       	cp	r24, r2
    6d9a:	35 54       	subi	r19, 0x45	; 69
    6d9c:	65 82       	std	Z+5, r6	; 0x05
    6d9e:	16 55       	subi	r17, 0x56	; 86
    6da0:	82 18       	sub	r8, r2
    6da2:	54 92       	.word	0x9254	; ????
    6da4:	76 19       	sub	r23, r6
    6da6:	53 53       	subi	r21, 0x33	; 51
    6da8:	01 85       	ldd	r16, Z+9	; 0x09
    6daa:	82 12       	cpse	r8, r18
    6dac:	54 65       	ori	r21, 0x54	; 84
    6dae:	82 14       	cp	r8, r2
    6db0:	65 04       	cpc	r6, r5
    6db2:	55 82       	std	Z+5, r5	; 0x05
    6db4:	11 33       	cpi	r17, 0x31	; 49
    6db6:	54 92       	.word	0x9254	; ????
    6db8:	53 82       	std	Z+3, r5	; 0x03
    6dba:	11 55       	subi	r17, 0x51	; 81
    6dbc:	02 55       	subi	r16, 0x52	; 82
    6dbe:	82 18       	sub	r8, r2
    6dc0:	55 82       	std	Z+5, r5	; 0x05
    6dc2:	14 54       	subi	r17, 0x44	; 68
    6dc4:	82 09       	sbc	r24, r2
    6dc6:	53 24       	eor	r5, r3
    6dc8:	55 82       	std	Z+5, r5	; 0x05
    6dca:	12 54       	subi	r17, 0x42	; 66
    6dcc:	92 82       	std	Z+2, r9	; 0x02
    6dce:	19 92       	st	Y+, r1
    6dd0:	53 82       	std	Z+3, r5	; 0x03
    6dd2:	19 55       	subi	r17, 0x59	; 89
    6dd4:	53 82       	std	Z+3, r5	; 0x03
    6dd6:	12 85       	ldd	r17, Z+10	; 0x0a
    6dd8:	01 54       	subi	r16, 0x41	; 65
    6dda:	54 92       	.word	0x9254	; ????
    6ddc:	76 10       	cpse	r7, r6
    6dde:	53 82       	std	Z+3, r5	; 0x03
    6de0:	15 55       	subi	r17, 0x55	; 85
    6de2:	82 12       	cpse	r8, r18
    6de4:	54 92       	.word	0x9254	; ????
    6de6:	53 53       	subi	r21, 0x33	; 51
    6de8:	02 65       	ori	r16, 0x52	; 82
    6dea:	82 12       	cpse	r8, r18
    6dec:	85 01       	movw	r16, r10
    6dee:	54 55       	subi	r21, 0x54	; 84
    6df0:	82 11       	cpse	r24, r2
    6df2:	55 82       	std	Z+5, r5	; 0x05
    6df4:	18 55       	subi	r17, 0x58	; 88
    6df6:	82 15       	cp	r24, r2
    6df8:	54 92       	.word	0x9254	; ????
    6dfa:	53 82       	std	Z+3, r5	; 0x03
    6dfc:	11 55       	subi	r17, 0x51	; 81
    6dfe:	82 18       	sub	r8, r2
    6e00:	55 82       	std	Z+5, r5	; 0x05
    6e02:	15 55       	subi	r17, 0x55	; 85
    6e04:	53 02       	muls	r21, r19
    6e06:	85 82       	std	Z+5, r8	; 0x05
    6e08:	12 35       	cpi	r17, 0x52	; 82
    6e0a:	54 54       	subi	r21, 0x44	; 68
    6e0c:	92 76       	andi	r25, 0x62	; 98
    6e0e:	11 82       	std	Z+1, r1	; 0x01
    6e10:	09 92       	st	Y+, r0
    6e12:	76 12       	cpse	r7, r22
    6e14:	82 0a       	sbc	r8, r18
    6e16:	92 76       	andi	r25, 0x62	; 98
    6e18:	13 82       	std	Z+3, r1	; 0x03
    6e1a:	0b 92       	.word	0x920b	; ????
    6e1c:	76 14       	cp	r7, r6
    6e1e:	82 0c       	add	r8, r2
    6e20:	92 76       	andi	r25, 0x62	; 98
    6e22:	15 82       	std	Z+5, r1	; 0x05
    6e24:	19 82       	std	Y+1, r1	; 0x01
    6e26:	08 00       	.word	0x0008	; ????
    6e28:	82 01       	movw	r16, r4
    6e2a:	29 82       	std	Y+1, r2	; 0x01
    6e2c:	1a 77       	andi	r17, 0x7A	; 122
    6e2e:	fe 25       	eor	r31, r14
    6e30:	35 92       	.word	0x9235	; ????
    6e32:	76 fe       	sbrs	r7, 6
    6e34:	22 67       	ori	r18, 0x72	; 114
    6e36:	f8 76       	andi	r31, 0x68	; 104
    6e38:	fd 82       	std	Y+5, r15	; 0x05
    6e3a:	71 71       	andi	r23, 0x11	; 17
    6e3c:	ed 32       	cpi	r30, 0x2D	; 45
    6e3e:	03 05       	cpc	r16, r3
    6e40:	71 f0       	breq	.+28     	; 0x6e5e <Module+0x192c>
    6e42:	92 82       	std	Z+2, r9	; 0x02
    6e44:	e8 fa       	.word	0xfae8	; ????
    6e46:	76 fb       	bst	r23, 6
    6e48:	36 03       	mulsu	r19, r22
    6e4a:	71 68       	ori	r23, 0x81	; 129
    6e4c:	29 32       	cpi	r18, 0x29	; 41
    6e4e:	92 76       	andi	r25, 0x62	; 98
    6e50:	fa 82       	std	Y+2, r15	; 0x02
    6e52:	71 53       	subi	r23, 0x31	; 49
    6e54:	71 ed       	ldi	r23, 0xD1	; 209
    6e56:	65 82       	std	Z+5, r6	; 0x05
    6e58:	1b 33       	cpi	r17, 0x3B	; 59
    6e5a:	54 32       	cpi	r21, 0x24	; 36
    6e5c:	04 04       	cpc	r0, r4
    6e5e:	71 f0       	breq	.+28     	; 0x6e7c <Module+0x194a>
    6e60:	92 82       	std	Z+2, r9	; 0x02
    6e62:	e8 fd       	.word	0xfde8	; ????
    6e64:	61 fb       	bst	r22, 1
    6e66:	76 f8       	bld	r7, 6
    6e68:	53 53       	subi	r21, 0x33	; 51
    6e6a:	53 53       	subi	r21, 0x33	; 51
    6e6c:	53 53       	subi	r21, 0x33	; 51
    6e6e:	02 65       	ori	r16, 0x52	; 82
    6e70:	82 1a       	sub	r8, r18
    6e72:	55 04       	cpc	r5, r5
    6e74:	00 55       	subi	r16, 0x50	; 80
    6e76:	01 22       	and	r0, r17
    6e78:	23 28       	or	r2, r3
    6e7a:	54 94       	.word	0x9454	; ????
    6e7c:	22 23       	and	r18, r18
    6e7e:	82 02       	muls	r24, r18
    6e80:	85 01       	movw	r16, r10
    6e82:	54 55       	subi	r21, 0x54	; 84
    6e84:	53 01       	movw	r10, r6
    6e86:	75 82       	std	Z+5, r7	; 0x05
    6e88:	12 54       	subi	r17, 0x42	; 66
    6e8a:	54 23       	and	r21, r20
    6e8c:	55 02       	muls	r21, r21
    6e8e:	55 82       	std	Z+5, r5	; 0x05
    6e90:	19 54       	subi	r17, 0x49	; 73
    6e92:	82 02       	muls	r24, r18
    6e94:	22 23       	and	r18, r18
    6e96:	75 82       	std	Z+5, r7	; 0x05
    6e98:	12 94       	swap	r1
    6e9a:	22 23       	and	r18, r18
    6e9c:	54 55       	subi	r21, 0x54	; 84
    6e9e:	02 54       	subi	r16, 0x42	; 66
    6ea0:	82 02       	muls	r24, r18
    6ea2:	82 71       	andi	r24, 0x12	; 18
    6ea4:	76 f7       	brtc	.-36     	; 0x6e82 <Module+0x1950>
    6ea6:	71 ee       	ldi	r23, 0xE1	; 225
    6ea8:	82 04       	cpc	r8, r2
    6eaa:	82 11       	cpse	r24, r2
    6eac:	32 01       	movw	r6, r4
    6eae:	32 67       	ori	r19, 0x72	; 114
    6eb0:	f6 71       	andi	r31, 0x16	; 22
    6eb2:	eb 61       	ori	r30, 0x1B	; 27
    6eb4:	f5 76       	andi	r31, 0x65	; 101
    6eb6:	f6 53       	subi	r31, 0x36	; 54
    6eb8:	02 65       	ori	r16, 0x52	; 82
    6eba:	82 14       	cp	r8, r2
    6ebc:	55 82       	std	Z+5, r5	; 0x05
    6ebe:	12 54       	subi	r17, 0x42	; 66
    6ec0:	76 f5       	brtc	.+92     	; 0x6f1e <Module+0x19ec>
    6ec2:	82 07       	cpc	r24, r18
    6ec4:	71 ec       	ldi	r23, 0xC1	; 193
    6ec6:	32 03       	mulsu	r19, r18
    6ec8:	05 71       	andi	r16, 0x15	; 21
    6eca:	f0 92 82 e8 	sts	0xE882, r15
    6ece:	f3 61       	ori	r31, 0x13	; 19
    6ed0:	fb 76       	andi	r31, 0x6B	; 107
    6ed2:	f3 71       	andi	r31, 0x13	; 19
    6ed4:	ea 71       	andi	r30, 0x1A	; 26
    6ed6:	ee 82       	std	Y+6, r14	; 0x06
    6ed8:	04 71       	andi	r16, 0x14	; 20
    6eda:	eb 82       	std	Y+3, r14	; 0x03
    6edc:	07 53       	subi	r16, 0x37	; 55
    6ede:	71 ec       	ldi	r23, 0xC1	; 193
    6ee0:	65 82       	std	Z+5, r6	; 0x05
    6ee2:	1b 33       	cpi	r17, 0x3B	; 59
    6ee4:	54 32       	cpi	r21, 0x24	; 36
    6ee6:	04 04       	cpc	r0, r4
    6ee8:	71 f0       	breq	.+28     	; 0x6f06 <Module+0x19d4>
    6eea:	92 82       	std	Z+2, r9	; 0x02
    6eec:	e8 f1       	brcs	.+122    	; 0x6f68 <Module+0x1a36>
    6eee:	61 fb       	bst	r22, 1
    6ef0:	76 f1       	brts	.+92     	; 0x6f4e <Module+0x1a1c>
    6ef2:	71 ea       	ldi	r23, 0xA1	; 161
    6ef4:	61 f7       	brne	.-40     	; 0x6ece <Module+0x199c>
    6ef6:	76 f0       	brts	.+28     	; 0x6f14 <Module+0x19e2>
    6ef8:	32 82       	std	Z+2, r3	; 0x02
    6efa:	00 03       	mulsu	r16, r16
    6efc:	69 53       	subi	r22, 0x39	; 57
    6efe:	69 01       	movw	r12, r18
    6f00:	82 11       	cpse	r24, r2
    6f02:	32 69       	ori	r19, 0x92	; 146
    6f04:	54 00       	.word	0x0054	; ????
    6f06:	00 69       	ori	r16, 0x90	; 144
    6f08:	02 69       	ori	r16, 0x92	; 146
    6f0a:	1f 69       	ori	r17, 0x9F	; 159
    6f0c:	1a 82       	std	Y+2, r1	; 0x02
    6f0e:	10 92 76 ee 	sts	0xEE76, r1
    6f12:	53 53       	subi	r21, 0x33	; 51
    6f14:	02 65       	ori	r16, 0x52	; 82
    6f16:	82 11       	cpse	r24, r2
    6f18:	75 01       	movw	r14, r10
    6f1a:	54 65       	ori	r21, 0x54	; 84
    6f1c:	89 55       	subi	r24, 0x59	; 89
    6f1e:	02 55       	subi	r16, 0x52	; 82
    6f20:	82 19       	sub	r24, r2
    6f22:	54 69       	ori	r21, 0x94	; 148
    6f24:	73 38       	cpi	r23, 0x83	; 131
    6f26:	92 76       	andi	r25, 0x62	; 98
    6f28:	ed 53       	subi	r30, 0x3D	; 61
    6f2a:	71 ee       	ldi	r23, 0xE1	; 225
    6f2c:	55 89       	ldd	r21, Z+21	; 0x15
    6f2e:	55 82       	std	Z+5, r5	; 0x05
    6f30:	1c 55       	subi	r17, 0x5C	; 92
    6f32:	82 1b       	sub	r24, r18
    6f34:	54 92       	.word	0x9254	; ????
    6f36:	76 ec       	ldi	r23, 0xC6	; 198
    6f38:	53 82       	std	Z+3, r5	; 0x03
    6f3a:	17 55       	subi	r17, 0x57	; 87
    6f3c:	02 55       	subi	r16, 0x52	; 82
    6f3e:	89 55       	subi	r24, 0x59	; 89
    6f40:	82 1c       	adc	r8, r2
    6f42:	55 82       	std	Z+5, r5	; 0x05
    6f44:	1b 54       	subi	r17, 0x4B	; 75
    6f46:	92 76       	andi	r25, 0x62	; 98
    6f48:	eb 53       	subi	r30, 0x3B	; 59
    6f4a:	04 65       	ori	r16, 0x54	; 84
    6f4c:	82 13       	cpse	r24, r18
    6f4e:	65 82       	std	Z+5, r6	; 0x05
    6f50:	14 55       	subi	r17, 0x54	; 84
    6f52:	82 15       	cp	r24, r2
    6f54:	55 82       	std	Z+5, r5	; 0x05
    6f56:	16 54       	subi	r17, 0x46	; 70
    6f58:	92 76       	andi	r25, 0x62	; 98
    6f5a:	ea 53       	subi	r30, 0x3A	; 58
    6f5c:	53 82       	std	Z+3, r5	; 0x03
    6f5e:	11 65       	ori	r17, 0x51	; 81
    6f60:	89 55       	subi	r24, 0x59	; 89
    6f62:	82 19       	sub	r24, r2
    6f64:	54 69       	ori	r21, 0x94	; 148
    6f66:	73 38       	cpi	r23, 0x83	; 131
    6f68:	33 85       	ldd	r19, Z+11	; 0x0b
    6f6a:	82 12       	cpse	r8, r18
    6f6c:	33 54       	subi	r19, 0x43	; 67
    6f6e:	82 05       	cpc	r24, r2
    6f70:	82 14       	cp	r8, r2
    6f72:	82 03       	fmuls	r16, r18
    6f74:	82 17       	cp	r24, r18
    6f76:	82 06       	cpc	r8, r18
    6f78:	82 71       	andi	r24, 0x12	; 18
    6f7a:	92 76       	andi	r25, 0x62	; 98
    6f7c:	11 82       	std	Z+1, r1	; 0x01
    6f7e:	02 92       	st	-Z, r0
    6f80:	76 12       	cpse	r7, r22
    6f82:	82 05       	cpc	r24, r2
    6f84:	92 76       	andi	r25, 0x62	; 98
    6f86:	13 53       	subi	r17, 0x33	; 51
    6f88:	82 15       	cp	r24, r2
    6f8a:	55 82       	std	Z+5, r5	; 0x05
    6f8c:	12 54       	subi	r17, 0x42	; 66
    6f8e:	82 07       	cpc	r24, r18
    6f90:	00 82       	st	Z, r0
    6f92:	09 82       	std	Y+1, r0	; 0x01
    6f94:	04 76       	andi	r16, 0x64	; 100
    6f96:	fd 82       	std	Y+5, r15	; 0x05
    6f98:	12 82       	std	Z+2, r1	; 0x02
    6f9a:	39 82       	std	Y+1, r3	; 0x01
    6f9c:	19 82       	std	Y+1, r1	; 0x01
    6f9e:	01 82       	std	Z+1, r0	; 0x01
    6fa0:	71 00       	.word	0x0071	; ????
    6fa2:	82 06       	cpc	r8, r18
    6fa4:	82 08       	sbc	r8, r2
    6fa6:	82 15       	cp	r24, r2
    6fa8:	82 34       	cpi	r24, 0x42	; 66
    6faa:	76 fc       	sbrc	r7, 6
    6fac:	53 82       	std	Z+3, r5	; 0x03
    6fae:	16 36       	cpi	r17, 0x66	; 102
    6fb0:	00 16       	cp	r0, r16
    6fb2:	65 53       	subi	r22, 0x35	; 53
    6fb4:	82 14       	cp	r8, r2
    6fb6:	75 82       	std	Z+5, r7	; 0x05
    6fb8:	16 54       	subi	r17, 0x46	; 70
    6fba:	36 00       	.word	0x0036	; ????
    6fbc:	17 54       	subi	r17, 0x47	; 71
    6fbe:	82 38       	cpi	r24, 0x82	; 130
    6fc0:	82 38       	cpi	r24, 0x82	; 130
    6fc2:	82 96       	adiw	r24, 0x22	; 34
    6fc4:	29 67       	ori	r18, 0x79	; 121
    6fc6:	fb 32       	cpi	r31, 0x2B	; 43
    6fc8:	82 14       	cp	r8, r2
    6fca:	32 67       	ori	r19, 0x72	; 114
    6fcc:	fb 82       	std	Y+3, r15	; 0x03
    6fce:	96 61       	ori	r25, 0x16	; 22
    6fd0:	fa 76       	andi	r31, 0x6A	; 106
    6fd2:	fb 82       	std	Y+3, r15	; 0x03
    6fd4:	96 82       	std	Z+6, r9	; 0x06
    6fd6:	58 76       	andi	r21, 0x68	; 104
    6fd8:	fa 82       	std	Y+2, r15	; 0x02
    6fda:	17 82       	std	Z+7, r1	; 0x07
    6fdc:	36 82       	std	Z+6, r3	; 0x06
    6fde:	e1 fc       	sbrc	r14, 1
    6fe0:	53 82       	std	Z+3, r5	; 0x03
    6fe2:	17 55       	subi	r17, 0x57	; 87
    6fe4:	02 54       	subi	r16, 0x42	; 66
    6fe6:	82 48       	sbci	r24, 0x82	; 130
    6fe8:	69 1e       	adc	r6, r25
    6fea:	82 14       	cp	r8, r2
    6fec:	32 82       	std	Z+2, r3	; 0x02
    6fee:	18 92       	.word	0x9218	; ????
    6ff0:	61 fd       	sbrc	r22, 1
    6ff2:	76 15       	cp	r23, r6
    6ff4:	22 76       	andi	r18, 0x62	; 98
    6ff6:	13 86       	std	Z+11, r1	; 0x0b
    6ff8:	00 82       	st	Z, r0
    6ffa:	14 82       	std	Z+4, r1	; 0x04
    6ffc:	0a 53       	subi	r16, 0x3A	; 58
    6ffe:	24 75       	andi	r18, 0x54	; 84
    7000:	01 54       	subi	r16, 0x41	; 65
    7002:	82 01       	movw	r16, r4
    7004:	87 00       	.word	0x0087	; ????
    7006:	fd 53       	subi	r31, 0x3D	; 61
    7008:	24 85       	ldd	r18, Z+12	; 0x0c
    700a:	05 00       	.word	0x0005	; ????
    700c:	54 76       	andi	r21, 0x64	; 100
    700e:	fd 82       	std	Y+5, r15	; 0x05
    7010:	03 00       	.word	0x0003	; ????
    7012:	82 07       	cpc	r24, r18
    7014:	76 fc       	sbrc	r7, 6
    7016:	00 82       	st	Z, r0
    7018:	05 82       	std	Z+5, r0	; 0x05
    701a:	06 82       	std	Z+6, r0	; 0x06
    701c:	14 82       	std	Z+4, r1	; 0x04
    701e:	02 82       	std	Z+2, r0	; 0x02
    7020:	82 82       	std	Z+2, r8	; 0x02
    7022:	13 82       	std	Z+3, r1	; 0x03
    7024:	09 82       	std	Y+1, r0	; 0x01
    7026:	11 82       	std	Z+1, r1	; 0x01
    7028:	00 76       	andi	r16, 0x60	; 96
    702a:	fb 53       	subi	r31, 0x3B	; 59
    702c:	82 12       	cpse	r8, r18
    702e:	65 82       	std	Z+5, r6	; 0x05
    7030:	17 65       	ori	r17, 0x57	; 87
    7032:	02 65       	ori	r16, 0x52	; 82
    7034:	89 55       	subi	r24, 0x59	; 89
    7036:	82 14       	cp	r8, r2
    7038:	54 69       	ori	r21, 0x94	; 148
    703a:	73 82       	std	Z+3, r7	; 0x03
    703c:	08 53       	subi	r16, 0x38	; 56
    703e:	39 65       	ori	r19, 0x59	; 89
    7040:	27 10       	cpse	r2, r7
    7042:	54 82       	std	Z+4, r5	; 0x04
    7044:	35 82       	std	Z+5, r3	; 0x05
    7046:	18 53       	subi	r17, 0x38	; 56
    7048:	38 65       	ori	r19, 0x58	; 88
    704a:	27 19       	sub	r18, r7
    704c:	54 82       	std	Z+4, r5	; 0x04
    704e:	56 82       	std	Z+6, r5	; 0x06
    7050:	89 82       	std	Y+1, r8	; 0x01
    7052:	80 82       	st	Z, r8
    7054:	e2 fb       	bst	r30, 2
    7056:	27 10       	cpse	r2, r7
    7058:	82 35       	cpi	r24, 0x52	; 82
    705a:	82 17       	cp	r24, r18
    705c:	82 00       	.word	0x0082	; ????
    705e:	87 00       	.word	0x0087	; ????
    7060:	fa 07       	cpc	r31, r26
    7062:	00 32       	cpi	r16, 0x20	; 32
    7064:	03 71       	andi	r16, 0x13	; 19
    7066:	33 53       	subi	r19, 0x33	; 51
    7068:	53 82       	std	Z+3, r5	; 0x03
    706a:	15 85       	ldd	r17, Z+13	; 0x0d
    706c:	82 16       	cp	r8, r18
    706e:	54 55       	subi	r21, 0x54	; 84
    7070:	82 14       	cp	r8, r2
    7072:	54 92       	.word	0x9254	; ????
    7074:	61 f9       	bld	r22, 1
    7076:	76 fa       	bst	r7, 6
    7078:	06 05       	cpc	r16, r6
    707a:	07 07       	cpc	r16, r23
    707c:	08 00       	.word	0x0008	; ????
    707e:	32 03       	mulsu	r19, r18
    7080:	71 33       	cpi	r23, 0x31	; 49
    7082:	82 15       	cp	r24, r2
    7084:	32 82       	std	Z+2, r3	; 0x02
    7086:	16 22       	and	r1, r22
    7088:	37 32       	cpi	r19, 0x27	; 39
    708a:	92 08       	sbc	r9, r2
    708c:	00 07       	cpc	r16, r16
    708e:	02 06       	cpc	r0, r18
    7090:	05 08       	sbc	r0, r5
    7092:	03 06       	cpc	r0, r19
    7094:	09 32       	cpi	r16, 0x29	; 41
    7096:	03 71       	andi	r16, 0x13	; 19
    7098:	33 82       	std	Z+3, r3	; 0x03
    709a:	15 32       	cpi	r17, 0x25	; 37
    709c:	82 16       	cp	r8, r18
    709e:	22 37       	cpi	r18, 0x72	; 114
    70a0:	92 76       	andi	r25, 0x62	; 98
    70a2:	f9 82       	std	Y+1, r15	; 0x01
    70a4:	77 82       	std	Z+7, r7	; 0x07
    70a6:	ea fc       	.word	0xfcea	; ????
    70a8:	36 03       	mulsu	r19, r22
    70aa:	71 68       	ori	r23, 0x81	; 129
    70ac:	00 92 76 33 	sts	0x3376, r0
    70b0:	69 53       	subi	r22, 0x39	; 57
    70b2:	69 01       	movw	r12, r18
    70b4:	82 10       	cpse	r8, r2
    70b6:	32 69       	ori	r19, 0x92	; 146
    70b8:	54 69       	ori	r21, 0x94	; 148
    70ba:	02 69       	ori	r16, 0x92	; 146
    70bc:	1f 69       	ori	r17, 0x9F	; 159
    70be:	1a 92       	st	-Y, r1
    70c0:	76 11       	cpse	r23, r6
    70c2:	47 82       	std	Z+7, r4	; 0x07
    70c4:	04 00       	.word	0x0004	; ????
    70c6:	92 76       	andi	r25, 0x62	; 98
    70c8:	12 82       	std	Z+2, r1	; 0x02
    70ca:	00 82       	st	Z, r0
    70cc:	08 76       	andi	r16, 0x68	; 104
    70ce:	50 07       	cpc	r21, r16
    70d0:	00 32       	cpi	r16, 0x20	; 32
    70d2:	05 71       	andi	r16, 0x15	; 21
    70d4:	33 76       	andi	r19, 0x63	; 99
    70d6:	94 82       	std	Z+4, r9	; 0x04
    70d8:	18 92       	.word	0x9218	; ????
    70da:	82 08       	sbc	r8, r2
    70dc:	27 00       	.word	0x0027	; ????
    70de:	82 70       	andi	r24, 0x02	; 2
    70e0:	7a 90       	ld	r7, -Y
    70e2:	04 50       	subi	r16, 0x04	; 4
    70e4:	36 03       	mulsu	r19, r22
    70e6:	71 68       	ori	r23, 0x81	; 129
    70e8:	61 94       	neg	r6
    70ea:	76 14       	cp	r7, r6
    70ec:	82 00       	.word	0x0082	; ????
    70ee:	53 82       	std	Z+3, r5	; 0x03
    70f0:	08 85       	ldd	r16, Y+8	; 0x08
    70f2:	05 00       	.word	0x0005	; ????
    70f4:	54 82       	std	Z+4, r5	; 0x04
    70f6:	01 76       	andi	r16, 0x61	; 97
    70f8:	34 06       	cpc	r3, r20
    70fa:	05 07       	cpc	r16, r21
    70fc:	07 08       	sbc	r0, r7
    70fe:	00 32       	cpi	r16, 0x20	; 32
    7100:	05 71       	andi	r16, 0x15	; 21
    7102:	33 76       	andi	r19, 0x63	; 99
    7104:	38 82       	st	Y, r3
    7106:	18 92       	.word	0x9218	; ????
    7108:	82 08       	sbc	r8, r2
    710a:	27 00       	.word	0x0027	; ????
    710c:	08 00       	.word	0x0008	; ????
    710e:	07 02       	muls	r16, r23
    7110:	06 05       	cpc	r16, r6
    7112:	08 03       	fmul	r16, r16
    7114:	06 09       	sbc	r16, r6
    7116:	32 05       	cpc	r19, r2
    7118:	71 33       	cpi	r23, 0x31	; 49
    711a:	82 18       	sub	r8, r2
    711c:	92 82       	std	Z+2, r9	; 0x02
    711e:	08 32       	cpi	r16, 0x28	; 40
    7120:	27 10       	cpse	r2, r7
    7122:	32 37       	cpi	r19, 0x72	; 114
    7124:	27 01       	movw	r4, r14
    7126:	32 27       	eor	r19, r18
    7128:	00 82       	st	Z, r0
    712a:	70 82       	st	Z, r7
    712c:	71 7a       	andi	r23, 0xA1	; 161
    712e:	90 04       	cpc	r9, r0
    7130:	34 36       	cpi	r19, 0x64	; 100
    7132:	03 71       	andi	r16, 0x13	; 19
    7134:	68 61       	ori	r22, 0x18	; 24
    7136:	38 76       	andi	r19, 0x68	; 104
    7138:	16 53       	subi	r17, 0x36	; 54
    713a:	82 12       	cpse	r8, r18
    713c:	65 82       	std	Z+5, r6	; 0x05
    713e:	13 54       	subi	r17, 0x43	; 67
    7140:	76 11       	cpse	r23, r6
    7142:	82 01       	movw	r16, r4
    7144:	92 76       	andi	r25, 0x62	; 98
    7146:	17 53       	subi	r17, 0x37	; 55
    7148:	82 11       	cpse	r24, r2
    714a:	55 82       	std	Z+5, r5	; 0x05
    714c:	13 54       	subi	r17, 0x43	; 67
    714e:	76 12       	cpse	r7, r22
    7150:	82 02       	muls	r24, r18
    7152:	92 76       	andi	r25, 0x62	; 98
    7154:	18 53       	subi	r17, 0x38	; 56
    7156:	82 11       	cpse	r24, r2
    7158:	55 82       	std	Z+5, r5	; 0x05
    715a:	12 54       	subi	r17, 0x42	; 66
    715c:	76 13       	cpse	r23, r22
    715e:	82 03       	fmuls	r16, r18
    7160:	92 76       	andi	r25, 0x62	; 98
    7162:	14 53       	subi	r17, 0x34	; 52
    7164:	24 65       	ori	r18, 0x54	; 84
    7166:	82 13       	cpse	r24, r18
    7168:	54 34       	cpi	r21, 0x44	; 68
    716a:	92 76       	andi	r25, 0x62	; 98
    716c:	19 53       	subi	r17, 0x39	; 57
    716e:	82 11       	cpse	r24, r2
    7170:	65 82       	std	Z+5, r6	; 0x05
    7172:	12 54       	subi	r17, 0x42	; 66
    7174:	92 76       	andi	r25, 0x62	; 98
    7176:	15 53       	subi	r17, 0x35	; 53
    7178:	24 55       	subi	r18, 0x54	; 84
    717a:	82 13       	cpse	r24, r18
    717c:	54 34       	cpi	r21, 0x44	; 68
    717e:	92 76       	andi	r25, 0x62	; 98
    7180:	10 53       	subi	r17, 0x30	; 48
    7182:	35 65       	ori	r19, 0x55	; 85
    7184:	82 11       	cpse	r24, r2
    7186:	33 54       	subi	r19, 0x43	; 67
    7188:	92 76       	andi	r25, 0x62	; 98
    718a:	11 82       	std	Z+1, r1	; 0x01
    718c:	01 92       	st	Z+, r0
    718e:	76 12       	cpse	r7, r22
    7190:	82 31       	cpi	r24, 0x12	; 18
    7192:	82 11       	cpse	r24, r2
    7194:	92 76       	andi	r25, 0x62	; 98
    7196:	13 53       	subi	r17, 0x33	; 51
    7198:	35 85       	ldd	r19, Z+13	; 0x0d
    719a:	82 11       	cpse	r24, r2
    719c:	35 54       	subi	r19, 0x45	; 69
    719e:	35 82       	std	Z+5, r3	; 0x05
    71a0:	01 92       	st	Z+, r0
    71a2:	76 95       	lsr	r23
    71a4:	82 14       	cp	r8, r2
    71a6:	82 01       	movw	r16, r4
    71a8:	82 f1       	brmi	.+96     	; 0x720a <Module+0x1cd8>
    71aa:	e1 82       	std	Z+1, r14	; 0x01
    71ac:	f1 e8       	ldi	r31, 0x81	; 129
    71ae:	82 f1       	brmi	.+96     	; 0x7210 <Module+0x1cde>
    71b0:	e1 82       	std	Z+1, r14	; 0x01
    71b2:	f1 e0       	ldi	r31, 0x01	; 1
    71b4:	82 f1       	brmi	.+96     	; 0x7216 <Module+0x1ce4>
    71b6:	e1 82       	std	Z+1, r14	; 0x01
    71b8:	f1 e0       	ldi	r31, 0x01	; 1
    71ba:	82 f1       	brmi	.+96     	; 0x721c <Module+0x1cea>
    71bc:	e1 82       	std	Z+1, r14	; 0x01
    71be:	f1 e1       	ldi	r31, 0x11	; 17
    71c0:	82 f1       	brmi	.+96     	; 0x7222 <Module+0x1cf0>
    71c2:	e0 82       	st	Z, r14
    71c4:	f1 e1       	ldi	r31, 0x11	; 17
    71c6:	82 f1       	brmi	.+96     	; 0x7228 <Module+0x1cf6>
    71c8:	e0 76       	andi	r30, 0x60	; 96
    71ca:	e1 03       	fmuls	r22, r17
    71cc:	01 92       	st	Z+, r0
    71ce:	76 e0       	ldi	r23, 0x06	; 6
    71d0:	03 00       	.word	0x0003	; ????
    71d2:	92 76       	andi	r25, 0x62	; 98
    71d4:	e8 02       	muls	r30, r24
    71d6:	08 92       	.word	0x9208	; ????
    71d8:	76 17       	cp	r23, r22
    71da:	53 24       	eor	r5, r3
    71dc:	75 93       	.word	0x9375	; ????
    71de:	05 54       	subi	r16, 0x45	; 69
    71e0:	5d 92       	st	X+, r5
    71e2:	76 18       	sub	r7, r6
    71e4:	53 82       	std	Z+3, r5	; 0x03
    71e6:	14 29       	or	r17, r4
    71e8:	67 fe       	sbrs	r6, 7
    71ea:	75 01       	movw	r14, r10
    71ec:	03 54       	subi	r16, 0x43	; 67
    71ee:	67 fd       	sbrc	r22, 7
    71f0:	92 76       	andi	r25, 0x62	; 98
    71f2:	fe 54       	subi	r31, 0x4E	; 78
    71f4:	01 01       	movw	r0, r2
    71f6:	76 fd       	sbrc	r23, 6
    71f8:	82 04       	cpc	r8, r2
    71fa:	82 74       	andi	r24, 0x42	; 66
    71fc:	92 76       	andi	r25, 0x62	; 98
    71fe:	11 53       	subi	r17, 0x31	; 49
    7200:	24 75       	andi	r18, 0x54	; 84
    7202:	82 95       	swap	r24
    7204:	54 82       	std	Z+4, r5	; 0x04
    7206:	32 82       	std	Z+2, r3	; 0x02
    7208:	15 92       	.word	0x9215	; ????
    720a:	76 12       	cpse	r7, r22
    720c:	82 03       	fmuls	r16, r18
    720e:	17 82       	std	Z+7, r1	; 0x07
    7210:	53 82       	std	Z+3, r5	; 0x03
    7212:	04 01       	movw	r0, r8
    7214:	00 00       	nop
    7216:	82 43       	sbci	r24, 0x32	; 50
    7218:	76 10       	cpse	r7, r6
    721a:	53 82       	std	Z+3, r5	; 0x03
    721c:	13 55       	subi	r17, 0x53	; 83
    721e:	01 00       	.word	0x0001	; ????
    7220:	00 85       	ldd	r16, Z+8	; 0x08
    7222:	82 14       	cp	r8, r2
    7224:	54 92       	.word	0x9254	; ????
    7226:	76 13       	cpse	r23, r22
    7228:	88 82       	st	Y, r8
    722a:	02 22       	and	r0, r18
    722c:	88 92       	.word	0x9288	; ????
    722e:	76 14       	cp	r7, r6
    7230:	88 82       	st	Y, r8
    7232:	32 22       	and	r3, r18
    7234:	88 92       	.word	0x9288	; ????
    7236:	76 15       	cp	r23, r6
    7238:	53 82       	std	Z+3, r5	; 0x03
    723a:	12 55       	subi	r17, 0x52	; 82
    723c:	02 04       	cpc	r0, r2
    723e:	54 17       	cp	r21, r20
    7240:	53 82       	std	Z+3, r5	; 0x03
    7242:	33 65       	ori	r19, 0x53	; 83
    7244:	02 04       	cpc	r0, r2
    7246:	54 82       	std	Z+4, r5	; 0x04
    7248:	52 53       	subi	r21, 0x32	; 50
    724a:	82 13       	cpse	r24, r18
    724c:	75 01       	movw	r14, r10
    724e:	54 29       	or	r21, r4
    7250:	77 fc       	sbrc	r7, 7
    7252:	82 84       	ldd	r8, Z+10	; 0x0a
    7254:	18 71       	andi	r17, 0x18	; 24
    7256:	95 82       	std	Z+5, r9	; 0x05
    7258:	33 61       	ori	r19, 0x13	; 19
    725a:	fb 76       	andi	r31, 0x6B	; 107
    725c:	fc 53       	subi	r31, 0x3C	; 60
    725e:	71 95       	neg	r23
    7260:	75 82       	std	Z+5, r7	; 0x05
    7262:	13 54       	subi	r17, 0x43	; 67
    7264:	77 fb       	bst	r23, 7
    7266:	94 82       	std	Z+4, r9	; 0x04
    7268:	03 82       	std	Z+3, r0	; 0x03
    726a:	74 18       	sub	r7, r4
    726c:	76 fb       	bst	r23, 6
    726e:	82 12       	cpse	r8, r18
    7270:	22 88       	ldd	r2, Z+18	; 0x12
    7272:	92 76       	andi	r25, 0x62	; 98
    7274:	13 71       	andi	r17, 0x13	; 19
    7276:	95 82       	std	Z+5, r9	; 0x05
    7278:	13 53       	subi	r17, 0x33	; 51
    727a:	24 75       	andi	r18, 0x54	; 84
    727c:	01 54       	subi	r16, 0x41	; 65
    727e:	53 82       	std	Z+3, r5	; 0x03
    7280:	08 82       	st	Y, r0
    7282:	05 55       	subi	r16, 0x55	; 85
    7284:	02 54       	subi	r16, 0x42	; 66
    7286:	59 29       	or	r21, r9
    7288:	67 68       	ori	r22, 0x87	; 135
    728a:	61 fc       	sbrc	r6, 1
    728c:	76 fd       	sbrc	r23, 6
    728e:	82 18       	sub	r8, r2
    7290:	82 05       	cpc	r24, r2
    7292:	82 17       	cp	r24, r18
    7294:	32 01       	movw	r6, r4
    7296:	03 22       	and	r0, r19
    7298:	77 fc       	sbrc	r7, 7
    729a:	04 22       	and	r0, r20
    729c:	77 fc       	sbrc	r7, 7
    729e:	01 67       	ori	r16, 0x71	; 113
    72a0:	68 76       	andi	r22, 0x68	; 104
    72a2:	fc 82       	std	Y+4, r15	; 0x04
    72a4:	07 82       	std	Z+7, r0	; 0x07
    72a6:	55 00       	.word	0x0055	; ????
    72a8:	82 06       	cpc	r8, r18
    72aa:	76 f8       	bld	r7, 6
    72ac:	82 04       	cpc	r8, r2
    72ae:	76 fb       	bst	r23, 6
    72b0:	82 01       	movw	r16, r4
    72b2:	27 11       	cpse	r18, r7
    72b4:	32 82       	std	Z+2, r3	; 0x02
    72b6:	17 82       	std	Z+7, r1	; 0x07
    72b8:	31 27       	eor	r19, r17
    72ba:	11 77       	andi	r17, 0x71	; 113
    72bc:	fa 32       	cpi	r31, 0x2A	; 42
    72be:	27 01       	movw	r4, r14
    72c0:	82 14       	cp	r8, r2
    72c2:	82 01       	movw	r16, r4
    72c4:	32 27       	eor	r19, r18
    72c6:	01 82       	std	Z+1, r0	; 0x01
    72c8:	17 82       	std	Z+7, r1	; 0x07
    72ca:	54 29       	or	r21, r4
    72cc:	82 14       	cp	r8, r2
    72ce:	77 fb       	bst	r23, 7
    72d0:	76 fa       	bst	r7, 6
    72d2:	82 76       	andi	r24, 0x62	; 98
    72d4:	82 16       	cp	r8, r18
    72d6:	32 82       	std	Z+2, r3	; 0x02
    72d8:	15 22       	and	r1, r21
    72da:	77 fd       	sbrc	r23, 7
    72dc:	32 61       	ori	r19, 0x12	; 18
    72de:	f8 76       	andi	r31, 0x68	; 104
    72e0:	78 69       	ori	r23, 0x98	; 152
    72e2:	53 69       	ori	r21, 0x93	; 147
    72e4:	01 82       	std	Z+1, r0	; 0x01
    72e6:	11 32       	cpi	r17, 0x21	; 33
    72e8:	05 09       	sbc	r16, r5
    72ea:	69 54       	subi	r22, 0x49	; 73
    72ec:	06 01       	movw	r0, r12
    72ee:	00 00       	nop
    72f0:	69 02       	muls	r22, r25
    72f2:	69 1f       	adc	r22, r25
    72f4:	69 1a       	sub	r6, r25
    72f6:	92 76       	andi	r25, 0x62	; 98
    72f8:	11 82       	std	Z+1, r1	; 0x01
    72fa:	03 00       	.word	0x0003	; ????
    72fc:	92 76       	andi	r25, 0x62	; 98
    72fe:	12 82       	std	Z+2, r1	; 0x02
    7300:	01 82       	std	Z+1, r0	; 0x01
    7302:	02 76       	andi	r16, 0x62	; 98
    7304:	50 05       	cpc	r21, r0
    7306:	71 78       	andi	r23, 0x81	; 129
    7308:	82 12       	cpse	r8, r18
    730a:	92 82       	std	Z+2, r9	; 0x02
    730c:	02 27       	eor	r16, r18
    730e:	01 82       	std	Z+1, r0	; 0x01
    7310:	71 7a       	andi	r23, 0xA1	; 161
    7312:	91 03       	fmuls	r17, r17
    7314:	50 61       	ori	r21, 0x10	; 16
    7316:	68 76       	andi	r22, 0x68	; 104
    7318:	14 82       	std	Z+4, r1	; 0x04
    731a:	01 76       	andi	r16, 0x61	; 97
    731c:	38 03       	fmul	r19, r16
    731e:	71 78       	andi	r23, 0x81	; 129
    7320:	27 11       	cpse	r18, r7
    7322:	92 82       	std	Z+2, r9	; 0x02
    7324:	71 7a       	andi	r23, 0xA1	; 161
    7326:	91 03       	fmuls	r17, r17
    7328:	38 76       	andi	r19, 0x68	; 104
    732a:	68 36       	cpi	r22, 0x68	; 104
    732c:	03 71       	andi	r16, 0x13	; 19
    732e:	68 00       	.word	0x0068	; ????
    7330:	92 76       	andi	r25, 0x62	; 98
    7332:	95 06       	cpc	r9, r21
    7334:	06 69       	ori	r16, 0x96	; 150
    7336:	53 69       	ori	r21, 0x93	; 147
    7338:	01 06       	cpc	r0, r17
    733a:	07 93       	.word	0x9307	; ????
    733c:	05 69       	ori	r16, 0x95	; 149
    733e:	53 69       	ori	r21, 0x93	; 147
    7340:	02 69       	ori	r16, 0x92	; 146
    7342:	1f 69       	ori	r17, 0x9F	; 159
    7344:	1a 00       	.word	0x001a	; ????
    7346:	66 92       	.word	0x9266	; ????
    7348:	76 19       	sub	r23, r6
    734a:	25 82       	std	Z+5, r2	; 0x05
    734c:	01 01       	movw	r0, r2
    734e:	76 30       	cpi	r23, 0x06	; 6
    7350:	65 27       	eor	r22, r21
    7352:	11 82       	std	Z+1, r1	; 0x01
    7354:	71 7a       	andi	r23, 0xA1	; 161
    7356:	91 03       	fmuls	r17, r17
    7358:	30 95       	com	r19
    735a:	22 45       	sbci	r18, 0x52	; 82
    735c:	82 13       	cpse	r24, r18
    735e:	95 92       	.word	0x9295	; ????
    7360:	76 15       	cp	r23, r6
    7362:	53 82       	std	Z+3, r5	; 0x03
    7364:	13 55       	subi	r17, 0x53	; 83
    7366:	02 54       	subi	r16, 0x42	; 66
    7368:	59 82       	std	Y+1, r5	; 0x01
    736a:	01 27       	eor	r16, r17
    736c:	11 92       	st	Z+, r1
    736e:	76 10       	cpse	r7, r6
    7370:	25 82       	std	Z+5, r2	; 0x05
    7372:	01 76       	andi	r16, 0x61	; 97
    7374:	39 85       	ldd	r19, Y+9	; 0x09
    7376:	27 11       	cpse	r18, r7
    7378:	82 71       	andi	r24, 0x12	; 18
    737a:	7a 91       	ld	r23, -Y
    737c:	03 39       	cpi	r16, 0x93	; 147
    737e:	95 55       	subi	r25, 0x55	; 85
    7380:	82 13       	cpse	r24, r18
    7382:	95 92       	.word	0x9295	; ????
    7384:	76 11       	cpse	r23, r6
    7386:	5d 82       	std	Y+5, r5	; 0x05
    7388:	01 02       	muls	r16, r17
    738a:	76 39       	cpi	r23, 0x96	; 150
    738c:	82 02       	muls	r24, r18
    738e:	76 95       	lsr	r23
    7390:	82 12       	cpse	r8, r18
    7392:	32 53       	subi	r19, 0x32	; 50
    7394:	82 11       	cpse	r24, r2
    7396:	55 82       	std	Z+5, r5	; 0x05
    7398:	12 54       	subi	r17, 0x42	; 66
    739a:	22 77       	andi	r18, 0x72	; 114
    739c:	34 22       	and	r3, r20
    739e:	59 29       	or	r21, r9
    73a0:	67 38       	cpi	r22, 0x87	; 135
    73a2:	03 32       	cpi	r16, 0x23	; 35
    73a4:	82 12       	cpse	r8, r18
    73a6:	53 24       	eor	r5, r3
    73a8:	85 01       	movw	r16, r10
    73aa:	54 67       	ori	r21, 0x74	; 116
    73ac:	39 53       	subi	r19, 0x39	; 57
    73ae:	24 85       	ldd	r18, Z+12	; 0x0c
    73b0:	01 54       	subi	r16, 0x41	; 65
    73b2:	5d 61       	ori	r21, 0x1D	; 29
    73b4:	39 76       	andi	r19, 0x69	; 105
    73b6:	38 82       	st	Y, r3
    73b8:	12 82       	std	Z+2, r1	; 0x02
    73ba:	61 82       	std	Z+1, r6	; 0x01
    73bc:	21 92       	st	Z+, r2
    73be:	61 95       	neg	r22
    73c0:	76 34       	cpi	r23, 0x46	; 70
    73c2:	01 82       	std	Z+1, r0	; 0x01
    73c4:	91 92       	st	Z+, r9
    73c6:	61 95       	neg	r22
    73c8:	76 11       	cpse	r23, r6
    73ca:	82 1f       	adc	r24, r18
    73cc:	92 76       	andi	r25, 0x62	; 98
    73ce:	12 82       	std	Z+2, r1	; 0x02
    73d0:	1e 92       	st	-X, r1
    73d2:	76 13       	cpse	r23, r22
    73d4:	82 1d       	adc	r24, r2
    73d6:	92 76       	andi	r25, 0x62	; 98
    73d8:	14 82       	std	Z+4, r1	; 0x04
    73da:	1c 92       	st	X, r1
    73dc:	76 15       	cp	r23, r6
    73de:	82 1b       	sub	r24, r18
    73e0:	92 76       	andi	r25, 0x62	; 98
    73e2:	16 82       	std	Z+6, r1	; 0x06
    73e4:	0f 92       	push	r0
    73e6:	76 17       	cp	r23, r22
    73e8:	82 0e       	add	r8, r18
    73ea:	92 76       	andi	r25, 0x62	; 98
    73ec:	18 82       	st	Y, r1
    73ee:	0d 92       	st	X+, r0
    73f0:	76 19       	sub	r23, r6
    73f2:	82 0c       	add	r8, r2
    73f4:	92 76       	andi	r25, 0x62	; 98
    73f6:	10 82       	st	Z, r1
    73f8:	0b 92       	.word	0x920b	; ????
    73fa:	76 11       	cpse	r23, r6
    73fc:	82 02       	muls	r24, r18
    73fe:	00 92 76 12 	sts	0x1276, r0
    7402:	82 00       	.word	0x0082	; ????
    7404:	53 24       	eor	r5, r3
    7406:	85 82       	std	Z+5, r8	; 0x05
    7408:	12 54       	subi	r17, 0x42	; 66
    740a:	82 01       	movw	r16, r4
    740c:	00 82       	st	Z, r0
    740e:	05 82       	std	Z+5, r0	; 0x05
    7410:	06 76       	andi	r16, 0x66	; 102
    7412:	34 08       	sbc	r3, r4
    7414:	08 32       	cpi	r16, 0x28	; 40
    7416:	05 36       	cpi	r16, 0x65	; 101
    7418:	34 71       	andi	r19, 0x14	; 20
    741a:	33 76       	andi	r19, 0x63	; 99
    741c:	38 82       	st	Y, r3
    741e:	15 92       	.word	0x9215	; ????
    7420:	82 05       	cpc	r24, r2
    7422:	27 00       	.word	0x0027	; ????
    7424:	08 09       	sbc	r16, r8
    7426:	32 05       	cpc	r19, r2
    7428:	36 34       	cpi	r19, 0x46	; 70
    742a:	71 33       	cpi	r23, 0x31	; 49
    742c:	82 16       	cp	r8, r18
    742e:	92 82       	std	Z+2, r9	; 0x02
    7430:	06 27       	eor	r16, r22
    7432:	01 82       	std	Z+1, r0	; 0x01
    7434:	70 82       	st	Z, r7
    7436:	71 7a       	andi	r23, 0xA1	; 161
    7438:	90 02       	muls	r25, r16
    743a:	34 36       	cpi	r19, 0x64	; 100
    743c:	03 71       	andi	r16, 0x13	; 19
    743e:	68 00       	.word	0x0068	; ????
    7440:	92 76       	andi	r25, 0x62	; 98
    7442:	13 82       	std	Z+3, r1	; 0x03
    7444:	06 53       	subi	r16, 0x36	; 54
    7446:	82 12       	cpse	r8, r18
    7448:	82 01       	movw	r16, r4
    744a:	85 82       	std	Z+5, r8	; 0x05
    744c:	12 82       	std	Z+2, r1	; 0x02
    744e:	04 54       	subi	r16, 0x44	; 68
    7450:	82 08       	sbc	r8, r2
    7452:	76 fd       	sbrc	r23, 6
    7454:	27 11       	cpse	r18, r7
    7456:	27 08       	sbc	r2, r7
    7458:	82 71       	andi	r24, 0x12	; 18
    745a:	82 78       	andi	r24, 0x82	; 130
    745c:	82 e4       	ldi	r24, 0x42	; 66
    745e:	fd 53       	subi	r31, 0x3D	; 61
    7460:	82 12       	cpse	r8, r18
    7462:	75 01       	movw	r14, r10
    7464:	54 82       	std	Z+4, r5	; 0x04
    7466:	04 53       	subi	r16, 0x34	; 52
    7468:	02 65       	ori	r16, 0x52	; 82
    746a:	82 12       	cpse	r8, r18
    746c:	54 82       	std	Z+4, r5	; 0x04
    746e:	01 00       	.word	0x0001	; ????
    7470:	82 00       	.word	0x0082	; ????
    7472:	76 fc       	sbrc	r7, 6
    7474:	53 82       	std	Z+3, r5	; 0x03
    7476:	11 85       	ldd	r17, Z+9	; 0x09
    7478:	01 54       	subi	r16, 0x41	; 65
    747a:	82 08       	sbc	r8, r2
    747c:	53 82       	std	Z+3, r5	; 0x03
    747e:	10 85       	ldd	r17, Z+8	; 0x08
    7480:	01 54       	subi	r16, 0x41	; 65
    7482:	82 07       	cpc	r24, r18
    7484:	53 27       	eor	r21, r19
    7486:	10 75       	andi	r17, 0x50	; 80
    7488:	82 16       	cp	r8, r18
    748a:	54 82       	std	Z+4, r5	; 0x04
    748c:	05 82       	std	Z+5, r0	; 0x05
    748e:	14 82       	std	Z+4, r1	; 0x04
    7490:	03 76       	andi	r16, 0x63	; 99
    7492:	fb 53       	subi	r31, 0x3B	; 59
    7494:	53 27       	eor	r21, r19
    7496:	11 65       	ori	r17, 0x51	; 81
    7498:	53 27       	eor	r21, r19
    749a:	17 75       	andi	r17, 0x57	; 87
    749c:	82 16       	cp	r8, r18
    749e:	54 75       	andi	r21, 0x54	; 84
    74a0:	27 18       	sub	r2, r7
    74a2:	65 82       	std	Z+5, r6	; 0x05
    74a4:	15 54       	subi	r17, 0x45	; 69
    74a6:	55 53       	subi	r21, 0x35	; 53
    74a8:	27 17       	cp	r18, r23
    74aa:	75 27       	eor	r23, r21
    74ac:	10 54       	subi	r17, 0x40	; 64
    74ae:	54 27       	eor	r21, r20
    74b0:	08 82       	st	Y, r0
    74b2:	78 82       	st	Y, r7
    74b4:	77 82       	std	Z+7, r7	; 0x07
    74b6:	e3 fb       	bst	r30, 3
    74b8:	82 71       	andi	r24, 0x12	; 18
    74ba:	82 70       	andi	r24, 0x02	; 2
    74bc:	82 e4       	ldi	r24, 0x42	; 66
    74be:	fc 82       	std	Y+4, r15	; 0x04
    74c0:	88 27       	eor	r24, r24
    74c2:	18 92       	.word	0x9218	; ????
    74c4:	61 13       	cpse	r22, r17
    74c6:	76 15       	cp	r23, r6
    74c8:	53 53       	subi	r21, 0x33	; 51
    74ca:	53 82       	std	Z+3, r5	; 0x03
    74cc:	03 85       	ldd	r16, Z+11	; 0x0b
    74ce:	82 12       	cpse	r8, r18
    74d0:	54 14       	cp	r5, r4
    74d2:	75 53       	subi	r23, 0x35	; 53
    74d4:	82 13       	cpse	r24, r18
    74d6:	75 82       	std	Z+5, r7	; 0x05
    74d8:	12 54       	subi	r17, 0x42	; 66
    74da:	14 54       	subi	r17, 0x44	; 68
    74dc:	55 02       	muls	r21, r21
    74de:	55 82       	std	Z+5, r5	; 0x05
    74e0:	12 54       	subi	r17, 0x42	; 66
    74e2:	92 76       	andi	r25, 0x62	; 98
    74e4:	11 82       	std	Z+1, r1	; 0x01
    74e6:	04 92       	.word	0x9204	; ????
    74e8:	76 13       	cpse	r23, r22
    74ea:	82 15       	cp	r24, r2
    74ec:	76 12       	cpse	r7, r22
    74ee:	82 05       	cpc	r24, r2
    74f0:	53 53       	subi	r21, 0x33	; 51
    74f2:	82 14       	cp	r8, r2
    74f4:	75 82       	std	Z+5, r7	; 0x05
    74f6:	15 54       	subi	r17, 0x45	; 69
    74f8:	55 01       	movw	r10, r10
    74fa:	00 00       	nop
    74fc:	54 53       	subi	r21, 0x34	; 52
    74fe:	82 07       	cpc	r24, r18
    7500:	55 01       	movw	r10, r10
    7502:	00 00       	nop
    7504:	00 00       	nop
    7506:	54 82       	std	Z+4, r5	; 0x04
    7508:	02 32       	cpi	r16, 0x22	; 34
    750a:	00 77       	andi	r16, 0x70	; 112
    750c:	35 53       	subi	r19, 0x35	; 53
    750e:	82 15       	cp	r24, r2
    7510:	85 82       	std	Z+5, r8	; 0x05
    7512:	17 82       	std	Z+7, r1	; 0x07
    7514:	08 54       	subi	r16, 0x48	; 72
    7516:	82 05       	cpc	r24, r2
    7518:	05 00       	.word	0x0005	; ????
    751a:	00 00       	nop
    751c:	00 00       	nop
    751e:	82 01       	movw	r16, r4
    7520:	00 82       	st	Z, r0
    7522:	0a 76       	andi	r16, 0x6A	; 106
    7524:	fd 82       	std	Y+5, r15	; 0x05
    7526:	15 15       	cp	r17, r5
    7528:	29 82       	std	Y+1, r2	; 0x01
    752a:	06 67       	ori	r16, 0x76	; 118
    752c:	f7 82       	std	Z+7, r15	; 0x07
    752e:	1a 67       	ori	r17, 0x7A	; 122
    7530:	f9 32       	cpi	r31, 0x29	; 41
    7532:	82 16       	cp	r8, r18
    7534:	69 10       	cpse	r6, r9
    7536:	22 67       	ori	r18, 0x72	; 114
    7538:	f8 76       	andi	r31, 0x68	; 104
    753a:	fa 82       	std	Y+2, r15	; 0x02
    753c:	18 82       	st	Y, r1
    753e:	35 82       	std	Z+5, r3	; 0x05
    7540:	14 32       	cpi	r17, 0x24	; 36
    7542:	82 15       	cp	r24, r2
    7544:	77 35       	cpi	r23, 0x57	; 87
    7546:	82 e1       	ldi	r24, 0x12	; 18
    7548:	fd 76       	andi	r31, 0x6D	; 109
    754a:	35 29       	or	r19, r5
    754c:	25 35       	cpi	r18, 0x55	; 85
    754e:	82 15       	cp	r24, r2
    7550:	92 61       	ori	r25, 0x12	; 18
    7552:	13 76       	andi	r17, 0x63	; 99
    7554:	f9 82       	std	Y+1, r15	; 0x01
    7556:	16 69       	ori	r17, 0x96	; 150
    7558:	10 82       	st	Z, r1
    755a:	0a 94       	dec	r0
    755c:	82 09       	sbc	r24, r2
    755e:	61 fa       	bst	r6, 1
    7560:	76 f8       	bld	r7, 6
    7562:	82 0a       	sbc	r8, r18
    7564:	02 94       	swap	r0
    7566:	82 68       	ori	r24, 0x82	; 130
    7568:	61 fa       	bst	r6, 1
    756a:	76 f7       	brtc	.-36     	; 0x7548 <Module+0x2016>
    756c:	82 19       	sub	r24, r2
    756e:	32 82       	std	Z+2, r3	; 0x02
    7570:	15 92       	.word	0x9215	; ????
    7572:	61 13       	cpse	r22, r17
    7574:	76 14       	cp	r7, r6
    7576:	36 00       	.word	0x0036	; ????
    7578:	16 92       	.word	0x9216	; ????
    757a:	76 1f       	adc	r23, r22
    757c:	0f 0f       	add	r16, r31
    757e:	0f 0f       	add	r16, r31
    7580:	92 76       	andi	r25, 0x62	; 98
    7582:	5c 32       	cpi	r21, 0x2C	; 44
    7584:	08 82       	st	Y, r0
    7586:	02 53       	subi	r16, 0x32	; 50
    7588:	82 11       	cpse	r24, r2
    758a:	7e 32       	cpi	r23, 0x2E	; 46
    758c:	54 82       	std	Z+4, r5	; 0x04
    758e:	01 76       	andi	r16, 0x61	; 97
    7590:	fa 53       	subi	r31, 0x3A	; 58
    7592:	82 11       	cpse	r24, r2
    7594:	6e 01       	movw	r12, r28
    7596:	54 32       	cpi	r21, 0x24	; 36
    7598:	53 82       	std	Z+3, r5	; 0x03
    759a:	11 5c       	subi	r17, 0xC1	; 193
    759c:	01 54       	subi	r16, 0x41	; 65
    759e:	59 82       	std	Y+1, r5	; 0x01
    75a0:	01 00       	.word	0x0001	; ????
    75a2:	67 f9       	bld	r22, 7
    75a4:	53 82       	std	Z+3, r5	; 0x03
    75a6:	11 7e       	andi	r17, 0xE1	; 225
    75a8:	82 13       	cpse	r24, r18
    75aa:	54 82       	std	Z+4, r5	; 0x04
    75ac:	01 76       	andi	r16, 0x61	; 97
    75ae:	f9 82       	std	Y+1, r15	; 0x01
    75b0:	e2 fa       	bst	r14, 2
    75b2:	92 76       	andi	r25, 0x62	; 98
    75b4:	32 53       	subi	r19, 0x32	; 50
    75b6:	53 53       	subi	r21, 0x33	; 51
    75b8:	82 11       	cpse	r24, r2
    75ba:	6e 0f       	add	r22, r30
    75bc:	0f 54       	subi	r16, 0x4F	; 79
    75be:	5b 08       	sbc	r5, r11
    75c0:	54 8e       	std	Z+28, r5	; 0x1c
    75c2:	53 53       	subi	r21, 0x33	; 51
    75c4:	82 11       	cpse	r24, r2
    75c6:	6e 0f       	add	r22, r30
    75c8:	0f 00       	.word	0x000f	; ????
    75ca:	00 54       	subi	r16, 0x40	; 64
    75cc:	5c 08       	sbc	r5, r12
    75ce:	54 54       	subi	r21, 0x44	; 68
    75d0:	92 76       	andi	r25, 0x62	; 98
    75d2:	11 8b       	std	Z+17, r17	; 0x11
    75d4:	87 00       	.word	0x0087	; ????
    75d6:	f8 32       	cpi	r31, 0x28	; 40
    75d8:	1f 1f       	adc	r17, r31
    75da:	82 01       	movw	r16, r4
    75dc:	0e 0d       	add	r16, r14
    75de:	0b 08       	sbc	r0, r11
    75e0:	08 03       	fmul	r16, r16
    75e2:	02 00       	.word	0x0002	; ????
    75e4:	82 03       	fmuls	r16, r18
    75e6:	32 86       	std	Z+10, r3	; 0x0a
    75e8:	00 76       	andi	r16, 0x60	; 96
    75ea:	f8 71       	andi	r31, 0x18	; 24
    75ec:	5c 53       	subi	r21, 0x3C	; 60
    75ee:	82 11       	cpse	r24, r2
    75f0:	7e 1f       	adc	r23, r30
    75f2:	1f 54       	subi	r17, 0x4F	; 79
    75f4:	92 61       	ori	r25, 0x12	; 18
    75f6:	11 76       	andi	r17, 0x61	; 97
    75f8:	12 8b       	std	Z+18, r17	; 0x12
    75fa:	87 00       	.word	0x0087	; ????
    75fc:	f5 32       	cpi	r31, 0x25	; 37
    75fe:	00 76       	andi	r16, 0x60	; 96
    7600:	f7 82       	std	Z+7, r15	; 0x07
    7602:	01 0a       	sbc	r0, r17
    7604:	00 00       	nop
    7606:	01 76       	andi	r16, 0x61	; 97
    7608:	f6 82       	std	Z+6, r15	; 0x06
    760a:	03 32       	cpi	r16, 0x23	; 35
    760c:	86 00       	.word	0x0086	; ????
    760e:	76 f5       	brtc	.+92     	; 0x766c <Module+0x213a>
    7610:	71 5c       	subi	r23, 0xC1	; 193
    7612:	82 11       	cpse	r24, r2
    7614:	92 61       	ori	r25, 0x12	; 18
    7616:	12 76       	andi	r17, 0x62	; 98
    7618:	13 8b       	std	Z+19, r17	; 0x13
    761a:	87 00       	.word	0x0087	; ????
    761c:	f5 32       	cpi	r31, 0x25	; 37
    761e:	1f 61       	ori	r17, 0x1F	; 31
    7620:	f7 76       	andi	r31, 0x67	; 103
    7622:	14 8b       	std	Z+20, r17	; 0x14
    7624:	87 00       	.word	0x0087	; ????
    7626:	f3 32       	cpi	r31, 0x23	; 35
    7628:	00 76       	andi	r16, 0x60	; 96
    762a:	f4 82       	std	Z+4, r15	; 0x04
    762c:	01 08       	sbc	r0, r1
    762e:	04 00       	.word	0x0004	; ????
    7630:	08 82       	st	Y, r0
    7632:	03 32       	cpi	r16, 0x23	; 35
    7634:	86 00       	.word	0x0086	; ????
    7636:	76 f3       	brts	.-36     	; 0x7614 <Module+0x20e2>
    7638:	71 5c       	subi	r23, 0xC1	; 193
    763a:	71 32       	cpi	r23, 0x21	; 33
    763c:	92 61       	ori	r25, 0x12	; 18
    763e:	14 76       	andi	r17, 0x64	; 100
    7640:	15 8b       	std	Z+21, r17	; 0x15
    7642:	87 00       	.word	0x0087	; ????
    7644:	ef 32       	cpi	r30, 0x2F	; 47
    7646:	00 61       	ori	r16, 0x10	; 16
    7648:	f0 76       	andi	r31, 0x60	; 96
    764a:	16 8b       	std	Z+22, r17	; 0x16
    764c:	87 00       	.word	0x0087	; ????
    764e:	ef 32       	cpi	r30, 0x2F	; 47
    7650:	1f 76       	andi	r17, 0x6F	; 111
    7652:	f0 82       	st	Z, r15
    7654:	01 32       	cpi	r16, 0x21	; 33
    7656:	86 00       	.word	0x0086	; ????
    7658:	76 ef       	ldi	r23, 0xF6	; 246
    765a:	53 32       	cpi	r21, 0x23	; 35
    765c:	71 32       	cpi	r23, 0x21	; 33
    765e:	7e 32       	cpi	r23, 0x2E	; 46
    7660:	54 53       	subi	r21, 0x34	; 52
    7662:	24 7e       	andi	r18, 0xE4	; 228
    7664:	53 53       	subi	r21, 0x33	; 51
    7666:	24 6e       	ori	r18, 0xE4	; 228
    7668:	0f 00       	.word	0x000f	; ????
    766a:	54 5c       	subi	r21, 0xC4	; 196
    766c:	04 54       	subi	r16, 0x44	; 68
    766e:	54 53       	subi	r21, 0x34	; 52
    7670:	24 7e       	andi	r18, 0xE4	; 228
    7672:	53 53       	subi	r21, 0x33	; 51
    7674:	24 6e       	ori	r18, 0xE4	; 228
    7676:	0f 54       	subi	r16, 0x4F	; 79
    7678:	5b 0c       	add	r5, r11
    767a:	54 54       	subi	r21, 0x44	; 68
    767c:	53 24       	eor	r5, r3
    767e:	7e 53       	subi	r23, 0x3E	; 62
    7680:	53 24       	eor	r5, r3
    7682:	6e 0f       	add	r22, r30
    7684:	0f 54       	subi	r16, 0x4F	; 79
    7686:	5b 05       	cpc	r21, r11
    7688:	54 54       	subi	r21, 0x44	; 68
    768a:	82 01       	movw	r16, r4
    768c:	92 61       	ori	r25, 0x12	; 18
    768e:	16 76       	andi	r17, 0x66	; 102
    7690:	17 8b       	std	Z+23, r17	; 0x17
    7692:	87 00       	.word	0x0087	; ????
    7694:	ef 32       	cpi	r30, 0x2F	; 47
    7696:	01 0d       	add	r16, r1
    7698:	00 0f       	add	r16, r16
    769a:	61 f0       	breq	.+24     	; 0x76b4 <Module+0x2182>
    769c:	76 18       	sub	r7, r6
    769e:	8b 87       	std	Y+11, r24	; 0x0b
    76a0:	00 f5       	brcc	.+64     	; 0x76e2 <Module+0x21b0>
    76a2:	32 00       	.word	0x0032	; ????
    76a4:	82 01       	movw	r16, r4
    76a6:	08 0c       	add	r0, r8
    76a8:	61 f6       	brne	.-104    	; 0x7642 <Module+0x2110>
    76aa:	76 19       	sub	r23, r6
    76ac:	8b 87       	std	Y+11, r24	; 0x0b
    76ae:	00 ed       	ldi	r16, 0xD0	; 208
    76b0:	32 00       	.word	0x0032	; ????
    76b2:	82 01       	movw	r16, r4
    76b4:	32 86       	std	Z+10, r3	; 0x0a
    76b6:	00 76       	andi	r16, 0x60	; 96
    76b8:	ed 53       	subi	r30, 0x3D	; 61
    76ba:	24 7e       	andi	r18, 0xE4	; 228
    76bc:	82 11       	cpse	r24, r2
    76be:	54 82       	std	Z+4, r5	; 0x04
    76c0:	01 53       	subi	r16, 0x31	; 49
    76c2:	53 53       	subi	r21, 0x33	; 51
    76c4:	24 5b       	subi	r18, 0xB4	; 180
    76c6:	01 54       	subi	r16, 0x41	; 65
    76c8:	6e 1f       	adc	r22, r30
    76ca:	54 8e       	std	Z+28, r5	; 0x1c
    76cc:	53 53       	subi	r21, 0x33	; 51
    76ce:	53 82       	std	Z+3, r5	; 0x03
    76d0:	11 6e       	ori	r17, 0xE1	; 225
    76d2:	08 00       	.word	0x0008	; ????
    76d4:	00 00       	nop
    76d6:	54 5c       	subi	r21, 0xC4	; 196
    76d8:	01 05       	cpc	r16, r1
    76da:	54 54       	subi	r21, 0x44	; 68
    76dc:	54 82       	std	Z+4, r5	; 0x04
    76de:	01 92       	st	Z+, r0
    76e0:	61 19       	sub	r22, r1
    76e2:	76 10       	cpse	r7, r6
    76e4:	8b 22       	and	r8, r27
    76e6:	86 00       	.word	0x0086	; ????
    76e8:	92 76       	andi	r25, 0x62	; 98
    76ea:	15 25       	eor	r17, r5
    76ec:	82 01       	movw	r16, r4
    76ee:	42 01       	movw	r8, r4
    76f0:	42 02       	muls	r20, r18
    76f2:	42 03       	mulsu	r20, r18
    76f4:	42 04       	cpc	r4, r2
    76f6:	76 fd       	sbrc	r23, 6
    76f8:	82 71       	andi	r24, 0x12	; 18
    76fa:	76 fc       	sbrc	r7, 6
    76fc:	82 11       	cpse	r24, r2
    76fe:	82 02       	muls	r24, r18
    7700:	53 2d       	mov	r21, r3
    7702:	65 01       	movw	r12, r10
    7704:	00 54       	subi	r16, 0x40	; 64
    7706:	59 32       	cpi	r21, 0x29	; 41
    7708:	76 fb       	bst	r23, 6
    770a:	27 12       	cpse	r2, r23
    770c:	67 fc       	sbrc	r6, 7
    770e:	82 e2       	ldi	r24, 0x22	; 34
    7710:	fb 04       	cpc	r15, r11
    7712:	32 27       	eor	r19, r18
    7714:	01 82       	std	Z+1, r0	; 0x01
    7716:	11 22       	and	r1, r17
    7718:	77 fd       	sbrc	r23, 7
    771a:	00 92 76 11 	sts	0x1176, r0
    771e:	82 03       	fmuls	r16, r18
    7720:	04 82       	std	Z+4, r0	; 0x04
    7722:	01 25       	eor	r16, r1
    7724:	82 04       	cpc	r8, r2
    7726:	76 fa       	bst	r7, 6
    7728:	53 82       	std	Z+3, r5	; 0x03
    772a:	13 55       	subi	r17, 0x53	; 83
    772c:	01 00       	.word	0x0001	; ????
    772e:	54 82       	std	Z+4, r5	; 0x04
    7730:	03 22       	and	r0, r19
    7732:	59 53       	subi	r21, 0x39	; 57
    7734:	82 53       	subi	r24, 0x32	; 50
    7736:	65 01       	movw	r12, r10
    7738:	00 54       	subi	r16, 0x40	; 64
    773a:	5d 82       	std	Y+5, r5	; 0x05
    773c:	23 32       	cpi	r18, 0x23	; 35
    773e:	04 82       	std	Z+4, r0	; 0x04
    7740:	02 76       	andi	r16, 0x62	; 98
    7742:	f9 27       	eor	r31, r25
    7744:	12 67       	ori	r17, 0x72	; 114
    7746:	f8 82       	st	Y, r15
    7748:	e2 f9       	bld	r30, 2
    774a:	61 f6       	brne	.-104    	; 0x76e4 <Module+0x21b2>
    774c:	76 f8       	bld	r7, 6
    774e:	82 12       	cpse	r8, r18
    7750:	32 82       	std	Z+2, r3	; 0x02
    7752:	11 67       	ori	r17, 0x71	; 113
    7754:	f7 93       	.word	0x93f7	; ????
    7756:	76 f7       	brtc	.-36     	; 0x7734 <Module+0x2202>
    7758:	01 82       	std	Z+1, r0	; 0x01
    775a:	34 76       	andi	r19, 0x64	; 100
    775c:	f6 82       	std	Z+6, r15	; 0x06
    775e:	e1 fa       	bst	r14, 1
    7760:	82 14       	cp	r8, r2
    7762:	58 01       	movw	r10, r16
    7764:	92 76       	andi	r25, 0x62	; 98
    7766:	2d 53       	subi	r18, 0x3D	; 61
    7768:	2d 65       	ori	r18, 0x5D	; 93
    776a:	01 00       	.word	0x0001	; ????
    776c:	00 00       	nop
    776e:	85 01       	movw	r16, r10
    7770:	54 59       	subi	r21, 0x94	; 148
    7772:	92 76       	andi	r25, 0x62	; 98
    7774:	11 25       	eor	r17, r1
    7776:	01 00       	.word	0x0001	; ????
    7778:	00 00       	nop
    777a:	82 01       	movw	r16, r4
    777c:	92 76       	andi	r25, 0x62	; 98
    777e:	12 71       	andi	r17, 0x12	; 18
    7780:	2d 82       	std	Y+5, r2	; 0x05
    7782:	02 71       	andi	r16, 0x12	; 18
    7784:	2d 82       	std	Y+5, r2	; 0x05
    7786:	03 7a       	andi	r16, 0xA3	; 163
    7788:	b2 03       	fmuls	r19, r18
    778a:	43 22       	and	r4, r19
    778c:	8a 82       	std	Y+2, r8	; 0x02
    778e:	03 76       	andi	r16, 0x63	; 99
    7790:	43 82       	std	Z+3, r4	; 0x03
    7792:	12 92       	st	-Z, r1
    7794:	76 13       	cpse	r23, r22
    7796:	82 13       	cpse	r24, r18
    7798:	92 76       	andi	r25, 0x62	; 98
    779a:	14 53       	subi	r17, 0x34	; 52
    779c:	82 13       	cpse	r24, r18
    779e:	75 82       	std	Z+5, r7	; 0x05
    77a0:	12 75       	andi	r17, 0x52	; 82
    77a2:	01 00       	.word	0x0001	; ????
    77a4:	00 54       	subi	r16, 0x40	; 64
    77a6:	29 77       	andi	r18, 0x79	; 121
    77a8:	89 01       	movw	r16, r18
    77aa:	00 61       	ori	r16, 0x10	; 16
    77ac:	79 76       	andi	r23, 0x69	; 105
    77ae:	89 53       	subi	r24, 0x39	; 57
    77b0:	53 53       	subi	r21, 0x33	; 51
    77b2:	24 85       	ldd	r18, Z+12	; 0x0c
    77b4:	01 00       	.word	0x0001	; ????
    77b6:	00 54       	subi	r16, 0x40	; 64
    77b8:	55 01       	movw	r10, r10
    77ba:	00 00       	nop
    77bc:	00 54       	subi	r16, 0x40	; 64
    77be:	35 75       	andi	r19, 0x55	; 85
    77c0:	01 54       	subi	r16, 0x41	; 65
    77c2:	76 79       	andi	r23, 0x96	; 150
    77c4:	53 82       	std	Z+3, r5	; 0x03
    77c6:	05 65       	ori	r16, 0x55	; 85
    77c8:	01 00       	.word	0x0001	; ????
    77ca:	00 54       	subi	r16, 0x40	; 64
    77cc:	53 5d       	subi	r21, 0xD3	; 211
    77ce:	55 01       	movw	r10, r10
    77d0:	00 00       	nop
    77d2:	54 92       	.word	0x9254	; ????
    77d4:	76 15       	cp	r23, r6
    77d6:	82 06       	cpc	r8, r18
    77d8:	71 2d       	mov	r23, r1
    77da:	82 04       	cpc	r8, r2
    77dc:	82 16       	cp	r8, r18
    77de:	94 7a       	andi	r25, 0xA4	; 164
    77e0:	94 02       	muls	r25, r20
    77e2:	98 7a       	andi	r25, 0xA8	; 168
    77e4:	c4 03       	fmuls	r20, r20
    77e6:	98 53       	subi	r25, 0x38	; 56
    77e8:	82 15       	cp	r24, r2
    77ea:	65 82       	std	Z+5, r6	; 0x05
    77ec:	16 54       	subi	r17, 0x46	; 70
    77ee:	76 98       	cbi	0x0e, 6	; 14
    77f0:	53 24       	eor	r5, r3
    77f2:	65 01       	movw	r12, r10
    77f4:	00 00       	nop
    77f6:	54 53       	subi	r21, 0x34	; 52
    77f8:	5d 55       	subi	r21, 0x5D	; 93
    77fa:	01 00       	.word	0x0001	; ????
    77fc:	00 54       	subi	r16, 0x40	; 64
    77fe:	82 31       	cpi	r24, 0x12	; 18
    7800:	92 76       	andi	r25, 0x62	; 98
    7802:	17 82       	std	Z+7, r1	; 0x07
    7804:	14 92       	.word	0x9214	; ????
    7806:	76 18       	sub	r7, r6
    7808:	82 11       	cpse	r24, r2
    780a:	92 76       	andi	r25, 0x62	; 98
    780c:	15 53       	subi	r17, 0x35	; 53
    780e:	2d 65       	ori	r18, 0x5D	; 93
    7810:	06 85       	ldd	r16, Z+14	; 0x0e
    7812:	01 54       	subi	r16, 0x41	; 65
    7814:	59 92       	st	Y+, r5
    7816:	76 11       	cpse	r23, r6
    7818:	87 01       	movw	r16, r14
    781a:	22 15       	cp	r18, r2
    781c:	53 82       	std	Z+3, r5	; 0x03
    781e:	04 85       	ldd	r16, Z+12	; 0x0c
    7820:	15 82       	std	Z+5, r1	; 0x05
    7822:	34 55       	subi	r19, 0x54	; 84
    7824:	01 00       	.word	0x0001	; ????
    7826:	54 82       	std	Z+4, r5	; 0x04
    7828:	03 82       	std	Z+3, r0	; 0x03
    782a:	14 32       	cpi	r17, 0x24	; 36
    782c:	03 77       	andi	r16, 0x73	; 115
    782e:	23 07       	cpc	r18, r19
    7830:	67 24       	eor	r6, r7
    7832:	01 01       	movw	r0, r2
    7834:	67 24       	eor	r6, r7
    7836:	01 02       	muls	r16, r17
    7838:	67 23       	and	r22, r23
    783a:	86 01       	movw	r16, r12
    783c:	03 07       	cpc	r16, r19
    783e:	61 34       	cpi	r22, 0x41	; 65
    7840:	76 22       	and	r7, r22
    7842:	15 53       	subi	r17, 0x35	; 53
    7844:	82 05       	cpc	r24, r2
    7846:	85 15       	cp	r24, r5
    7848:	82 35       	cpi	r24, 0x52	; 82
    784a:	55 01       	movw	r10, r10
    784c:	00 54       	subi	r16, 0x40	; 64
    784e:	82 03       	fmuls	r16, r18
    7850:	82 15       	cp	r24, r2
    7852:	32 07       	cpc	r19, r18
    7854:	67 23       	and	r22, r23
    7856:	82 14       	cp	r8, r2
    7858:	67 24       	eor	r6, r7
    785a:	76 38       	cpi	r23, 0x86	; 134
    785c:	07 00       	.word	0x0007	; ????
    785e:	61 34       	cpi	r22, 0x41	; 65
    7860:	76 23       	and	r23, r22
    7862:	22 86       	std	Z+10, r2	; 0x0a
    7864:	01 82       	std	Z+1, r0	; 0x01
    7866:	12 82       	std	Z+2, r1	; 0x02
    7868:	51 06       	cpc	r5, r17
    786a:	09 61       	ori	r16, 0x19	; 25
    786c:	34 76       	andi	r19, 0x64	; 100
    786e:	24 22       	and	r2, r20
    7870:	86 01       	movw	r16, r12
    7872:	82 12       	cpse	r8, r18
    7874:	82 31       	cpi	r24, 0x12	; 18
    7876:	06 08       	sbc	r0, r6
    7878:	76 34       	cpi	r23, 0x46	; 70
    787a:	69 53       	subi	r22, 0x39	; 57
    787c:	69 01       	movw	r12, r18
    787e:	76 16       	cp	r7, r22
    7880:	82 11       	cpse	r24, r2
    7882:	69 1f       	adc	r22, r25
    7884:	69 1b       	sub	r22, r25
    7886:	82 13       	cpse	r24, r18
    7888:	92 76       	andi	r25, 0x62	; 98
    788a:	12 82       	std	Z+2, r1	; 0x02
    788c:	02 92       	st	-Z, r0
    788e:	76 17       	cp	r23, r22
    7890:	82 12       	cpse	r8, r18
    7892:	92 76       	andi	r25, 0x62	; 98
    7894:	13 22       	and	r1, r19
    7896:	86 01       	movw	r16, r12
    7898:	01 00       	.word	0x0001	; ????
    789a:	00 00       	nop
    789c:	82 01       	movw	r16, r4
    789e:	71 38       	cpi	r23, 0x81	; 129
    78a0:	00 92 76 14 	sts	0x1476, r0
    78a4:	82 11       	cpse	r24, r2
    78a6:	92 76       	andi	r25, 0x62	; 98
    78a8:	60 82       	st	Z, r6
    78aa:	13 5d       	subi	r17, 0xD3	; 211
    78ac:	32 08       	sbc	r3, r2
    78ae:	06 02       	muls	r16, r22
    78b0:	09 69       	ori	r16, 0x99	; 153
    78b2:	54 00       	.word	0x0054	; ????
    78b4:	00 69       	ori	r16, 0x90	; 144
    78b6:	01 82       	std	Z+1, r0	; 0x01
    78b8:	14 5d       	subi	r17, 0xD4	; 212
    78ba:	32 07       	cpc	r19, r18
    78bc:	02 02       	muls	r16, r18
    78be:	09 69       	ori	r16, 0x99	; 153
    78c0:	54 00       	.word	0x0054	; ????
    78c2:	00 76       	andi	r16, 0x60	; 96
    78c4:	80 69       	ori	r24, 0x90	; 144
    78c6:	02 69       	ori	r16, 0x92	; 146
    78c8:	1f 69       	ori	r17, 0x9F	; 159
    78ca:	1a 92       	st	-Y, r1
    78cc:	76 16       	cp	r7, r22
    78ce:	71 60       	ori	r23, 0x01	; 1
    78d0:	82 11       	cpse	r24, r2
    78d2:	92 76       	andi	r25, 0x62	; 98
    78d4:	15 25       	eor	r17, r5
    78d6:	58 02       	muls	r21, r24
    78d8:	06 03       	mulsu	r16, r22
    78da:	00 82       	st	Z, r0
    78dc:	05 04       	cpc	r0, r5
    78de:	08 07       	cpc	r16, r24
    78e0:	94 82       	std	Z+4, r9	; 0x04
    78e2:	03 02       	muls	r16, r19
    78e4:	06 00       	.word	0x0006	; ????
    78e6:	03 82       	std	Z+3, r0	; 0x03
    78e8:	04 76       	andi	r16, 0x64	; 100
    78ea:	12 71       	andi	r17, 0x12	; 18
    78ec:	60 82       	st	Z, r6
    78ee:	15 92       	.word	0x9215	; ????
    78f0:	76 13       	cpse	r23, r22
    78f2:	71 60       	ori	r23, 0x01	; 1
    78f4:	82 13       	cpse	r24, r18
    78f6:	92 76       	andi	r25, 0x62	; 98
    78f8:	14 71       	andi	r17, 0x14	; 20
    78fa:	60 82       	st	Z, r6
    78fc:	14 92       	.word	0x9214	; ????
    78fe:	76 11       	cpse	r23, r6
    7900:	32 07       	cpc	r19, r18
    7902:	05 22       	and	r0, r21
    7904:	77 75       	andi	r23, 0x57	; 87
    7906:	32 76       	andi	r19, 0x62	; 98
    7908:	75 29       	or	r23, r5
    790a:	77 85       	ldd	r23, Z+15	; 0x0f
    790c:	00 76       	andi	r16, 0x60	; 96
    790e:	85 53       	subi	r24, 0x35	; 53
    7910:	82 01       	movw	r16, r4
    7912:	75 82       	std	Z+5, r7	; 0x05
    7914:	15 54       	subi	r17, 0x45	; 69
    7916:	94 77       	andi	r25, 0x74	; 116
    7918:	65 82       	std	Z+5, r6	; 0x05
    791a:	15 82       	std	Z+5, r1	; 0x05
    791c:	01 00       	.word	0x0001	; ????
    791e:	76 65       	ori	r23, 0x56	; 86
    7920:	82 05       	cpc	r24, r2
    7922:	53 82       	std	Z+3, r5	; 0x03
    7924:	11 65       	ori	r17, 0x51	; 81
    7926:	01 08       	sbc	r0, r1
    7928:	09 00       	.word	0x0009	; ????
    792a:	55 53       	subi	r21, 0x35	; 53
    792c:	82 15       	cp	r24, r2
    792e:	85 01       	movw	r16, r10
    7930:	02 06       	cpc	r0, r18
    7932:	00 54       	subi	r16, 0x40	; 64
    7934:	75 01       	movw	r14, r10
    7936:	03 54       	subi	r16, 0x43	; 67
    7938:	53 82       	std	Z+3, r5	; 0x03
    793a:	02 55       	subi	r16, 0x52	; 82
    793c:	02 85       	ldd	r16, Z+10	; 0x0a
    793e:	82 13       	cpse	r24, r18
    7940:	54 82       	std	Z+4, r5	; 0x04
    7942:	34 82       	std	Z+4, r3	; 0x04
    7944:	12 82       	std	Z+2, r1	; 0x02
    7946:	33 82       	std	Z+3, r3	; 0x03
    7948:	13 77       	andi	r17, 0x73	; 115
    794a:	70 82       	st	Z, r7
    794c:	15 22       	and	r1, r21
    794e:	67 70       	andi	r22, 0x07	; 7
    7950:	53 82       	std	Z+3, r5	; 0x03
    7952:	13 75       	andi	r17, 0x53	; 83
    7954:	53 82       	std	Z+3, r5	; 0x03
    7956:	14 65       	ori	r17, 0x54	; 84
    7958:	02 06       	cpc	r0, r18
    795a:	54 34       	cpi	r21, 0x44	; 68
    795c:	54 82       	std	Z+4, r5	; 0x04
    795e:	03 00       	.word	0x0003	; ????
    7960:	82 04       	cpc	r8, r2
    7962:	76 70       	andi	r23, 0x06	; 6
    7964:	82 14       	cp	r8, r2
    7966:	32 77       	andi	r19, 0x72	; 114
    7968:	39 71       	andi	r19, 0x19	; 25
    796a:	60 82       	st	Z, r6
    796c:	11 92       	st	Z+, r1
    796e:	76 39       	cpi	r23, 0x96	; 150
    7970:	06 94       	lsr	r0
    7972:	32 82       	std	Z+2, r3	; 0x02
    7974:	13 77       	andi	r17, 0x73	; 115
    7976:	38 86       	std	Y+8, r3	; 0x08
    7978:	0f 69       	ori	r16, 0x9F	; 159
    797a:	00 07       	cpc	r16, r16
    797c:	02 69       	ori	r16, 0x92	; 146
    797e:	53 69       	ori	r21, 0x93	; 147
    7980:	01 07       	cpc	r16, r17
    7982:	09 61       	ori	r16, 0x19	; 25
    7984:	30 76       	andi	r19, 0x60	; 96
    7986:	38 08       	sbc	r3, r8
    7988:	00 69       	ori	r16, 0x90	; 144
    798a:	53 69       	ori	r21, 0x93	; 147
    798c:	01 07       	cpc	r16, r17
    798e:	06 76       	andi	r16, 0x66	; 102
    7990:	30 69       	ori	r19, 0x90	; 144
    7992:	53 71       	andi	r21, 0x13	; 19
    7994:	80 82       	st	Z, r8
    7996:	13 92       	.word	0x9213	; ????
    7998:	76 15       	cp	r23, r6
    799a:	82 02       	muls	r24, r18
    799c:	82 01       	movw	r16, r4
    799e:	82 11       	cpse	r24, r2
    79a0:	29 67       	ori	r18, 0x79	; 121
    79a2:	92 22       	and	r9, r18
    79a4:	87 00       	.word	0x0087	; ????
    79a6:	60 76       	andi	r22, 0x60	; 96
    79a8:	34 93       	.word	0x9334	; ????
    79aa:	03 32       	cpi	r16, 0x23	; 35
    79ac:	2d 22       	and	r2, r29
    79ae:	77 35       	cpi	r23, 0x57	; 87
    79b0:	53 82       	std	Z+3, r5	; 0x03
    79b2:	11 6e       	ori	r17, 0xE1	; 225
    79b4:	03 54       	subi	r16, 0x43	; 67
    79b6:	82 03       	fmuls	r16, r18
    79b8:	03 7a       	andi	r16, 0xA3	; 163
    79ba:	83 00       	.word	0x0083	; ????
    79bc:	39 25       	eor	r19, r9
    79be:	02 7a       	andi	r16, 0xA2	; 162
    79c0:	f3 02       	muls	r31, r19
    79c2:	39 25       	eor	r19, r9
    79c4:	01 7a       	andi	r16, 0xA1	; 161
    79c6:	f3 01       	movw	r30, r6
    79c8:	39 76       	andi	r19, 0x69	; 105
    79ca:	35 82       	std	Z+5, r3	; 0x05
    79cc:	11 32       	cpi	r17, 0x21	; 33
    79ce:	53 2d       	mov	r21, r3
    79d0:	65 03       	mulsu	r22, r21
    79d2:	85 01       	movw	r16, r10
    79d4:	54 59       	subi	r21, 0x94	; 148
    79d6:	32 22       	and	r3, r18
    79d8:	77 35       	cpi	r23, 0x57	; 87
    79da:	32 76       	andi	r19, 0x62	; 98
    79dc:	39 82       	std	Y+1, r3	; 0x01
    79de:	51 32       	cpi	r21, 0x21	; 33
    79e0:	08 06       	cpc	r0, r24
    79e2:	69 53       	subi	r22, 0x39	; 57
    79e4:	69 01       	movw	r12, r18
    79e6:	08 01       	movw	r0, r16
    79e8:	93 03       	fmuls	r17, r19
    79ea:	69 53       	subi	r22, 0x39	; 57
    79ec:	69 02       	muls	r22, r25
    79ee:	69 1f       	adc	r22, r25
    79f0:	69 1a       	sub	r6, r25
    79f2:	32 66       	ori	r19, 0x62	; 98
    79f4:	69 81       	ldd	r22, Y+1	; 0x01
    79f6:	66 69       	ori	r22, 0x96	; 150
    79f8:	81 82       	std	Z+1, r8	; 0x01
    79fa:	11 29       	or	r17, r1
    79fc:	22 67       	ori	r18, 0x72	; 114
    79fe:	60 86       	std	Z+8, r6	; 0x08
    7a00:	00 08       	sbc	r0, r0
    7a02:	05 69       	ori	r16, 0x95	; 149
    7a04:	53 69       	ori	r21, 0x93	; 147
    7a06:	01 09       	sbc	r16, r1
    7a08:	03 93       	.word	0x9303	; ????
    7a0a:	04 61       	ori	r16, 0x14	; 20
    7a0c:	65 76       	andi	r22, 0x65	; 101
    7a0e:	60 08       	sbc	r6, r0
    7a10:	04 69       	ori	r16, 0x94	; 148
    7a12:	53 69       	ori	r21, 0x93	; 147
    7a14:	01 08       	sbc	r0, r1
    7a16:	01 93       	st	Z+, r16
    7a18:	03 69       	ori	r16, 0x93	; 147
    7a1a:	53 69       	ori	r21, 0x93	; 147
    7a1c:	02 69       	ori	r16, 0x92	; 146
    7a1e:	1f 69       	ori	r17, 0x9F	; 159
    7a20:	1a 82       	std	Y+2, r1	; 0x02
    7a22:	11 92       	st	Z+, r1
    7a24:	76 11       	cpse	r23, r6
    7a26:	32 01       	movw	r6, r4
    7a28:	77 85       	ldd	r23, Z+15	; 0x0f
    7a2a:	32 76       	andi	r19, 0x62	; 98
    7a2c:	85 32       	cpi	r24, 0x25	; 37
    7a2e:	03 22       	and	r0, r19
    7a30:	77 55       	subi	r23, 0x57	; 87
    7a32:	32 76       	andi	r19, 0x62	; 98
    7a34:	55 32       	cpi	r21, 0x25	; 37
    7a36:	82 11       	cpse	r24, r2
    7a38:	22 77       	andi	r18, 0x72	; 114
    7a3a:	75 32       	cpi	r23, 0x25	; 37
    7a3c:	76 75       	andi	r23, 0x56	; 86
    7a3e:	82 51       	subi	r24, 0x12	; 18
    7a40:	82 11       	cpse	r24, r2
    7a42:	29 22       	and	r2, r25
    7a44:	67 34       	cpi	r22, 0x47	; 71
    7a46:	22 86       	std	Z+10, r2	; 0x0a
    7a48:	00 08       	sbc	r0, r0
    7a4a:	05 69       	ori	r16, 0x95	; 149
    7a4c:	53 69       	ori	r21, 0x93	; 147
    7a4e:	01 08       	sbc	r0, r1
    7a50:	07 93       	.word	0x9307	; ????
    7a52:	03 76       	andi	r16, 0x63	; 99
    7a54:	65 69       	ori	r22, 0x95	; 149
    7a56:	53 69       	ori	r21, 0x93	; 147
    7a58:	02 69       	ori	r16, 0x92	; 146
    7a5a:	1f 69       	ori	r17, 0x9F	; 159
    7a5c:	1a 82       	std	Y+2, r1	; 0x02
    7a5e:	12 92       	st	-Z, r1
    7a60:	61 15       	cp	r22, r1
    7a62:	76 92       	.word	0x9276	; ????
    7a64:	92 76       	andi	r25, 0x62	; 98
    7a66:	11 25       	eor	r17, r1
    7a68:	09 04       	cpc	r0, r9
    7a6a:	69 53       	subi	r22, 0x39	; 57
    7a6c:	69 01       	movw	r12, r18
    7a6e:	06 07       	cpc	r16, r22
    7a70:	93 05       	cpc	r25, r3
    7a72:	69 53       	subi	r22, 0x39	; 57
    7a74:	69 02       	muls	r22, r25
    7a76:	69 0a       	sbc	r6, r25
    7a78:	2d 65       	ori	r18, 0x5D	; 93
    7a7a:	03 85       	ldd	r16, Z+11	; 0x0b
    7a7c:	01 95       	neg	r16
    7a7e:	32 69       	ori	r19, 0x92	; 146
    7a80:	83 76       	andi	r24, 0x63	; 99
    7a82:	2d 69       	ori	r18, 0x9D	; 157
    7a84:	40 69       	ori	r20, 0x90	; 144
    7a86:	84 22       	and	r8, r20
    7a88:	77 2d       	mov	r23, r7
    7a8a:	09 05       	cpc	r16, r9
    7a8c:	69 53       	subi	r22, 0x39	; 57
    7a8e:	69 01       	movw	r12, r18
    7a90:	09 06       	cpc	r0, r25
    7a92:	93 02       	muls	r25, r19
    7a94:	69 53       	subi	r22, 0x39	; 57
    7a96:	69 02       	muls	r22, r25
    7a98:	69 0a       	sbc	r6, r25
    7a9a:	00 82       	st	Z, r0
    7a9c:	01 69       	ori	r16, 0x91	; 145
    7a9e:	40 69       	ori	r20, 0x90	; 144
    7aa0:	83 76       	andi	r24, 0x63	; 99
    7aa2:	38 82       	st	Y, r3
    7aa4:	11 69       	ori	r17, 0x91	; 145
    7aa6:	46 02       	muls	r20, r22
    7aa8:	05 05       	cpc	r16, r5
    7aaa:	32 69       	ori	r19, 0x92	; 146
    7aac:	40 22       	and	r4, r16
    7aae:	67 39       	cpi	r22, 0x97	; 151
    7ab0:	69 80       	ldd	r6, Y+1	; 0x01
    7ab2:	08 00       	.word	0x0008	; ????
    7ab4:	32 82       	std	Z+2, r3	; 0x02
    7ab6:	71 82       	std	Z+1, r7	; 0x01
    7ab8:	11 22       	and	r1, r17
    7aba:	77 38       	cpi	r23, 0x87	; 135
    7abc:	76 39       	cpi	r23, 0x96	; 150
    7abe:	69 84       	ldd	r6, Y+9	; 0x09
    7ac0:	32 09       	sbc	r19, r2
    7ac2:	07 69       	ori	r16, 0x97	; 151
    7ac4:	53 69       	ori	r21, 0x93	; 147
    7ac6:	01 06       	cpc	r0, r17
    7ac8:	05 69       	ori	r16, 0x95	; 149
    7aca:	53 02       	muls	r21, r19
    7acc:	06 00       	.word	0x0006	; ????
    7ace:	00 00       	nop
    7ad0:	00 69       	ori	r16, 0x90	; 144
    7ad2:	02 69       	ori	r16, 0x92	; 146
    7ad4:	1f 69       	ori	r17, 0x9F	; 159
    7ad6:	1a 32       	cpi	r17, 0x2A	; 42
    7ad8:	92 61       	ori	r25, 0x12	; 18
    7ada:	11 76       	andi	r17, 0x61	; 97
    7adc:	14 25       	eor	r17, r4
    7ade:	69 83       	std	Y+1, r22	; 0x01
    7ae0:	76 33       	cpi	r23, 0x36	; 54
    7ae2:	06 05       	cpc	r16, r6
    7ae4:	69 53       	subi	r22, 0x39	; 57
    7ae6:	69 03       	fmul	r22, r17
    7ae8:	69 84       	ldd	r6, Y+9	; 0x09
    7aea:	69 0e       	add	r6, r25
    7aec:	69 40       	sbci	r22, 0x09	; 9
    7aee:	32 02       	muls	r19, r18
    7af0:	05 05       	cpc	r16, r5
    7af2:	67 33       	cpi	r22, 0x37	; 55
    7af4:	02 01       	movw	r0, r4
    7af6:	22 67       	ori	r18, 0x72	; 114
    7af8:	33 69       	ori	r19, 0x93	; 147
    7afa:	84 92       	.word	0x9284	; ????
    7afc:	76 15       	cp	r23, r6
    7afe:	61 33       	cpi	r22, 0x31	; 49
    7b00:	76 38       	cpi	r23, 0x86	; 134
    7b02:	82 e0       	ldi	r24, 0x02	; 2
    7b04:	18 76       	andi	r17, 0x68	; 104
    7b06:	88 25       	eor	r24, r8
    7b08:	35 76       	andi	r19, 0x65	; 101
    7b0a:	18 53       	subi	r17, 0x38	; 56
    7b0c:	53 82       	std	Z+3, r5	; 0x03
    7b0e:	19 65       	ori	r17, 0x59	; 89
    7b10:	05 54       	subi	r16, 0x45	; 69
    7b12:	58 02       	muls	r21, r24
    7b14:	52 02       	muls	r21, r18
    7b16:	85 82       	std	Z+5, r8	; 0x05
    7b18:	10 55       	subi	r17, 0x50	; 80
    7b1a:	01 00       	.word	0x0001	; ????
    7b1c:	00 54       	subi	r16, 0x40	; 64
    7b1e:	22 52       	subi	r18, 0x22	; 34
    7b20:	92 76       	andi	r25, 0x62	; 98
    7b22:	16 82       	std	Z+6, r1	; 0x06
    7b24:	11 92       	st	Z+, r1
    7b26:	76 17       	cp	r23, r22
    7b28:	82 12       	cpse	r8, r18
    7b2a:	92 76       	andi	r25, 0x62	; 98
    7b2c:	95 82       	std	Z+5, r9	; 0x05
    7b2e:	96 92       	.word	0x9296	; ????
    7b30:	76 15       	cp	r23, r6
    7b32:	03 00       	.word	0x0003	; ????
    7b34:	82 09       	sbc	r24, r2
    7b36:	53 82       	std	Z+3, r5	; 0x03
    7b38:	97 85       	ldd	r25, Z+15	; 0x0f
    7b3a:	01 06       	cpc	r0, r17
    7b3c:	82 00       	.word	0x0082	; ????
    7b3e:	32 01       	movw	r6, r4
    7b40:	06 54       	subi	r16, 0x46	; 70
    7b42:	33 69       	ori	r19, 0x93	; 147
    7b44:	73 37       	cpi	r23, 0x73	; 115
    7b46:	22 37       	cpi	r18, 0x72	; 114
    7b48:	69 72       	andi	r22, 0x29	; 41
    7b4a:	82 08       	sbc	r8, r2
    7b4c:	93 02       	muls	r25, r19
    7b4e:	82 04       	cpc	r8, r2
    7b50:	01 82       	std	Z+1, r0	; 0x01
    7b52:	05 61       	ori	r16, 0x15	; 21
    7b54:	38 76       	andi	r19, 0x68	; 104
    7b56:	11 82       	std	Z+1, r1	; 0x01
    7b58:	01 92       	st	Z+, r0
    7b5a:	76 12       	cpse	r7, r22
    7b5c:	82 02       	muls	r24, r18
    7b5e:	92 76       	andi	r25, 0x62	; 98
    7b60:	13 53       	subi	r17, 0x33	; 51
    7b62:	02 65       	ori	r16, 0x52	; 82
    7b64:	82 15       	cp	r24, r2
    7b66:	54 82       	std	Z+4, r5	; 0x04
    7b68:	57 00       	.word	0x0057	; ????
    7b6a:	71 95       	neg	r23
    7b6c:	29 67       	ori	r18, 0x79	; 121
    7b6e:	89 53       	subi	r24, 0x39	; 57
    7b70:	24 65       	ori	r18, 0x54	; 84
    7b72:	82 15       	cp	r24, r2
    7b74:	82 37       	cpi	r24, 0x72	; 114
    7b76:	55 82       	std	Z+5, r5	; 0x05
    7b78:	17 54       	subi	r17, 0x47	; 71
    7b7a:	82 38       	cpi	r24, 0x82	; 130
    7b7c:	76 89       	ldd	r23, Z+22	; 0x16
    7b7e:	82 17       	cp	r24, r18
    7b80:	28 29       	or	r18, r8
    7b82:	22 77       	andi	r18, 0x72	; 114
    7b84:	88 82       	st	Y, r8
    7b86:	11 67       	ori	r17, 0x71	; 113
    7b88:	18 53       	subi	r17, 0x38	; 56
    7b8a:	53 24       	eor	r5, r3
    7b8c:	55 05       	cpc	r21, r5
    7b8e:	00 00       	nop
    7b90:	54 65       	ori	r21, 0x54	; 84
    7b92:	53 24       	eor	r5, r3
    7b94:	85 35       	cpi	r24, 0x55	; 85
    7b96:	65 82       	std	Z+5, r6	; 0x05
    7b98:	17 33       	cpi	r17, 0x37	; 55
    7b9a:	75 02       	muls	r23, r21
    7b9c:	65 82       	std	Z+5, r6	; 0x05
    7b9e:	17 65       	ori	r17, 0x57	; 87
    7ba0:	53 82       	std	Z+3, r5	; 0x03
    7ba2:	18 75       	andi	r17, 0x58	; 88
    7ba4:	82 12       	cpse	r8, r18
    7ba6:	65 89       	ldd	r22, Z+21	; 0x15
    7ba8:	55 01       	movw	r10, r10
    7baa:	08 00       	.word	0x0008	; ????
    7bac:	54 82       	std	Z+4, r5	; 0x04
    7bae:	06 69       	ori	r16, 0x96	; 150
    7bb0:	73 39       	cpi	r23, 0x93	; 147
    7bb2:	54 54       	subi	r21, 0x44	; 68
    7bb4:	34 53       	subi	r19, 0x34	; 52
    7bb6:	53 82       	std	Z+3, r5	; 0x03
    7bb8:	09 28       	or	r0, r9
    7bba:	94 75       	andi	r25, 0x54	; 84
    7bbc:	01 54       	subi	r16, 0x41	; 65
    7bbe:	29 77       	andi	r18, 0x79	; 121
    7bc0:	88 85       	ldd	r24, Y+8	; 0x08
    7bc2:	01 54       	subi	r16, 0x41	; 65
    7bc4:	77 80       	ldd	r7, Z+7	; 0x07
    7bc6:	53 24       	eor	r5, r3
    7bc8:	85 01       	movw	r16, r10
    7bca:	54 77       	andi	r21, 0x74	; 116
    7bcc:	79 00       	.word	0x0079	; ????
    7bce:	82 09       	sbc	r24, r2
    7bd0:	76 79       	andi	r23, 0x96	; 150
    7bd2:	00 71       	andi	r16, 0x10	; 16
    7bd4:	95 61       	ori	r25, 0x15	; 21
    7bd6:	38 76       	andi	r19, 0x68	; 104
    7bd8:	80 53       	subi	r24, 0x30	; 48
    7bda:	82 15       	cp	r24, r2
    7bdc:	75 82       	std	Z+5, r7	; 0x05
    7bde:	14 54       	subi	r17, 0x44	; 68
    7be0:	29 67       	ori	r18, 0x79	; 121
    7be2:	30 82       	st	Z, r3
    7be4:	05 76       	andi	r16, 0x65	; 101
    7be6:	30 01       	movw	r6, r0
    7be8:	71 95       	neg	r23
    7bea:	29 77       	andi	r18, 0x79	; 121
    7bec:	38 01       	movw	r6, r16
    7bee:	94 71       	andi	r25, 0x14	; 20
    7bf0:	95 61       	ori	r25, 0x15	; 21
    7bf2:	38 76       	andi	r19, 0x68	; 104
    7bf4:	10 69       	ori	r17, 0x90	; 144
    7bf6:	79 22       	and	r7, r25
    7bf8:	58 92       	.word	0x9258	; ????
    7bfa:	4d 4c       	sbci	r20, 0xCD	; 205
    7bfc:	6c ba       	out	0x1c, r6	; 28

00007bfe <_exit>:
    7bfe:	f8 94       	cli

00007c00 <__stop_program>:
    7c00:	ff cf       	rjmp	.-2      	; 0x7c00 <__stop_program>

Disassembly of section .crcdata:

00007c02 <Crc>:
    7c02:	13 ad       	ldd	r17, Z+59	; 0x3b
